 delpar

 Timestamp is 58734179 (Mon Jan 09 00:53:29 2017)

 Preferred load address is 00400000

 Start         Length     Name                   Class
 0001:00000000 0018fb60H .text                   CODE
 0001:0018fb60 0000b104H .text$mn                CODE
 0002:00000000 00000050H .text1                  CODE
 0003:00000000 000002f4H .idata$5                DATA
 0003:000002f4 00000004H .CRT$XCA                DATA
 0003:000002f8 00000004H .CRT$XCAA               DATA
 0003:000002fc 00000004H .CRT$XCF                DATA
 0003:00000300 00000004H .CRT$XCU                DATA
 0003:00000304 00000004H .CRT$XCZ                DATA
 0003:00000308 00000004H .CRT$XIA                DATA
 0003:0000030c 00000004H .CRT$XIAA               DATA
 0003:00000310 00000004H .CRT$XIC                DATA
 0003:00000314 00000004H .CRT$XIY                DATA
 0003:00000318 00000004H .CRT$XIZ                DATA
 0003:00000340 00049878H .rdata                  DATA
 0003:00049bc0 00000008H .rdata$sxdata           DATA
 0003:00049bc8 00000004H .rtc$IAA                DATA
 0003:00049bcc 00000004H .rtc$IZZ                DATA
 0003:00049bd0 00000004H .rtc$TAA                DATA
 0003:00049bd4 00000004H .rtc$TZZ                DATA
 0003:00049bd8 0000005cH .xdata$x                DATA
 0003:00049c34 00000000H .edata                  DATA
 0003:00049c34 00000050H .idata$2                DATA
 0003:00049c84 00000014H .idata$3                DATA
 0003:00049c98 000002f4H .idata$4                DATA
 0003:00049f8c 00000a2cH .idata$6                DATA
 0004:00000000 00018debH .data                   DATA
 0004:00018e00 01fc5e61H .bss                    DATA
 0005:00000000 00012170H .trace                  DATA
 0006:00000000 00000540H _RDATA                  DATA

  Address         Publics by Value              Rva+Base       Lib:Object

 0000:00000000       ___guard_fids_count        00000000     <absolute>
 0000:00000000       __except_list              00000000     <absolute>
 0000:00000000       ___guard_flags             00000000     <absolute>
 0000:00000000       ___guard_fids_table        00000000     <absolute>
 0000:00000002       ___safe_se_handler_count   00000002     <absolute>
 0000:00009876       __fltused                  00009876     <absolute>
 0000:00009876       __ldused                   00009876     <absolute>
 0000:00000000       ___ImageBase               00400000     <linker-defined>
 0001:00000000       _MAIN__                    00401000 f   main.obj
 0001:00000280       _DLMAIN                    00401280 f   part_kernel_f:dlmain.obj
 0001:000002b0       _DELPAR_MOD.               004012b0 f   part_kernel_f:delpar.obj
 0001:000002c0       _DELPAR_MOD_mp_DELPAR      004012c0 f   part_kernel_f:delpar.obj
 0001:000186e0       _PART01                    004196e0 f   part_kernel_f:part01.obj
 0001:00018ae0       _PLOTGRP                   00419ae0 f   part_kernel_f:plotgr.obj
 0001:00018e90       _PART08                    00419e90 f   part_kernel_f:part08.obj
 0001:0001a8b0       _PART06                    0041b8b0 f   part_kernel_f:part06.obj
 0001:0001aab0       _PART03                    0041bab0 f   part_kernel_f:part03.obj
 0001:0001b420       _PART15                    0041c420 f   part_kernel_f:part15.obj
 0001:0001bf80       _OILDSP_MOD.               0041cf80 f   part_kernel_f:oildsp.obj
 0001:0001bf90       _OILDSP_MOD_mp_OILDSP      0041cf90 f   part_kernel_f:oildsp.obj
 0001:00021f70       _PARTWQ_MOD.               00422f70 f   part_kernel_f:partwq.obj
 0001:00021f80       _PARTWQ_MOD_mp_PARTWQ      00422f80 f   part_kernel_f:partwq.obj
 0001:00025ca0       _PART09_MOD.               00426ca0 f   part_kernel_f:part09.obj
 0001:00025cb0       _PART09_MOD_mp_PART09      00426cb0 f   part_kernel_f:part09.obj
 0001:000269e0       _PART14_MOD.               004279e0 f   part_kernel_f:part14.obj
 0001:000269f0       _PART14_MOD_mp_PART14      004279f0 f   part_kernel_f:part14.obj
 0001:00027fd0       _PARTUR_MOD.               00428fd0 f   part_kernel_f:partur.obj
 0001:00027fe0       _PARTUR_MOD_mp_PARTUR      00428fe0 f   part_kernel_f:partur.obj
 0001:00028b10       _PART21_MOD.               00429b10 f   part_kernel_f:part21.obj
 0001:00028b20       _PART21_MOD_mp_PART21      00429b20 f   part_kernel_f:part21.obj
 0001:0002a400       _PARTVS                    0042b400 f   part_kernel_f:partvs.obj
 0001:0002b810       _PART17                    0042c810 f   part_kernel_f:part17.obj
 0001:0002bb00       _PART10_MOD.               0042cb00 f   part_kernel_f:part10.obj
 0001:0002bb10       _PART10_MOD_mp_PART10      0042cb10 f   part_kernel_f:part10.obj
 0001:0003d650       _PART10_MOD_mp_EQL         0043e650 f   part_kernel_f:part10.obj
 0001:0003d658       _PART10_MOD_mp_EQL.        0043e658 f   part_kernel_f:part10.obj
 0001:0003d6a0       _PART18_MOD.               0043e6a0 f   part_kernel_f:part18.obj
 0001:0003d6b0       _PART18_MOD_mp_PART18      0043e6b0 f   part_kernel_f:part18.obj
 0001:0003e3e0       _INIPART_ASC               0043f3e0 f   part_kernel_f:inipart_asc.obj
 0001:0003f4d0       _GET_VALID_LINE            004404d0 f   part_kernel_f:inipart.obj
 0001:0003f770       _INIPART                   00440770 f   part_kernel_f:inipart.obj
 0001:00040ab0       _DENSTY                    00441ab0 f   part_kernel_f:densty.obj
 0001:00040c70       _MUDREL_MOD.               00441c70 f   part_kernel_f:mudrel.obj
 0001:00040c80       _MUDREL_MOD_mp_MUDREL      00441c80 f   part_kernel_f:mudrel.obj
 0001:00044c70       _UMAGI                     00445c70 f   part_kernel_f:umagi.obj
 0001:00045520       _P10COR_MOD.               00446520 f   part_kernel_f:p10cor.obj
 0001:00045530       _P10COR_MOD_mp_P10COR      00446530 f   part_kernel_f:p10cor.obj
 0001:000459f0       _P10DDB                    004469f0 f   part_kernel_f:p10ddb.obj
 0001:00045c30       _PARTFL_MOD.               00446c30 f   part_kernel_f:partfl.obj
 0001:00045c40       _PARTFL_MOD_mp_PARTFL      00446c40 f   part_kernel_f:partfl.obj
 0001:000462a0       _DIFFUS                    004472a0 f   part_kernel_f:diffus.obj
 0001:00046480       _TIMERS.                   00447480 f   deltares_common:timers.obj
 0001:00046490       _TIMERS_mp_TIMINI          00447490 f   deltares_common:timers.obj
 0001:00046920       _TIMERS_mp_TIMSTRT         00447920 f   deltares_common:timers.obj
 0001:00046db0       _TIMERS_mp_TIMINC          00447db0 f   deltares_common:timers.obj
 0001:00049590       _TIMERS_mp_TIMFINALIZE     0044a590 f   deltares_common:timers.obj
 0001:000498b0       _TIMERS_mp_TIMLINE         0044a8b0 f   deltares_common:timers.obj
 0001:000498b4       _TIMERS_mp_TIMLINE.        0044a8b4 f   deltares_common:timers.obj
 0001:00049ce0       _TIMERS_mp_TIMDUMP         0044ace0 f   deltares_common:timers.obj
 0001:00049f20       _TIMERS_mp_TIMSTOP         0044af20 f   deltares_common:timers.obj
 0001:0004a180       _for_set_reentrancy        0044b180 f   libifcoremt:for_reentrancy.obj
 0001:0004a1a0       _for__reentrancy_cleanup   0044b1a0 f   libifcoremt:for_reentrancy.obj
 0001:0004a3c0       _for__destroy_threadstor   0044b3c0 f   libifcoremt:for_reentrancy.obj
 0001:0004a400       _for__destroy_threadstor_index 0044b400 f   libifcoremt:for_reentrancy.obj
 0001:0004a420       _for__access_threadstor_threads 0044b420 f   libifcoremt:for_reentrancy.obj
 0001:0004a630       _for__acquire_threadstor_threads 0044b630 f   libifcoremt:for_reentrancy.obj
 0001:0004a810       _for__disable_asynch_deliv_private 0044b810 f   libifcoremt:for_reentrancy.obj
 0001:0004a840       _for__enable_asynch_deliv_private 0044b840 f   libifcoremt:for_reentrancy.obj
 0001:0004a860       _for__acquire_semaphore_threaded 0044b860 f   libifcoremt:for_reentrancy.obj
 0001:0004a910       _for__reentrancy_init      0044b910 f   libifcoremt:for_reentrancy.obj
 0001:0004ab10       _for_iargc                 0044bb10 f   libifcoremt:for_getarg.obj
 0001:0004ab20       _for_getarg                0044bb20 f   libifcoremt:for_getarg.obj
 0001:0004ac00       _for_cpystr                0044bc00 f   libifcoremt:for_f90str.obj
 0001:0004ac90       _for_cpstr                 0044bc90 f   libifcoremt:for_f90str.obj
 0001:0004ae60       _for_concat                0044be60 f   libifcoremt:for_f90str.obj
 0001:0004b0b0       _for_inquire               0044c0b0 f   libifcoremt:for_inquire.obj
 0001:000526d0       _for_open                  004536d0 f   libifcoremt:for_open.obj
 0001:00053940       _for__update_reopen_keywords 00454940 f   libifcoremt:for_open.obj
 0001:00053948       _for__update_reopen_keywords. 00454948 f   libifcoremt:for_open.obj
 0001:00054a30       _for__set_foreign_bits     00455a30 f   libifcoremt:for_open.obj
 0001:00054a38       _for__set_foreign_bits.    00455a38 f   libifcoremt:for_open.obj
 0001:000558a0       _for__open_key             004568a0 f   libifcoremt:for_open.obj
 0001:00055ab0       _for__find_iomsg           00456ab0 f   libifcoremt:for_open.obj
 0001:00055b40       _for__set_terminator_option 00456b40 f   libifcoremt:for_open.obj
 0001:00055bb0       _for__is_special_device    00456bb0 f   libifcoremt:for_open.obj
 0001:00055cf0       _for__open_default         00456cf0 f   libifcoremt:for_open.obj
 0001:00056000       _for_read_seq_fmt          00457000 f   libifcoremt:for_rseq_fmt.obj
 0001:000579a0       _for_read_seq_fmt_xmit     004589a0 f   libifcoremt:for_rseq_fmt.obj
 0001:00059ed0       _for_close                 0045aed0 f   libifcoremt:for_close.obj
 0001:0005a3c0       _for__close_default        0045b3c0 f   libifcoremt:for_close.obj
 0001:0005a4e0       _for_len_trim              0045b4e0 f   libifcoremt:for_90_trim.obj
 0001:0005a500       _for_trim                  0045b500 f   libifcoremt:for_90_trim.obj
 0001:0005a560       _for_stop_core_impl        0045b560 f   libifcoremt:for_stop.obj
 0001:0005b070       _for_stop_core             0045c070 f   libifcoremt:for_stop.obj
 0001:0005b0c0       _for_write_seq_fmt         0045c0c0 f   libifcoremt:for_wseq_fmt.obj
 0001:0005cb50       _for_write_seq_fmt_xmit    0045db50 f   libifcoremt:for_wseq_fmt.obj
 0001:0005f650       _for_contig_array          00460650 f   libifcoremt:for_contig_array.obj
 0001:0005f6c0       _for_array_copy_in         004606c0 f   libifcoremt:for_contig_array.obj
 0001:000621c0       _for_array_copy_out        004631c0 f   libifcoremt:for_contig_array.obj
 0001:00064c60       _for_write_seq_lis         00465c60 f   libifcoremt:for_wseq_lis.obj
 0001:000664e0       _for_write_seq_lis_xmit    004674e0 f   libifcoremt:for_wseq_lis.obj
 0001:0006a750       _for_read_seq              0046b750 f   libifcoremt:for_rseq.obj
 0001:0006bde0       _for_read_seq_xmit         0046cde0 f   libifcoremt:for_rseq.obj
 0001:0006e590       _for_write_seq             0046f590 f   libifcoremt:for_wseq.obj
 0001:0006fa30       _for_write_seq_xmit        00470a30 f   libifcoremt:for_wseq.obj
 0001:000737c0       _for__finish_ufseq_write   004747c0 f   libifcoremt:for_wseq.obj
 0001:00073b50       _for_f90_index             00474b50 f   libifcoremt:for_90_index.obj
 0001:00073cd0       _for_write_int_fmt         00474cd0 f   libifcoremt:for_wint_fmt.obj
 0001:00074d20       _for_write_int_fmt_xmit    00475d20 f   libifcoremt:for_wint_fmt.obj
 0001:00077260       _for_read_seq_lis          00478260 f   libifcoremt:for_rseq_lis.obj
 0001:00078790       _for_read_seq_lis_xmit     00479790 f   libifcoremt:for_rseq_lis.obj
 0001:0007acb0       _for__swallow_imaginary_part 0047bcb0 f   libifcoremt:for_rseq_lis.obj
 0001:0007aeb0       _for__get_vm               0047beb0 f   libifcoremt:for_vm.obj
 0001:0007aef0       _for__realloc_vm           0047bef0 f   libifcoremt:for_vm.obj
 0001:0007af60       _for__free_vm              0047bf60 f   libifcoremt:for_vm.obj
 0001:0007af80       _for_allocate              0047bf80 f   libifcoremt:for_vm.obj
 0001:0007b090       _for_alloc_allocatable     0047c090 f   libifcoremt:for_vm.obj
 0001:0007b1b0       _for_deallocate            0047c1b0 f   libifcoremt:for_vm.obj
 0001:0007b260       _for_dealloc_allocatable   0047c260 f   libifcoremt:for_vm.obj
 0001:0007b370       _for_check_mult_overflow   0047c370 f   libifcoremt:for_vm.obj
 0001:0007b3f0       _for_since_epoch_t         0047c3f0 f   libifcoremt:for_secnds.obj
 0001:0007b460       _for_cpusec                0047c460 f   libifcoremt:for_secnds.obj
 0001:0007b540       _for_date_and_time         0047c540 f   libifcoremt:for_90_date.obj
 0001:0007ba70       _for_system_clock_count    0047ca70 f   libifcoremt:for_90_date.obj
 0001:0007bc00       _for_system_clock_rate     0047cc00 f   libifcoremt:for_90_date.obj
 0001:0007bc40       _for_exit                  0047cc40 f   libifcoremt:for_exit.obj
 0001:0007bc80       _for__acquire_lun          0047cc80 f   libifcoremt:for_lub_mgt.obj
 0001:0007cf50       _for__release_lun          0047df50 f   libifcoremt:for_lub_mgt.obj
 0001:0007d480       _for__create_lub           0047e480 f   libifcoremt:for_lub_mgt.obj
 0001:0007d570       _for__deallocate_lub       0047e570 f   libifcoremt:for_lub_mgt.obj
 0001:0007ea80       _for__get_next_lub         0047fa80 f   libifcoremt:for_lub_mgt.obj
 0001:0007f6a0       _for__get_free_newunit     004806a0 f   libifcoremt:for_lub_mgt.obj
 0001:0007fa20       _for__release_newunit      00480a20 f   libifcoremt:for_lub_mgt.obj
 0001:0007fa80       _for__add_to_lf_table      00480a80 f   libifcoremt:for_need_lf.obj
 0001:00080050       _for__rm_from_lf_table     00481050 f   libifcoremt:for_need_lf.obj
 0001:00080200       _free_for__l_excpt_info    00481200 f   libifcoremt:for_init.obj
 0001:00080530       _for_get_fpe_              00481530 f   libifcoremt:for_init.obj
 0001:00080600       _for_set_fpe_              00481600 f   libifcoremt:for_init.obj
 0001:000806e0       _for_rtl_finish_           004816e0 f   libifcoremt:for_init.obj
 0001:000807f0       _for__nt_signal_handler    004817f0 f   libifcoremt:for_init.obj
 0001:000816b0       _for_rtl_init_wrap_        004826b0 f   libifcoremt:for_init.obj
 0001:00081a40       _for_rtl_init_             00482a40 f   libifcoremt:for_init.obj
 0001:00081e30       _for__io_return            00482e30 f   libifcoremt:for_diags_intel.obj
 0001:00083240       _for__issue_diagnostic     00484240 f   libifcoremt:for_diags_intel.obj
 0001:00083f00       _for__this_image_number_or_zero 00484f00 f   libifcoremt:for_diags_intel.obj
 0001:00084190       _for__get_msg              00485190 f   libifcoremt:for_diags_intel.obj
 0001:000843c0       _for_msgbox                004853c0 f   libifcoremt:for_diags_intel.obj
 0001:00084850       _for__message_catalog_close 00485850 f   libifcoremt:for_diags_intel.obj
 0001:000851a0       _for__common_inquire       004861a0 f   libifcoremt:for_common_inquire.obj
 0001:00086460       _for__inquire_args         00487460 f   libifcoremt:for_common_inquire.obj
 0001:00086a90       _for__aio_destroy          00487a90 f   libifcoremt:for_aio.obj
 0001:00086ad0       _for__aio_acquire_lun_fname 00487ad0 f   libifcoremt:for_aio.obj
 0001:00086c20       _for__aio_release          00487c20 f   libifcoremt:for_aio.obj
 0001:00086d00       _for__aio_acquire_lun      00487d00 f   libifcoremt:for_aio.obj
 0001:00086d0c       _for__aio_acquire_lun.     00487d0c f   libifcoremt:for_aio.obj
 0001:00087370       _for__aio_release_lun      00488370 f   libifcoremt:for_aio.obj
 0001:00087378       _for__aio_release_lun.     00488378 f   libifcoremt:for_aio.obj
 0001:00087750       _for__aio_check_unit       00488750 f   libifcoremt:for_aio.obj
 0001:00087810       _for__aio_error_handling   00488810 f   libifcoremt:for_aio.obj
 0001:0008781c       _for__aio_error_handling.  0048881c f   libifcoremt:for_aio.obj
 0001:00087c50       _for__aio_init             00488c50 f   libifcoremt:for_aio.obj
 0001:00087cb0       _for__reopen_file          00488cb0 f   libifcoremt:for_nt_open_proc.obj
 0001:00088290       _for__compute_filename     00489290 f   libifcoremt:for_nt_open_proc.obj
 0001:0008829c       _for__compute_filename.    0048929c f   libifcoremt:for_nt_open_proc.obj
 0001:000896e0       _for__open_proc            0048a6e0 f   libifcoremt:for_nt_open_proc.obj
 0001:000896e8       _for__open_proc.           0048a6e8 f   libifcoremt:for_nt_open_proc.obj
 0001:0008ce30       _for__put_su               0048de30 f   libifcoremt:for_put.obj
 0001:0008d340       _for__write_output         0048e340 f   libifcoremt:for_put.obj
 0001:0008d34c       _for__write_output.        0048e34c f   libifcoremt:for_put.obj
 0001:0008d980       _for__put_sf               0048e980 f   libifcoremt:for_put.obj
 0001:0008ea50       _for__flush_readahead      0048fa50 f   libifcoremt:for_put.obj
 0001:0008eb50       _for__key_desc_ret_item    0048fb50 f   libifcoremt:for_desc_item.obj
 0001:0008eb90       _for__desc_test_item       0048fb90 f   libifcoremt:for_desc_item.obj
 0001:0008ec20       _for__desc_ret_item        0048fc20 f   libifcoremt:for_desc_item.obj
 0001:0008ec2c       _for__desc_ret_item.       0048fc2c f   libifcoremt:for_desc_item.obj
 0001:0008eec0       _for__desc_zero_length_item 0048fec0 f   libifcoremt:for_desc_item.obj
 0001:0008ef30       _for__format_compiler      0048ff30 f   libifcoremt:for_fmt_comp.obj
 0001:00091fb0       _for__get_s                00492fb0 f   libifcoremt:for_get.obj
 0001:000933f0       _for__read_input           004943f0 f   libifcoremt:for_get.obj
 0001:000933fc       _for__read_input.          004943fc f   libifcoremt:for_get.obj
 0001:000935e0       _for__get_su_fields        004945e0 f   libifcoremt:for_get.obj
 0001:00094560       _for__get_more_fields      00495560 f   libifcoremt:for_get.obj
 0001:00094820       _for__interp_fmt           00495820 f   libifcoremt:for_intrp_fmt.obj
 0001:00095430       _for__adjust_buffer        00496430 f   libifcoremt:for_io_util.obj
 0001:00095610       _for__lower_bound_index    00496610 f   libifcoremt:for_io_util.obj
 0001:0009561c       _for__lower_bound_index.   0049661c f   libifcoremt:for_io_util.obj
 0001:00095660       _for__cvt_foreign_read     00496660 f   libifcoremt:for_io_util.obj
 0001:000958d0       _for__cvt_foreign_write    004968d0 f   libifcoremt:for_io_util.obj
 0001:00095e00       _for__cvt_foreign_check    00496e00 f   libifcoremt:for_io_util.obj
 0001:00095e70       _for_check_env_name        00496e70 f   libifcoremt:for_io_util.obj
 0001:00095f10       _for__format_value         00496f10 f   libifcoremt:for_fmt_val.obj
 0001:00096ce0       _for__cvt_value            00497ce0 f   libifcoremt:for_fmt_val.obj
 0001:00097740       _for__close_proc           00498740 f   libifcoremt:for_close_proc.obj
 0001:00097ec0       _for__exit_handler         00498ec0 f   libifcoremt:for_exit_handler.obj
 0001:00098110       _for_index                 00499110 f   libifcoremt:for_index.obj
 0001:000981a0       _for_avallocate            004991a0 f   libifcoremt:for_avalloc.obj
 0001:00098480       _for_avdeallocate          00499480 f   libifcoremt:for_avalloc.obj
 0001:000984e0       __unit2handle              004994e0 f   libifcoremt:for_m_qwin.obj
 0001:000984e4       __unit2handle.             004994e4 f   libifcoremt:for_m_qwin.obj
 0001:000987c0       _GETHANDLEQQ               004997c0 f   libifcoremt:for_m_qwin.obj
 0001:000987f0       _GETUNITQQ                 004997f0 f   libifcoremt:for_m_qwin.obj
 0001:000988c0       _for__preconnected_units_create 004998c0 f   libifcoremt:for_preconnected_units_init.obj
 0001:00098aa0       _for__default_io_sizes_env_init 00499aa0 f   libifcoremt:for_default_io_sizes_env_init.obj
 0001:00099030       _tbk_stack_trace           0049a030 f   libifcoremt:tbk_traceback.obj
 0001:00099200       _cvt_text_to_integer       0049a200 f   libifcoremt:cvt_text_to_int.obj
 0001:00099560       _cvt_text_to_unsigned      0049a560 f   libifcoremt:cvt_text_to_int.obj
 0001:000997d0       _cvt_text_to_integer64     0049a7d0 f   libifcoremt:cvt_text_to_int.obj
 0001:00099b40       _cvt_text_to_unsigned64    0049ab40 f   libifcoremt:cvt_text_to_int.obj
 0001:00099dc0       _cvt_ieee_single_to_ibm_short 0049adc0 f   libifcoremt:cvt_ieee_single.obj
 0001:00099dcc       _cvt_ieee_single_to_ibm_short. 0049adcc f   libifcoremt:cvt_ieee_single.obj
 0001:0009a0f0       _cvt_ieee_single_to_vax_f  0049b0f0 f   libifcoremt:cvt_ieee_single.obj
 0001:0009a0fc       _cvt_ieee_single_to_vax_f. 0049b0fc f   libifcoremt:cvt_ieee_single.obj
 0001:0009a3a0       _cvt_ieee_double_to_cray   0049b3a0 f   libifcoremt:cvt_ieee_double.obj
 0001:0009a3ac       _cvt_ieee_double_to_cray.  0049b3ac f   libifcoremt:cvt_ieee_double.obj
 0001:0009a770       _cvt_ieee_double_to_ibm_long 0049b770 f   libifcoremt:cvt_ieee_double.obj
 0001:0009a77c       _cvt_ieee_double_to_ibm_long. 0049b77c f   libifcoremt:cvt_ieee_double.obj
 0001:0009abc0       _cvt_ieee_double_to_vax_d  0049bbc0 f   libifcoremt:cvt_ieee_double.obj
 0001:0009abcc       _cvt_ieee_double_to_vax_d. 0049bbcc f   libifcoremt:cvt_ieee_double.obj
 0001:0009af60       _cvt_ieee_double_to_vax_g  0049bf60 f   libifcoremt:cvt_ieee_double.obj
 0001:0009af6c       _cvt_ieee_double_to_vax_g. 0049bf6c f   libifcoremt:cvt_ieee_double.obj
 0001:0009b300       _cvt_vax_f_to_ieee_single  0049c300 f   libifcoremt:cvt_vax_f.obj
 0001:0009b30c       _cvt_vax_f_to_ieee_single. 0049c30c f   libifcoremt:cvt_vax_f.obj
 0001:0009b6b0       _cvt_ibm_short_to_ieee_single 0049c6b0 f   libifcoremt:cvt_ibm_short.obj
 0001:0009b6bc       _cvt_ibm_short_to_ieee_single. 0049c6bc f   libifcoremt:cvt_ibm_short.obj
 0001:0009ba80       _cvt_vax_g_to_ieee_double  0049ca80 f   libifcoremt:cvt_vax_g.obj
 0001:0009ba8c       _cvt_vax_g_to_ieee_double. 0049ca8c f   libifcoremt:cvt_vax_g.obj
 0001:0009bef0       _cvt_vax_d_to_ieee_double  0049cef0 f   libifcoremt:cvt_vax_d.obj
 0001:0009befc       _cvt_vax_d_to_ieee_double. 0049cefc f   libifcoremt:cvt_vax_d.obj
 0001:0009c360       _cvt_ibm_long_to_ieee_double 0049d360 f   libifcoremt:cvt_ibm_long.obj
 0001:0009c36c       _cvt_ibm_long_to_ieee_double. 0049d36c f   libifcoremt:cvt_ibm_long.obj
 0001:0009c7e0       _cvt_cray_to_ieee_double   0049d7e0 f   libifcoremt:cvt_cray.obj
 0001:0009c7ec       _cvt_cray_to_ieee_double.  0049d7ec f   libifcoremt:cvt_cray.obj
 0001:0009cc70       _cvt_data64_to_text        0049dc70 f   libifcoremt:cvt_data_to_text.obj
 0001:0009cc70       _cvt_data_to_text          0049dc70 f   libifcoremt:cvt_data_to_text.obj
 0001:0009d000       _cvt_integer_to_text       0049e000 f   libifcoremt:cvt_int_to_text.obj
 0001:0009d200       _cvt_unsigned_to_text      0049e200 f   libifcoremt:cvt_int_to_text.obj
 0001:0009d3c0       _cvt_integer64_to_text     0049e3c0 f   libifcoremt:cvt_int_to_text.obj
 0001:0009d610       _cvt_unsigned64_to_text    0049e610 f   libifcoremt:cvt_int_to_text.obj
 0001:0009d840       _cvt_boolean_to_text_ex    0049e840 f   libifcoremt:cvt_log_to_text.obj
 0001:0009dab0       _cvt_boolean64_to_text     0049eab0 f   libifcoremt:cvt_log_to_text.obj
 0001:0009dd10       _cvt_ieee_x_to_text_ex     0049ed10 f   libifcoremt:cvt_cvtas_x.obj
 0001:0009f000       _cvt_text_to_ieee_x_ex     004a0000 f   libifcoremt:cvt_cvtas_x.obj
 0001:0009f160       _cvt_ieee_t_to_text_ex     004a0160 f   libifcoremt:cvt_cvtas_t.obj
 0001:000a03f0       _cvt_text_to_ieee_t_ex     004a13f0 f   libifcoremt:cvt_cvtas_t.obj
 0001:000a0470       _cvt_ieee_s_to_text_ex     004a1470 f   libifcoremt:cvt_cvtas_s.obj
 0001:000a1550       _cvt_text_to_ieee_s_ex     004a2550 f   libifcoremt:cvt_cvtas_s.obj
 0001:000a15d0       _cvt_text_to_data          004a25d0 f   libifcoremt:cvt_text_to_data.obj
 0001:000a1840       _cvt_text_to_boolean       004a2840 f   libifcoremt:cvt_text_to_log.obj
 0001:000a1970       _cvt_text_to_boolean64     004a2970 f   libifcoremt:cvt_text_to_log.obj
 0001:000a1ae0       _cvtas_x_to_a              004a2ae0 f   libifcoremt:cvtas_x_to_a.obj
 0001:000a6a20       _cvtas_a_to_x              004a7a20 f   libifcoremt:cvtas_a_to_x.obj
 0001:000ab6b0       _cvtas_t_to_a              004ac6b0 f   libifcoremt:cvtas_t_to_a.obj
 0001:000b0100       _cvtas_a_to_t              004b1100 f   libifcoremt:cvtas_a_to_t.obj
 0001:000b2940       _cvtas_s_to_a              004b3940 f   libifcoremt:cvtas_s_to_a.obj
 0001:000b6ec0       _cvtas_a_to_s              004b7ec0 f   libifcoremt:cvtas_a_to_s.obj
 0001:000b83c0       _cvtas__nan_x              004b93c0 f   libifcoremt:cvtas_nan_x.obj
 0001:000b84e0       _cvtas__nan_t              004b94e0 f   libifcoremt:cvtas_nan_t.obj
 0001:000b85c0       _cvtas__nan_s              004b95c0 f   libifcoremt:cvtas_nan_s.obj
 0001:000b8670       ___libm_sse2_expf          004b9670 f   libmmt:expf_sse2.obj
 0001:000b8830       ___libm_sse2_atan2f        004b9830 f   libmmt:atan2f_sse2.obj
 0001:000b8d20       ___libm_sse2_powf          004b9d20 f   libmmt:powf_sse2.obj
 0001:000b9450       ___libm_sse2_logf          004ba450 f   libmmt:logf_sse2.obj
 0001:000b95a0       ___libm_sse2_cbrtf         004ba5a0 f   libmmt:cbrtf_sse2.obj
 0001:000b97f0       ___libm_sse2_sin           004ba7f0 f   libmmt:sin_sse2.obj
 0001:000b99d0       ___libm_sse2_exp2f         004ba9d0 f   libmmt:exp2f_sse2.obj
 0001:000b9b70       ___libm_sse2_sincosf       004bab70 f   libmmt:sincosf_sse2.obj
 0001:000b9d40       _fetestexcept.A            004bad40 f   libmmt:fetestexcept.obj
 0001:000b9da0       _fetestexcept.H            004bada0 f   libmmt:fetestexcept.obj
 0001:000b9dd0       _fetestexcept              004badd0 f   libmmt:fetestexcept.obj
 0001:000b9e10       ___libm_sincos_huge        004bae10 f   libmmt:libm_sincos_huge.obj
 0001:000ba2f0       ___libm_reduce_pi04l       004bb2f0 f   libmmt:libm_reduce_pi04l.obj
 0001:000ba690       ___intel_new_feature_proc_init 004bb690 f   libirc:new_proc_init.obj
 0001:000baa00       __intel_fast_memcpy.A      004bba00 f   libirc:fastmemcpy.obj
 0001:000baa10       __intel_fast_memcpy.H      004bba10 f   libirc:fastmemcpy.obj
 0001:000baa20       __intel_fast_memcpy        004bba20 f   libirc:fastmemcpy.obj
 0001:000baa60       __intel_fast_memset.A      004bba60 f   libirc:fastmemset.obj
 0001:000baa70       __intel_fast_memset.H      004bba70 f   libirc:fastmemset.obj
 0001:000baa80       __intel_fast_memset        004bba80 f   libirc:fastmemset.obj
 0001:000baac0       __intel_fast_memcmp        004bbac0 f   libirc:ia32_memcmp.obj
 0001:000bab90       ___qtoj                    004bbb90 f   libirc:q2ints.obj
 0001:000bae50       ___qtok                    004bbe50 f   libirc:q2ints.obj
 0001:000bb030       ___intel_f2int             004bc030 f   libirc:intel_f2int.obj
 0001:000bb090       ___intel_cpu_features_init_x 004bc090 f   libirc:cpu_feature_disp.obj
 0001:000bb0b0       ___intel_cpu_features_init 004bc0b0 f   libirc:cpu_feature_disp.obj
 0001:000bb4a0       _tbk_string_stack_signal_impl 004bc4a0 f   libirc:tbk_display.obj
 0001:000bb4ac       _tbk_string_stack_signal_impl. 004bc4ac f   libirc:tbk_display.obj
 0001:000bbd30       ___libirc_get_msg          004bcd30 f   libirc:irc_msg_support.obj
 0001:000bbe70       ___libirc_print            004bce70 f   libirc:irc_msg_support.obj
 0001:000bbfd0       ___intel_proc_init_ftzdazule 004bcfd0 f   libirc:proc_init_utils.obj
 0001:000bc090       ___intel_new_memcpy        004bd090 f   libirc:fast_memcpy.obj
 0001:000bc09c       ___intel_memcpy            004bd09c f   libirc:fast_memcpy.obj
 0001:000bcc70       ___intel_new_memset        004bdc70 f   libirc:fast_memset.obj
 0001:000bcc7d       ___intel_memset            004bdc7d f   libirc:fast_memset.obj
 0001:000bd340       ___intel_cpu_indicator_init 004be340 f   libirc:cpu_disp.obj
 0001:000bd5e0       _tbk_getPC                 004be5e0 f   libirc:tbk_backtrace.obj
 0001:000bd5f0       _tbk_getModuleName         004be5f0 f   libirc:tbk_backtrace.obj
 0001:000bd690       _tbk_get_pc_info           004be690 f   libirc:tbk_backtrace.obj
 0001:000bde30       _tbk_trace_stack_impl      004bee30 f   libirc:tbk_backtrace.obj
 0001:000bed50       ___svml_atan2              004bfd50 f   svml_dispmt:svml_d_atan2_iface_la.obj
 0001:000bed90       ___svml_atan2_mask         004bfd90 f   svml_dispmt:svml_d_atan2_maskiface_la.obj
 0001:000bedd0       ___svml_roundf4            004bfdd0 f   svml_dispmt:svml_s_roundf4_iface_la.obj
 0001:000bee10       ___svml_feature_flag_init  004bfe10 f   svml_dispmt:svml_d_feature_flag_.obj
 0001:000bf0f0       ___svml_atan2_w7           004c00f0 f   svml_dispmt:svml_d_atan2_core_w7la.obj
 0001:000bf290       ___svml_atan2_t7           004c0290 f   svml_dispmt:svml_d_atan2_core_t7la.obj
 0001:000bf420       ___svml_atan2_n9           004c0420 f   svml_dispmt:svml_d_atan2_core_n9la.obj
 0001:000bf5b0       ___svml_atan2_mask_w7      004c05b0 f   svml_dispmt:svml_d_atan2_maskcore_w7la.obj
 0001:000bf5d0       ___svml_atan2_mask_n9      004c05d0 f   svml_dispmt:svml_d_atan2_maskcore_n9la.obj
 0001:000bf5f0       ___svml_roundf4_a6         004c05f0 f   svml_dispmt:svml_s_roundf4_core_a6la.obj
 0001:000bf660       ___svml_roundf4_w7         004c0660 f   svml_dispmt:svml_s_roundf4_core_w7la.obj
 0001:000bf6c0       ___svml_roundf4_p8         004c06c0 f   svml_dispmt:svml_s_roundf4_core_p8la.obj
 0001:000bf700       ___svml_roundf4_n9         004c0700 f   svml_dispmt:svml_s_roundf4_core_n9la.obj
 0001:000bf770       _PARTMEM.                  004c0770 f   part_data_f:partmem.obj
 0001:000bf780       _GLOBAL_POINTERS.          004c0780 f   part_data_f:global_data.obj
 0001:000bf790       _SPEC_FEAT_PAR.            004c0790 f   part_data_f:global_data.obj
 0001:000bf7a0       _FILEINFO.                 004c07a0 f   part_data_f:file_info.obj
 0001:000bf7b0       _ALLOC_MOD.                004c07b0 f   part_data_f:alloc.obj
 0001:000bf7c0       _ALLOC_MOD_mp_ALLOC_INT_1D 004c07c0 f   part_data_f:alloc.obj
 0001:000bfe00       _ALLOC_MOD_mp_ALLOC_INT_2D 004c0e00 f   part_data_f:alloc.obj
 0001:000c08a0       _ALLOC_MOD_mp_ALLOC_INT_3D 004c18a0 f   part_data_f:alloc.obj
 0001:000c0b00       _ALLOC_MOD_mp_ALLOC_INT_4D 004c1b00 f   part_data_f:alloc.obj
 0001:000c0e00       _ALLOC_MOD_mp_ALLOC_REAL_1D 004c1e00 f   part_data_f:alloc.obj
 0001:000c1440       _ALLOC_MOD_mp_ALLOC_DOUBLE_1D 004c2440 f   part_data_f:alloc.obj
 0001:000c15f0       _ALLOC_MOD_mp_ALLOC_REAL_2D 004c25f0 f   part_data_f:alloc.obj
 0001:000c2080       _ALLOC_MOD_mp_ALLOC_REAL_3D 004c3080 f   part_data_f:alloc.obj
 0001:000c2e10       _ALLOC_MOD_mp_ALLOC_REAL_4D 004c3e10 f   part_data_f:alloc.obj
 0001:000c30b0       _ALLOC_MOD_mp_ALLOC_CHAR_1D 004c40b0 f   part_data_f:alloc.obj
 0001:000c3270       _ALLOC_MOD_mp_ALLOC_CHAR_2D 004c4270 f   part_data_f:alloc.obj
 0001:000c3510       _ALLOC_MOD_mp_ALLOC_ERROR  004c4510 f   part_data_f:alloc.obj
 0001:000c3700       _ALLOC_MOD_mp_EXIT_ALLOC   004c4700 f   part_data_f:alloc.obj
 0001:000c3880       _ALLOC_MOD_mp_INIT_ALLOC   004c4880 f   part_data_f:alloc.obj
 0001:000c3950       _NORMAL_MOD.               004c4950 f   part_utils_f:normal_mod.obj
 0001:000c3960       _NORMAL_MOD_mp_NORMAL      004c4960 f   part_utils_f:normal_mod.obj
 0001:000c3ba0       _NORMAL_MOD_mp_NORM_INIT   004c4ba0 f   part_utils_f:normal_mod.obj
 0001:000c3de0       _STOP_EXIT_MOD_mp_STOP_EXIT 004c4de0 f   part_utils_f:stop_exit.obj
 0001:000c3e50       _STOP_EXIT_MOD.            004c4e50 f   part_utils_f:stop_exit.obj
 0001:000c3e60       _PART11                    004c4e60 f   part_utils_f:part11.obj
 0001:000c4180       _GRID_SEARCH_MOD.          004c5180 f   part_utils_f:grid_search.obj
 0001:000c4190       _GRID_SEARCH_MOD_mp_FIND   004c5190 f   part_utils_f:grid_search.obj
 0001:000c4680       _GRID_SEARCH_MOD_mp_PART07 004c5680 f   part_utils_f:grid_search.obj
 0001:000c4a50       _GRID_SEARCH_MOD_mp_FINDCELL 004c5a50 f   part_utils_f:grid_search.obj
 0001:000c4a5c       _GRID_SEARCH_MOD_mp_FINDCELL. 004c5a5c f   part_utils_f:grid_search.obj
 0001:000c4f40       _GRID_SEARCH_MOD_mp_PART07NM 004c5f40 f   part_utils_f:grid_search.obj
 0001:000c52e0       _GRID_SEARCH_MOD_mp_INTL2V 004c62e0 f   part_utils_f:grid_search.obj
 0001:000c5850       _GRID_SEARCH_MOD_mp_BILIN5 004c6850 f   part_utils_f:grid_search.obj
 0001:000c5b30       _SRSTOP                    004c6b30 f   part_utils_f:SRSTOP.obj
 0001:000c5d50       _PINPOK_MOD.               004c6d50 f   part_utils_f:pinpok.obj
 0001:000c5d60       _PINPOK_MOD_mp_PINPOK      004c6d60 f   part_utils_f:pinpok.obj
 0001:000c60f0       _RND                       004c70f0 f   part_utils_f:random_gen.obj
 0001:000c6140       _PART11SP                  004c7140 f   part_utils_f:part11sp.obj
 0001:000c6300       _BOOMBOUNCE                004c7300 f   part_utils_f:boombounce.obj
 0001:000c6b90       _WAIT_MOD.                 004c7b90 f   part_utils_f:wait.obj
 0001:000c6ba0       _WAIT_MOD_mp_WAIT          004c7ba0 f   part_utils_f:wait.obj
 0001:000c6c60       _GET_KEY_MOD.              004c7c60 f   part_utils_f:get_key.obj
 0001:000c6c70       _GET_KEY_MOD_mp_GET_INT_KEY 004c7c70 f   part_utils_f:get_key.obj
 0001:000c70c0       _GET_KEY_MOD_mp_GET_REAL_KEY 004c80c0 f   part_utils_f:get_key.obj
 0001:000c74f0       _GET_KEY_MOD_mp_GET_STRING_KEY 004c84f0 f   part_utils_f:get_key.obj
 0001:000c77b0       _GET_INDEX                 004c87b0 f   part_utils_f:get_index.obj
 0001:000c78e0       _SKIP_COMMENT_LINES        004c88e0 f   part_utils_f:skip_comments.obj
 0001:000c79d0       _ERROR                     004c89d0 f   part_utils_f:show_error.obj
 0001:000c7a90       _LOWER_CASE                004c8a90 f   part_utils_f:lower_case.obj
 0001:000c7e70       _FILTYP_MOD.               004c8e70 f   part_io_f:filtyp.obj
 0001:000c7e80       _FILTYP_MOD_mp_FILTYP      004c8e80 f   part_io_f:filtyp.obj
 0001:000c7fe0       _RDFNAM                    004c8fe0 f   part_io_f:rdfnam.obj
 0001:000c95f0       _REPORT_DATE_TIME          004ca5f0 f   part_io_f:report_date_time.obj
 0001:000c9800       _RDLGRI                    004ca800 f   part_io_f:rdlgri.obj
 0001:000ce600       _RDCCOL                    004cf600 f   part_io_f:rdccol.obj
 0001:000cede0       _RDHYDR_MOD.               004cfde0 f   part_io_f:rdhydr.obj
 0001:000cedf0       _RDHYDR_MOD_mp_RDHYDR      004cfdf0 f   part_io_f:rdhydr.obj
 0001:000d09b0       _MORE_DATA                 004d19b0 f   part_io_f:rdpart.obj
 0001:000d0aa0       _GETDIM_INI                004d1aa0 f   part_io_f:rdpart.obj
 0001:000d1410       _GETDIM_ASC                004d2410 f   part_io_f:rdpart.obj
 0001:000d1880       _OPEN_INIFILE              004d2880 f   part_io_f:rdpart.obj
 0001:000d1af0       _RDPART                    004d2af0 f   part_io_f:rdpart.obj
 0001:000e8620       _GETDIM_DIS                004e9620 f   part_io_f:rdpart.obj
 0001:000e862c       _GETDIM_DIS.               004e962c f   part_io_f:rdpart.obj
 0001:000e89b0       _GETDPS                    004e99b0 f   part_io_f:getdps.obj
 0001:000e8f00       _WRTTRK                    004e9f00 f   part_io_f:wrttrk.obj
 0001:000e9500       _OPENFL_MOD.               004ea500 f   part_io_f:openfl.obj
 0001:000e9510       _OPENFL_MOD_mp_OPENFL      004ea510 f   part_io_f:openfl.obj
 0001:000e9e50       _PART12_MOD.               004eae50 f   part_io_f:part12.obj
 0001:000e9e60       _PART12_MOD_mp_PART12      004eae60 f   part_io_f:part12.obj
 0001:000ee270       _PART13_MOD.               004ef270 f   part_io_f:part13.obj
 0001:000ee280       _PART13_MOD_mp_PART13      004ef280 f   part_io_f:part13.obj
 0001:000f3da0       _PARTHS_MOD.               004f4da0 f   part_io_f:parths.obj
 0001:000f3db0       _PARTHS_MOD_mp_PARTHS      004f4db0 f   part_io_f:parths.obj
 0001:000f7d00       _WRITRK_MOD.               004f8d00 f   part_io_f:writrk.obj
 0001:000f7d10       _WRITRK_MOD_mp_WRITRK      004f8d10 f   part_io_f:writrk.obj
 0001:000fa490       _DELETE_FILE_MOD.          004fb490 f   part_io_f:delete_file.obj
 0001:000fa4a0       _DELETE_FILE_MOD_mp_DELETE_FILE 004fb4a0 f   part_io_f:delete_file.obj
 0001:000fa640       _M_ITDATE.                 004fb640 f   part_io_f:meteo1.obj
 0001:000fa650       _TIMESPACE_READ.           004fb650 f   part_io_f:meteo1.obj
 0001:000fa660       _TIMESPACE_READ_mp_READWINDSERIESFILES 004fb660 f   part_io_f:meteo1.obj
 0001:000fa680       _TIMESPACE_READ_mp_READGRID 004fb680 f   part_io_f:meteo1.obj
 0001:000faf80       _TIMESPACE_READ_mp_READARCINFOBLOCK 004fbf80 f   part_io_f:meteo1.obj
 0001:000fb690       _TIMESPACE_READ_mp_REACURTIM 004fc690 f   part_io_f:meteo1.obj
 0001:000fbe40       _TIMESPACE_READ_mp_READCURVIBLOCK 004fce40 f   part_io_f:meteo1.obj
 0001:000fc650       _TIMESPACE_READ_mp_READSERIES 004fd650 f   part_io_f:meteo1.obj
 0001:000fc860       _TIMESPACE_READ_mp_REASPV  004fd860 f   part_io_f:meteo1.obj
 0001:000fcd60       _TIMESPACE_READ_mp_REASPWTIM 004fdd60 f   part_io_f:meteo1.obj
 0001:000fdce0       _TIMESPACE_READ_mp_REASPWHEADER 004fece0 f   part_io_f:meteo1.obj
 0001:000fdfc0       _TIMESPACE_READ_mp_READCURVIHEADER 004fefc0 f   part_io_f:meteo1.obj
 0001:000fe5f0       _TIMESPACE_READ_mp_NUMBERSONLINE 004ff5f0 f   part_io_f:meteo1.obj
 0001:000fe680       _TIMESPACE_DATA.           004ff680 f   part_io_f:meteo1.obj
 0001:000fe690       _TIMESPACE_DATA_mp_DESTROYELEMENTSETS 004ff690 f   part_io_f:meteo1.obj
 0001:000fe850       _TIMESPACE_DATA_mp_INCREASEELSETSSIZE 004ff850 f   part_io_f:meteo1.obj
 0001:000fedd0       _TIMESPACE_DATA_mp_COPYELEMENTSETS 004ffdd0 f   part_io_f:meteo1.obj
 0001:000feddc       _TIMESPACE_DATA_mp_COPYELEMENTSETS. 004ffddc f   part_io_f:meteo1.obj
 0001:000fffa0       _TIMESPACE_DATA_mp_COPYQUANTITIES 00500fa0 f   part_io_f:meteo1.obj
 0001:00100060       _TIMESPACE_DATA_mp_DESTROYFIELD 00501060 f   part_io_f:meteo1.obj
 0001:001000c0       _TIMESPACE_DATA_mp_CONNECTSINGLESTATIONFILE 005010c0 f   part_io_f:meteo1.obj
 0001:001002d0       _TIMESPACE_DATA_mp_ADDINDEXWEIGHTS 005012d0 f   part_io_f:meteo1.obj
 0001:00100490       _TIMESPACE_DATA_mp_READ1PLIZ 00501490 f   part_io_f:meteo1.obj
 0001:00100700       _TIMESPACE_DATA_mp_SETTIMESPACEREFDAT 00501700 f   part_io_f:meteo1.obj
 0001:00100830       _TIMESPACE_DATA_mp_ASC     00501830 f   part_io_f:meteo1.obj
 0001:00100b80       _TIMESPACE_DATA_mp_HULPGR  00501b80 f   part_io_f:meteo1.obj
 0001:00100b8c       _TIMESPACE_DATA_mp_HULPGR. 00501b8c f   part_io_f:meteo1.obj
 0001:001016d0       _TIMESPACE_DATA_mp_DATUMI  005026d0 f   part_io_f:meteo1.obj
 0001:00101880       _TIMESPACE_DATA_mp_CMPNUM  00502880 f   part_io_f:meteo1.obj
 0001:00102880       _TIMESPACE_DATA_mp_BEWVUF  00503880 f   part_io_f:meteo1.obj
 0001:00102d00       _TIMESPACE_DATA_mp_METEO_TIDEPOTENTIAL 00503d00 f   part_io_f:meteo1.obj
 0001:00103950       _TIMESPACE_DATA_mp_TFORCE  00504950 f   part_io_f:meteo1.obj
 0001:0010395c       _TIMESPACE_DATA_mp_TFORCE. 0050495c f   part_io_f:meteo1.obj
 0001:00105fe0       _TIMESPACE_DATA_mp_INIHARMONICS 00506fe0 f   part_io_f:meteo1.obj
 0001:00105fe8       _TIMESPACE_DATA_mp_INIHARMONICS. 00506fe8 f   part_io_f:meteo1.obj
 0001:0010cdb0       _TIMESPACE_DATA_mp_ASTROL  0050ddb0 f   part_io_f:meteo1.obj
 0001:0010cfc0       _TIMESPACE_DATA_mp_LEGPOL1 0050dfc0 f   part_io_f:meteo1.obj
 0001:0010d160       _M_ARCUV.                  0050e160 f   part_io_f:meteo1.obj
 0001:0010d170       _TIMESPACE_TRIANGLE.       0050e170 f   part_io_f:meteo1.obj
 0001:0010d180       _TIMESPACE_TRIANGLE_mp_PINPOK 0050e180 f   part_io_f:meteo1.obj
 0001:0010d3e0       _TIMESPACE_TRIANGLE_mp_TRIINT_Z2D 0050e3e0 f   part_io_f:meteo1.obj
 0001:0010dab0       _TIMESPACE_TRIANGLE_mp_TRIINT_Z1D 0050eab0 f   part_io_f:meteo1.obj
 0001:0010dabc       _TIMESPACE_TRIANGLE_mp_TRIINT_Z1D. 0050eabc f   part_io_f:meteo1.obj
 0001:00110310       _TIMESPACE_TRIANGLE_mp_DLAUNY 00511310 f   part_io_f:meteo1.obj
 0001:001112b0       _TIMESPACE_TRIANGLE_mp_FINDTRI_INDICES_WEIGHTS 005122b0 f   part_io_f:meteo1.obj
 0001:00111890       _TIMESPACE_TRIANGLE_mp_LINWEIGHT 00512890 f   part_io_f:meteo1.obj
 0001:00111980       _TIMESPACE_TRIANGLE_mp_LINEAR 00512980 f   part_io_f:meteo1.obj
 0001:00111b30       _TIMESPACE_TRIANGLE_mp_MINMAX_H 00512b30 f   part_io_f:meteo1.obj
 0001:00111ca0       _TIMESPACE_TRIANGLE_mp_GET_EXTEND2D 00512ca0 f   part_io_f:meteo1.obj
 0001:001135b0       _TIMESPACE_TRIANGLE_mp_GET_EXTEND1D 005145b0 f   part_io_f:meteo1.obj
 0001:00113770       _TIMESPACE_TRIANGLE_mp_FIND_NEAREST2D 00514770 f   part_io_f:meteo1.obj
 0001:00114c30       _TIMESPACE_TRIANGLE_mp_FIND_NEAREST2D_MISSING_VALUE 00515c30 f   part_io_f:meteo1.obj
 0001:00116b70       _TIMESPACE_TRIANGLE_mp_FIND_NEAREST1D 00517b70 f   part_io_f:meteo1.obj
 0001:00116cd0       _TIMESPACE_TRIANGLE_mp_FIND_NEAREST1D_MISSING_VALUE 00517cd0 f   part_io_f:meteo1.obj
 0001:00116e90       _TIMESPACE_TRIANGLE_mp_POLYINDEXWEIGHT 00517e90 f   part_io_f:meteo1.obj
 0001:00116fc0       _TIMESPACE_TRIANGLE_mp_LINEDISQ 00517fc0 f   part_io_f:meteo1.obj
 0001:00117100       _TIMESPACE.                00518100 f   part_io_f:meteo1.obj
 0001:00117110       _TIMESPACE_mp_ADDTIMESPACERELATION 00518110 f   part_io_f:meteo1.obj
 0001:00117750       _TIMESPACE_DATA_mp_ADDPROVIDER 00518750 f   part_io_f:meteo1.obj
 0001:0011775c       _TIMESPACE_DATA_mp_ADDPROVIDER. 0051875c f   part_io_f:meteo1.obj
 0001:0011a950       _TIMESPACE_DATA_mp_READPROVIDER 0051b950 f   part_io_f:meteo1.obj
 0001:0011a95c       _TIMESPACE_DATA_mp_READPROVIDER. 0051b95c f   part_io_f:meteo1.obj
 0001:0011b110       _TIMESPACE_DATA_mp_ADDDATAPROVIDER 0051c110 f   part_io_f:meteo1.obj
 0001:0011b11c       _TIMESPACE_DATA_mp_ADDDATAPROVIDER. 0051c11c f   part_io_f:meteo1.obj
 0001:0011cfd0       _TIMESPACE_DATA_mp_ADDELEMENTSET 0051dfd0 f   part_io_f:meteo1.obj
 0001:0011cfdc       _TIMESPACE_DATA_mp_ADDELEMENTSET. 0051dfdc f   part_io_f:meteo1.obj
 0001:0011e000       _TIMESPACE_DATA_mp_ADDFIELD 0051f000 f   part_io_f:meteo1.obj
 0001:0011e00c       _TIMESPACE_DATA_mp_ADDFIELD. 0051f00c f   part_io_f:meteo1.obj
 0001:0011e360       _TIMESPACE_DATA_mp_READFOURIERDIMS 0051f360 f   part_io_f:meteo1.obj
 0001:0011e36c       _TIMESPACE_DATA_mp_READFOURIERDIMS. 0051f36c f   part_io_f:meteo1.obj
 0001:0011e580       _TIMESPACE_READ_mp_READARCINFOHEADER 0051f580 f   part_io_f:meteo1.obj
 0001:0011e58c       _TIMESPACE_READ_mp_READARCINFOHEADER. 0051f58c f   part_io_f:meteo1.obj
 0001:0011f4d0       _TIMESPACE_READ_mp_READARCINFOHEADER_D3D 005204d0 f   part_io_f:meteo1.obj
 0001:0011f4dc       _TIMESPACE_READ_mp_READARCINFOHEADER_D3D. 005204dc f   part_io_f:meteo1.obj
 0001:00120f40       _TIMESPACE_DATA_mp_READ1POLYLIN 00521f40 f   part_io_f:meteo1.obj
 0001:00120f4c       _TIMESPACE_DATA_mp_READ1POLYLIN. 00521f4c f   part_io_f:meteo1.obj
 0001:00121180       _TIMESPACE_DATA_mp_ADDQUANTITY 00522180 f   part_io_f:meteo1.obj
 0001:0012118c       _TIMESPACE_DATA_mp_ADDQUANTITY. 0052218c f   part_io_f:meteo1.obj
 0001:00121990       _TIMESPACE_mp_SELECTELSET  00522990 f   part_io_f:meteo1.obj
 0001:001221e0       _TIMESPACE_mp_SELECTELSET_INTERNAL_LINKS 005231e0 f   part_io_f:meteo1.obj
 0001:001224c0       _TIMESPACE_mp_GETTIMESPACEVALUE 005234c0 f   part_io_f:meteo1.obj
 0001:00124cb0       _TIMESPACE_mp_UPDATETIMESPACEPROVIDERS 00525cb0 f   part_io_f:meteo1.obj
 0001:00124cbc       _TIMESPACE_mp_UPDATETIMESPACEPROVIDERS. 00525cbc f   part_io_f:meteo1.obj
 0001:00125130       _TIMESPACE_mp_UPDATEPROVIDER 00526130 f   part_io_f:meteo1.obj
 0001:0012513c       _TIMESPACE_mp_UPDATEPROVIDER. 0052613c f   part_io_f:meteo1.obj
 0001:00130890       _TIMESPACE_TRIANGLE_mp_TRIINT_Z3D 00531890 f   part_io_f:meteo1.obj
 0001:0013089c       _TIMESPACE_TRIANGLE_mp_TRIINT_Z3D. 0053189c f   part_io_f:meteo1.obj
 0001:00131130       _TIMESPACE_mp_MAGDIR2UV    00532130 f   part_io_f:meteo1.obj
 0001:0013113c       _TIMESPACE_mp_MAGDIR2UV.   0053213c f   part_io_f:meteo1.obj
 0001:00131210       _TIMESPACE_TRIANGLE_mp_POLYINT 00532210 f   part_io_f:meteo1.obj
 0001:0013121c       _TIMESPACE_TRIANGLE_mp_POLYINT. 0053221c f   part_io_f:meteo1.obj
 0001:00131c50       _TIMESPACE_DATA_mp_READFOURIERCOMPSTIM 00532c50 f   part_io_f:meteo1.obj
 0001:00131c5c       _TIMESPACE_DATA_mp_READFOURIERCOMPSTIM. 00532c5c f   part_io_f:meteo1.obj
 0001:00133880       _TIMESPACE_DATA_mp_KOMPBS  00534880 f   part_io_f:meteo1.obj
 0001:00133888       _TIMESPACE_DATA_mp_KOMPBS. 00534888 f   part_io_f:meteo1.obj
 0001:00136db0       _TIMESPACE_READ_mp_REAARCTIM 00537db0 f   part_io_f:meteo1.obj
 0001:00136dbc       _TIMESPACE_READ_mp_REAARCTIM. 00537dbc f   part_io_f:meteo1.obj
 0001:00137570       _TIMESPACE_mp_ALLOCSUBDOMS 00538570 f   part_io_f:meteo1.obj
 0001:00137720       _TIMESPACE_mp_DEALLOCSUBDOMS 00538720 f   part_io_f:meteo1.obj
 0001:00137860       _TIMESPACE_mp_OPERATE      00538860 f   part_io_f:meteo1.obj
 0001:001378a0       _TIMESPACE_mp_REGULATE     005388a0 f   part_io_f:meteo1.obj
 0001:00137b30       _TIMESPACE_mp_REGDIR       00538b30 f   part_io_f:meteo1.obj
 0001:00137b90       _TIMESPACE_mp_BILIN5       00538b90 f   part_io_f:meteo1.obj
 0001:00137e40       _TIMESPACE_mp_DISTANCE2    00538e40 f   part_io_f:meteo1.obj
 0001:00137f60       _TIMESPACE_TRIANGLE_mp_EXTRAPOLATE 00538f60 f   part_io_f:meteo1.obj
 0001:00138140       _TIMESPACE_DATA_mp_GETMETEOERROR 00539140 f   part_io_f:meteo1.obj
 0001:00138150       _TIMESPACE_DATA_mp_TIMESPACEINITIALFIELD_INT 00539150 f   part_io_f:meteo1.obj
 0001:001383c0       _TIMESPACE_DATA_mp_TIMESPACEINITIALFIELD 005393c0 f   part_io_f:meteo1.obj
 0001:00138700       _GENFIL_MOD.               00539700 f   part_io_f:genfil.obj
 0001:00138710       _GENFIL_MOD_mp_GENFIL      00539710 f   part_io_f:genfil.obj
 0001:001388a0       _RDHYD_MOD.                005398a0 f   part_io_f:rdhyd.obj
 0001:001388b0       _RDHYD                     005398b0 f   part_io_f:rdhyd.obj
 0001:0013b5a0       _DD_PREPARE_MOD.           0053c5a0 f   part_io_f:dd_prepare.obj
 0001:0013b5b0       _DD_PREPARE                0053c5b0 f   part_io_f:dd_prepare.obj
 0001:0013c290       _DLWQTD                    0053d290 f   part_io_f:dlwqtd.obj
 0001:0013cec0       _DLWQFL                    0053dec0 f   part_io_f:dlwqfl.obj
 0001:0013d9e0       _DLWQBL                    0053e9e0 f   part_io_f:dlwqbl.obj
 0001:0013e5d0       _RDWND                     0053f5d0 f   part_io_f:rdwnd.obj
 0001:0013f300       _FILLDM_MOD.               00540300 f   part_io_f:filldm.obj
 0001:0013f310       _FILLDM_MOD_mp_FILLDM      00540310 f   part_io_f:filldm.obj
 0001:0013f410       _PUTGET_MOD.               00540410 f   part_io_f:putget.obj
 0001:0013f420       _PUTGET_MOD_mp_PUTGET_INT  00540420 f   part_io_f:putget.obj
 0001:0013ff70       _PUTGET_MOD_mp_PUTGET_INT1D 00540f70 f   part_io_f:putget.obj
 0001:00141320       _PUTGET_MOD_mp_PUTGET_INT2D 00542320 f   part_io_f:putget.obj
 0001:00142160       _PUTGET_MOD_mp_PUTGET_REAL 00543160 f   part_io_f:putget.obj
 0001:00142cb0       _PUTGET_MOD_mp_PUTGET_REAL1D 00543cb0 f   part_io_f:putget.obj
 0001:00144050       _PUTGET_MOD_mp_PUTGET_REAL2D 00545050 f   part_io_f:putget.obj
 0001:00144e90       _PUTGET_MOD_mp_PUTGET_CHAR 00545e90 f   part_io_f:putget.obj
 0001:001459b0       _PUTGET_MOD_mp_PUTGET_CHAR1D 005469b0 f   part_io_f:putget.obj
 0001:00146800       _DLPR12_MOD.               00547800 f   part_io_f:dlpr12.obj
 0001:00146810       _DLPR12_MOD_mp_DLPR12      00547810 f   part_io_f:dlpr12.obj
 0001:00148680       _M_MISSING.                00549680 f   part_io_f:meteo1temphelpers.obj
 0001:00148690       _NUMUNI                    00549690 f   part_io_f:meteo1temphelpers.obj
 0001:00148700       _DOCLOSE                   00549700 f   part_io_f:meteo1temphelpers.obj
 0001:00148750       _ZOEKJA                    00549750 f   part_io_f:meteo1temphelpers.obj
 0001:00148940       _ZOEKOPT                   00549940 f   part_io_f:meteo1temphelpers.obj
 0001:00148b00       _IFIRSTCHAR                00549b00 f   part_io_f:meteo1temphelpers.obj
 0001:00148b60       _IFIRSTLETTER              00549b60 f   part_io_f:meteo1temphelpers.obj
 0001:00148bf0       _JULDAY                    00549bf0 f   part_io_f:meteo1temphelpers.obj
 0001:00148cb0       _GETDX                     00549cb0 f   part_io_f:meteo1temphelpers.obj
 0001:00148cd0       _GETDY                     00549cd0 f   part_io_f:meteo1temphelpers.obj
 0001:00148cf0       _PINPOK                    00549cf0 f   part_io_f:meteo1temphelpers.obj
 0001:00149010       _OLDFIL                    0054a010 f   part_io_f:meteo1temphelpers.obj
 0001:001492f0       _NEWFIL                    0054a2f0 f   part_io_f:meteo1temphelpers.obj
 0001:00149600       _ZOEKVAL                   0054a600 f   part_io_f:meteo1temphelpers.obj
 0001:001498c0       _ILOCATESTRING             0054a8c0 f   part_io_f:meteo1temphelpers.obj
 0001:00149950       _CROSS                     0054a950 f   part_io_f:meteo1temphelpers.obj
 0001:00149b10       _CROSSPOLY                 0054ab10 f   part_io_f:meteo1temphelpers.obj
 0001:00149d10       _DBDISTANCE                0054ad10 f   part_io_f:meteo1temphelpers.obj
 0001:00149d70       _EOFERROR                  0054ad70 f   part_io_f:meteo1temphelpers.obj
 0001:00149de0       _READERROR                 0054ade0 f   part_io_f:meteo1temphelpers.obj
 0001:00149e80       _M_SFERIC.                 0054ae80 f   part_io_f:m_sferic.obj
 0001:00149e90       _M_ALLOC.                  0054ae90 f   part_io_f:malloc.obj
 0001:00149ea0       _M_ALLOC_mp_REALLOCREAL2X  0054aea0 f   part_io_f:malloc.obj
 0001:0014b940       _M_ALLOC_mp_REALLOCDOUBLE2X 0054c940 f   part_io_f:malloc.obj
 0001:0014d3f0       _M_ALLOC_mp_REALLOCINT2X   0054e3f0 f   part_io_f:malloc.obj
 0001:0014eeb0       _M_ALLOC_mp_REALLOCCHARACTER2X 0054feb0 f   part_io_f:malloc.obj
 0001:0014ff80       _M_ALLOC_mp_REALLOCREAL3X  00550f80 f   part_io_f:malloc.obj
 0001:00152520       _M_ALLOC_mp_REALLOCPINT    00553520 f   part_io_f:malloc.obj
 0001:00152c70       _M_ALLOC_mp_REALLOCINT     00553c70 f   part_io_f:malloc.obj
 0001:001535c0       _M_ALLOC_mp_REALLOCPINT2   005545c0 f   part_io_f:malloc.obj
 0001:00154040       _M_ALLOC_mp_REALLOCINT2    00555040 f   part_io_f:malloc.obj
 0001:00154f70       _M_ALLOC_mp_REALLOCPINT3   00555f70 f   part_io_f:malloc.obj
 0001:001560e0       _M_ALLOC_mp_REALLOCINT3    005570e0 f   part_io_f:malloc.obj
 0001:001574b0       _M_ALLOC_mp_REALLOCPINT4   005584b0 f   part_io_f:malloc.obj
 0001:001588f0       _M_ALLOC_mp_REALLOCINT4    005598f0 f   part_io_f:malloc.obj
 0001:0015a080       _M_ALLOC_mp_REALLOCPCHARACTER 0055b080 f   part_io_f:malloc.obj
 0001:0015a510       _M_ALLOC_mp_REALLOCCHARACTER 0055b510 f   part_io_f:malloc.obj
 0001:0015ab50       _M_ALLOC_mp_REALLOCPCHARACTER2 0055bb50 f   part_io_f:malloc.obj
 0001:0015b1d0       _M_ALLOC_mp_REALLOCCHARACTER2 0055c1d0 f   part_io_f:malloc.obj
 0001:0015bbb0       _M_ALLOC_mp_REALLOCPCHARACTER3 0055cbb0 f   part_io_f:malloc.obj
 0001:0015c420       _M_ALLOC_mp_REALLOCCHARACTER3 0055d420 f   part_io_f:malloc.obj
 0001:0015d070       _M_ALLOC_mp_REALLOCPCHARACTER4 0055e070 f   part_io_f:malloc.obj
 0001:0015dab0       _M_ALLOC_mp_REALLOCCHARACTER4 0055eab0 f   part_io_f:malloc.obj
 0001:0015ea30       _M_ALLOC_mp_REALLOCPREAL   0055fa30 f   part_io_f:malloc.obj
 0001:0015f170       _M_ALLOC_mp_REALLOCREAL    00560170 f   part_io_f:malloc.obj
 0001:0015fab0       _M_ALLOC_mp_REALLOCPREAL2  00560ab0 f   part_io_f:malloc.obj
 0001:00160560       _M_ALLOC_mp_REALLOCREAL2   00561560 f   part_io_f:malloc.obj
 0001:001614a0       _M_ALLOC_mp_REALLOCPREAL3  005624a0 f   part_io_f:malloc.obj
 0001:001625e0       _M_ALLOC_mp_REALLOCREAL3   005635e0 f   part_io_f:malloc.obj
 0001:00163bd0       _M_ALLOC_mp_REALLOCPREAL4  00564bd0 f   part_io_f:malloc.obj
 0001:00165040       _M_ALLOC_mp_REALLOCREAL4   00566040 f   part_io_f:malloc.obj
 0001:00166860       _M_ALLOC_mp_REALLOCPDOUBLE 00567860 f   part_io_f:malloc.obj
 0001:00167070       _M_ALLOC_mp_REALLOCDOUBLE  00568070 f   part_io_f:malloc.obj
 0001:001679b0       _M_ALLOC_mp_REALLOCPDOUBLE2 005689b0 f   part_io_f:malloc.obj
 0001:00168660       _M_ALLOC_mp_REALLOCDOUBLE2 00569660 f   part_io_f:malloc.obj
 0001:001695a0       _M_ALLOC_mp_REALLOCPDOUBLE3 0056a5a0 f   part_io_f:malloc.obj
 0001:0016a7d0       _M_ALLOC_mp_REALLOCDOUBLE3 0056b7d0 f   part_io_f:malloc.obj
 0001:0016bb70       _M_ALLOC_mp_REALLOCPDOUBLE4 0056cb70 f   part_io_f:malloc.obj
 0001:0016d0e0       _M_ALLOC_mp_REALLOCDOUBLE4 0056e0e0 f   part_io_f:malloc.obj
 0001:0016e910       _M_ALLOC_mp_REALLOCPLOGICAL 0056f910 f   part_io_f:malloc.obj
 0001:0016f060       _M_ALLOC_mp_REALLOCLOGICAL 00570060 f   part_io_f:malloc.obj
 0001:0016f9b0       _M_ALLOC_mp_REALLOCPLOGICAL2 005709b0 f   part_io_f:malloc.obj
 0001:00170430       _M_ALLOC_mp_REALLOCLOGICAL2 00571430 f   part_io_f:malloc.obj
 0001:00171290       _M_ALLOC_mp_REALLOCPLOGICAL3 00572290 f   part_io_f:malloc.obj
 0001:00172400       _M_ALLOC_mp_REALLOCLOGICAL3 00573400 f   part_io_f:malloc.obj
 0001:001737d0       _M_ALLOC_mp_REALLOCPLOGICAL4 005747d0 f   part_io_f:malloc.obj
 0001:00174c10       _M_ALLOC_mp_REALLOCLOGICAL4 00575c10 f   part_io_f:malloc.obj
 0001:001763a0       _RD_TOKEN.                 005773a0 f   deltares_common:rd_token.obj
 0001:001763b0       _RD_TOKEN_mp_GET_CHAR_TOK  005773b0 f   deltares_common:rd_token.obj
 0001:001764c0       _RD_TOKEN_mp_GET_INT_TOK   005774c0 f   deltares_common:rd_token.obj
 0001:00176570       _RD_TOKEN_mp_GET_REAL_TOK  00577570 f   deltares_common:rd_token.obj
 0001:00176630       _RD_TOKEN_mp_GET_NOCHAR_TOK 00577630 f   deltares_common:rd_token.obj
 0001:00176720       _RD_TOKEN_mp_GET_NOREAL_TOK 00577720 f   deltares_common:rd_token.obj
 0001:00176880       _RD_TOKEN_mp_GET_ALL_TOK   00577880 f   deltares_common:rd_token.obj
 0001:001769d0       _RD_TOKEN_mp_PUTTOKEN      005779d0 f   deltares_common:rd_token.obj
 0001:00176a30       _STRING_MODULE.            00577a30 f   deltares_common:string_module.obj
 0001:00176a40       _STRING_MODULE_mp_STRING_MODULE_INFO 00577a40 f   deltares_common:string_module.obj
 0001:00176a70       _STRING_MODULE_mp_STR_TOKEN 00577a70 f   deltares_common:string_module.obj
 0001:001770d0       _STRING_MODULE_mp_STR_LOWER 005780d0 f   deltares_common:string_module.obj
 0001:00177480       _STRING_MODULE_mp_STR_UPPER 00578480 f   deltares_common:string_module.obj
 0001:00177830       _STRING_MODULE_mp_REMOVE_ALL_SPACES 00578830 f   deltares_common:string_module.obj
 0001:00177930       _STRING_MODULE_mp_REMOVE_LEADING_SPACES 00578930 f   deltares_common:string_module.obj
 0001:001779d0       _STRING_MODULE_mp_STRCMPI  005789d0 f   deltares_common:string_module.obj
 0001:00177cc0       _STRING_MODULE_mp_FIND_FIRST_CHAR 00578cc0 f   deltares_common:string_module.obj
 0001:00177d30       _STRING_MODULE_mp_FIND_FIRST_WORD 00578d30 f   deltares_common:string_module.obj
 0001:00177e40       _STRING_MODULE_mp_FIND_FIRST_LETTER 00578e40 f   deltares_common:string_module.obj
 0001:00177ec0       _STRING_MODULE_mp_COUNT_WORDS 00578ec0 f   deltares_common:string_module.obj
 0001:00178000       _STRING_MODULE_mp_IS_WHITESPACE 00579000 f   deltares_common:string_module.obj
 0001:00178030       _STRING_MODULE_mp_REPLACE_CHAR 00579030 f   deltares_common:string_module.obj
 0001:00178440       _STRING_MODULE_mp_REMOVE_SUBSTR 00579440 f   deltares_common:string_module.obj
 0001:00178570       _RDTOK1                    00579570 f   deltares_common:rdtok1.obj
 0001:00179330       _MESSAGE_MODULE.           0057a330 f   deltares_common:message_module.obj
 0001:00179340       _MESSAGE_MODULE_mp_CLEARSTACK 0057a340 f   deltares_common:message_module.obj
 0001:00179400       _MESSAGE_MODULE_mp_ADDMESSAGE 0057a400 f   deltares_common:message_module.obj
 0001:00179580       _MESSAGE_MODULE_mp_ISEMPTY 0057a580 f   deltares_common:message_module.obj
 0001:001795a0       _MESSAGE_MODULE_mp_GETMESSAGE 0057a5a0 f   deltares_common:message_module.obj
 0001:00179620       _MESSAGE_MODULE_mp_WRITEMESSAGES 0057a620 f   deltares_common:message_module.obj
 0001:00179740       _MESSAGE_MODULE_mp_WRITE_WARNING 0057a740 f   deltares_common:message_module.obj
 0001:00179890       _MESSAGE_MODULE_mp_WRITE_ERROR 0057a890 f   deltares_common:message_module.obj
 0001:00179a00       _MESSAGE_MODULE_mp_ADDWARNING 0057aa00 f   deltares_common:message_module.obj
 0001:00179be0       _MESSAGE_MODULE_mp_ADDERROR 0057abe0 f   deltares_common:message_module.obj
 0001:00179dc0       _MESSAGE_MODULE_mp_INITSTACK 0057adc0 f   deltares_common:message_module.obj
 0001:00179de0       _GETTOK                    0057ade0 f   deltares_common:gettok.obj
 0001:0017a880       _MESTOK                    0057b880 f   deltares_common:mestok.obj
 0001:0017aeb0       __QWINGetFileName          0057beb0 f   ifconsol:for_m_console.obj
 0001:0017aeb0       __wgopen                   0057beb0 f   ifconsol:for_m_console.obj
 0001:0017aeb0       __QWINMsgBox               0057beb0 f   ifconsol:for_m_console.obj
 0001:0017aeb0       __QWINNiceExit             0057beb0 f   ifconsol:for_m_console.obj
 0001:0017aeb0       __wgsetactive              0057beb0 f   ifconsol:for_m_console.obj
 0001:0017aeb0       __QWINSetIOFOCUS           0057beb0 f   ifconsol:for_m_console.obj
 0001:0017aeb0       __QWINGetTitle             0057beb0 f   ifconsol:for_m_console.obj
 0001:0017aeb0       __QWINRead                 0057beb0 f   ifconsol:for_m_console.obj
 0001:0017aeb0       __QWINClose                0057beb0 f   ifconsol:for_m_console.obj
 0001:0017aeb0       __QWINWrite                0057beb0 f   ifconsol:for_m_console.obj
 0001:0017aed0       _RegisterGetHandleQQ       0057bed0 f   ifconsol:for_m_console.obj
 0001:0017aed0       _RegisterGetUnitQQ         0057bed0 f   ifconsol:for_m_console.obj
 0001:0017aed0       _ChangeQWINCP              0057bed0 f   ifconsol:for_m_console.obj
 0001:0017aee0       __QWINGetDefaultWindow     0057bee0 f   ifconsol:for_m_console.obj
 0001:0017aee0       __QWINSetFocus             0057bee0 f   ifconsol:for_m_console.obj
 0001:0017af00       _for_read_int_fmt          0057bf00 f   libifcoremt:for_rint_fmt.obj
 0001:0017bf10       _for_read_int_fmt_xmit     0057cf10 f   libifcoremt:for_rint_fmt.obj
 0001:0017e260       _for_backspace             0057f260 f   libifcoremt:for_backspace.obj
 0001:00180f50       _for_rewind                00581f50 f   libifcoremt:for_rewind.obj
 0001:00181cd0       _for_read_int_lis          00582cd0 f   libifcoremt:for_rint_lis.obj
 0001:00182b70       _for_read_int_lis_xmit     00583b70 f   libifcoremt:for_rint_lis.obj
 0001:00183ea0       _for_ri_cvt_2step          00584ea0 f   libifcoremt:for_rint_lis.obj
 0001:00183eac       _for_ri_cvt_2step.         00584eac f   libifcoremt:for_rint_lis.obj
 0001:00184c30       _for_write_int_lis         00585c30 f   libifcoremt:for_wint_lis.obj
 0001:00185ab0       _for_write_int_lis_xmit    00586ab0 f   libifcoremt:for_wint_lis.obj
 0001:00187520       _for_f90_scan              00588520 f   libifcoremt:for_90_scan.obj
 0001:001875f0       ___libm_sse2_log           005885f0 f   libmmt:log_sse2.obj
 0001:00187820       ___libm_sse2_log10f        00588820 f   libmmt:log10f_sse2.obj
 0001:00187990       _sincos                    00588990 f   libmmt:sincos_stub.obj
 0001:001879d0       _atan                      005889d0 f   libmmt:atan_stub.obj
 0001:00187a10       _cos                       00588a10 f   libmmt:cos_stub.obj
 0001:00187a90       _sin                       00588a90 f   libmmt:sin_stub.obj
 0001:00187b10       ___powr8i4                 00588b10 f   libmmt:f__powr8i4.obj
 0001:00187bc0       ___libm_sse2_sincos        00588bc0 f   libmmt:sincos_sse2.obj
 0001:00187e60       ___libm_sse2_cos           00588e60 f   libmmt:cos_sse2.obj
 0001:00188030       ___libm_sse2_acos          00589030 f   libmmt:acos_sse2.obj
 0001:001884e0       _sincos.J                  005894e0 f   libmmt:sincos_wmt.obj
 0001:001887e0       _sincos.A                  005897e0 f   libmmt:sincos_gen.obj
 0001:00188e20       _atan.J                    00589e20 f   libmmt:atan_wmt.obj
 0001:001890f0       _atan.A                    0058a0f0 f   libmmt:atan_gen.obj
 0001:00189510       _cos.O                     0058a510 f   libmmt:cos_atm.obj
 0001:00189e70       _cos.N                     0058ae70 f   libmmt:cos_pnr.obj
 0001:0018a040       _cos.J                     0058b040 f   libmmt:cos_wmt.obj
 0001:0018a230       _cos.A                     0058b230 f   libmmt:cos_gen.obj
 0001:0018a970       _sin.O                     0058b970 f   libmmt:sin_atm.obj
 0001:0018b330       _sin.N                     0058c330 f   libmmt:sin_pnr.obj
 0001:0018b510       _sin.J                     0058c510 f   libmmt:sin_wmt.obj
 0001:0018b710       _sin.A                     0058c710 f   libmmt:sin_gen.obj
 0001:0018beb0       _fegetround                0058ceb0 f   libmmt:fegetround.obj
 0001:0018bec0       _fesetround.A              0058cec0 f   libmmt:fesetround.obj
 0001:0018bf70       _fesetround.H              0058cf70 f   libmmt:fesetround.obj
 0001:0018bfd0       _fesetround                0058cfd0 f   libmmt:fesetround.obj
 0001:0018c010       ___svml_irem4              0058d010 f   svml_dispmt:svml_i_rem4_iface_la.obj
 0001:0018c050       ___svml_fmod2              0058d050 f   svml_dispmt:svml_d_fmod2_iface_la.obj
 0001:0018c090       ___svml_sincos2            0058d090 f   svml_dispmt:svml_d_sincos2_iface_la.obj
 0001:0018c0e0       ___svml_cos2               0058d0e0 f   svml_dispmt:svml_d_cos2_iface_la.obj
 0001:0018c120       ___svml_irem4_a6           0058d120 f   svml_dispmt:svml_i_rem4_core_a6la.obj
 0001:0018c180       ___svml_irem4_t7           0058d180 f   svml_dispmt:svml_i_rem4_core_t7la.obj
 0001:0018c250       ___svml_irem4_p8           0058d250 f   svml_dispmt:svml_i_rem4_core_p8la.obj
 0001:0018c330       ___svml_irem4_n9           0058d330 f   svml_dispmt:svml_i_rem4_core_n9la.obj
 0001:0018c3a0       ___svml_fmod2_w7           0058d3a0 f   svml_dispmt:svml_d_fmod2_core_w7la.obj
 0001:0018c520       ___svml_fmod2_t7           0058d520 f   svml_dispmt:svml_d_fmod2_core_t7la.obj
 0001:0018c6a0       ___svml_fmod2_n9           0058d6a0 f   svml_dispmt:svml_d_fmod2_core_n9la.obj
 0001:0018c7c0       ___svml_sincos2_w7         0058d7c0 f   svml_dispmt:svml_d_sincos2_core_w7la.obj
 0001:0018cfa0       ___svml_sincos2_n9         0058dfa0 f   svml_dispmt:svml_d_sincos2_core_n9la.obj
 0001:0018d6c0       ___svml_cos2_w7            0058e6c0 f   svml_dispmt:svml_d_cos2_core_w7la.obj
 0001:0018d860       ___svml_cos2_t7            0058e860 f   svml_dispmt:svml_d_cos2_core_t7la.obj
 0001:0018db90       ___svml_cos2_p8            0058eb90 f   svml_dispmt:svml_d_cos2_core_p8la.obj
 0001:0018dec0       ___svml_cos2_n9            0058eec0 f   svml_dispmt:svml_d_cos2_core_n9la.obj
 0001:0018e1f0       ___svml_dfmod_cout_rare    0058f1f0 f   svml_dispmt:svml_d_fmod_cout_w7la.obj
 0001:0018e690       ___svml_dsincos_cout_rare  0058f690 f   svml_dispmt:svml_d_sincos_cout_w7la.obj
 0001:0018e770       ___svml_cos_reduction_LA   0058f770 f   svml_dispmt:svml_d_dtrig_.obj
 0001:0018ea70       _WRITE_VERSION             0058fa70 f   part_utils_f:write_version.obj
 0001:0018ede0       _POLPART                   0058fde0 f   part_utils_f:polpart.obj
 0001:0018f6b0       _NOEXTSPACES_MOD.          005906b0 f   part_utils_f:noextspaces.obj
 0001:0018f6c0       _NOEXTSPACES_MOD_mp_NOEXTSPACES 005906c0 f   part_utils_f:noextspaces.obj
 0001:0018f830       _GETENV                    00590830 f   libifport:getenv.obj
 0001:0018f940       _main                      00590940 f   libifcoremt:for_main.obj
 0001:0018fa10       _for__nt_handler_jacket    00590a10 f   libifcoremt:for_main.obj
 0001:0018fa14       _for__nt_handler_jacket.   00590a14 f   libifcoremt:for_main.obj
 0001:0018fa70       _for__nt_user_handler_jacket 00590a70 f   libifcoremt:for_main.obj
 0001:0018fc70       _CLSNEF                    00590c70 f   nefis:f2c.obj
 0001:0018fc90       _DEFCEL                    00590c90 f   nefis:f2c.obj
 0001:0018fe40       _CREDAT                    00590e40 f   nefis:f2c.obj
 0001:0018ff80       _DEFELM                    00590f80 f   nefis:f2c.obj
 0001:001902a0       _DEFGRP                    005912a0 f   nefis:f2c.obj
 0001:00190450       _CRENEF                    00591450 f   nefis:f2c.obj
 0001:001905f0       _GETELT                    005915f0 f   nefis:f2c.obj
 0001:001907c0       _GETELS                    005917c0 f   nefis:f2c.obj
 0001:00190800       _INQELM                    00591800 f   nefis:f2c.obj
 0001:00190ae0       _NEFERR                    00591ae0 f   nefis:f2c.obj
 0001:00190b70       _PUTELS                    00591b70 f   nefis:f2c.obj
 0001:00190d40       _PUTELT                    00591d40 f   nefis:f2c.obj
 0001:00190d80       _Define_element            00591d80 f   nefis:df.obj
 0001:00191460       _Define_cel                00592460 f   nefis:df.obj
 0001:00191be0       _Define_group              00592be0 f   nefis:df.obj
 0001:00192150       _Define_data               00593150 f   nefis:df.obj
 0001:001928d0       _DF_check_bytes_elm        005938d0 f   nefis:df.obj
 0001:00192aa0       _create_nefis_files        00593aa0 f   nefis:oc.obj
 0001:00194280       _close_nefis_files         00595280 f   nefis:oc.obj
 0001:00194690       _open_nefis_file           00595690 f   nefis:oc.obj
 0001:00194880       _setConversionExistingFile 00595880 f   nefis:oc.obj
 0001:00194910       _new_capacity_retrieve_var 00595910 f   nefis:oc.obj
 0001:00194a40       _GP_read_file_pointers     00595a40 f   nefis:gp.obj
 0001:00194bb0       _GP_write_file             00595bb0 f   nefis:gp.obj
 0001:00194c60       _GP_write_file_pointers    00595c60 f   nefis:gp.obj
 0001:00194de0       _GP_flush_hash             00595de0 f   nefis:gp.obj
 0001:001950b0       _GP_inquire_cel            005960b0 f   nefis:gp.obj
 0001:00195170       _GP_inquire_dat            00596170 f   nefis:gp.obj
 0001:00195250       _GP_inquire_elm            00596250 f   nefis:gp.obj
 0001:00195320       _GP_inquire_grp_def        00596320 f   nefis:gp.obj
 0001:001953e0       _GP_variable_pointer       005963e0 f   nefis:gp.obj
 0001:001959c0       _Put_element               005969c0 f   nefis:pt.obj
 0001:00196570       _Get_element               00597570 f   nefis:gt.obj
 0001:001971e0       _nefis_error               005981e0 f   nefis:er.obj
 0001:00197300       _HS_check_ecg              00598300 f   nefis:hs.obj
 0001:00197670       _HS_get_cont_cel           00598670 f   nefis:hs.obj
 0001:00197bd0       _HS_get_cont_elm           00598bd0 f   nefis:hs.obj
 0001:001980f0       _HS_get_cont_grp           005990f0 f   nefis:hs.obj
 0001:00198400       _HS_get_cont_dat           00599400 f   nefis:hs.obj
 0001:001986a0       _convert_ieee              005996a0 f   nefis:wl-xdr.obj
 0001:00199260       _RT_retrieve               0059a260 f   nefis:rt.obj
 0001:00199740       _free_retrieve_ptrs        0059a740 f   nefis:rt.obj
 0001:00199780       _RT_retrieve_var           0059a780 f   nefis:rt.obj
 0001:00199910       _RT_update_var_index_array 0059a910 f   nefis:rt.obj
 0001:00199f00       _GETFULLVERSIONSTRING_PART 0059af00 f   part_version_number:f2c.obj
 0001:00199f52       _omp_get_max_threads       0059af52 f   libiomp5md:libiomp5md.dll
 0001:00199f58       ___kmpc_global_thread_num  0059af58 f   libiomp5md:libiomp5md.dll
 0001:00199f5e       ___kmpc_ok_to_fork         0059af5e f   libiomp5md:libiomp5md.dll
 0001:00199f64       ___kmpc_fork_call          0059af64 f   libiomp5md:libiomp5md.dll
 0001:00199f6a       ___kmpc_serialized_parallel 0059af6a f   libiomp5md:libiomp5md.dll
 0001:00199f70       ___kmpc_end_serialized_parallel 0059af70 f   libiomp5md:libiomp5md.dll
 0001:00199f76       ___kmpc_for_static_init_4  0059af76 f   libiomp5md:libiomp5md.dll
 0001:00199f7c       ___kmpc_for_static_fini    0059af7c f   libiomp5md:libiomp5md.dll
 0001:00199f82       ___kmpc_reduce_nowait      0059af82 f   libiomp5md:libiomp5md.dll
 0001:00199f88       ___kmpc_end_reduce_nowait  0059af88 f   libiomp5md:libiomp5md.dll
 0001:00199f8e       ___kmpc_atomic_float8_add  0059af8e f   libiomp5md:libiomp5md.dll
 0001:00199f94       ___kmpc_atomic_fixed4_add  0059af94 f   libiomp5md:libiomp5md.dll
 0001:00199f9a       ___kmpc_dispatch_init_4    0059af9a f   libiomp5md:libiomp5md.dll
 0001:00199fa0       ___kmpc_dispatch_next_4    0059afa0 f   libiomp5md:libiomp5md.dll
 0001:00199fa6       ___kmpc_atomic_float4_max  0059afa6 f   libiomp5md:libiomp5md.dll
 0001:00199fac       ___kmpc_atomic_float4_min  0059afac f   libiomp5md:libiomp5md.dll
 0001:00199fb2       ___kmpc_atomic_float4_add  0059afb2 f   libiomp5md:libiomp5md.dll
 0001:0019a221       _mainCRTStartup            0059b221 f   MSVCRT:crtexe.obj
 0001:0019a230       __alloca_probe             0059b230 f   MSVCRT:chkstk.obj
 0001:0019a230       __chkstk                   0059b230 f   MSVCRT:chkstk.obj
 0001:0019a260       _memcpy                    0059b260 f   MSVCRT:MSVCR120.dll
 0001:0019a266       _memmove                   0059b266 f   MSVCRT:MSVCR120.dll
 0001:0019a26c       _signal                    0059b26c f   MSVCRT:MSVCR120.dll
 0001:0019a272       ___atonexitinit            0059b272 f   MSVCRT:atonexit.obj
 0001:0019a2ae       __onexit                   0059b2ae f   MSVCRT:atonexit.obj
 0001:0019a357       _atexit                    0059b357 f   MSVCRT:atonexit.obj
 0001:0019a36c       __stricmp                  0059b36c f   MSVCRT:MSVCR120.dll
 0001:0019a372       _getenv                    0059b372 f   MSVCRT:MSVCR120.dll
 0001:0019a378       _strchr                    0059b378 f   MSVCRT:MSVCR120.dll
 0001:0019a37e       _strstr                    0059b37e f   MSVCRT:MSVCR120.dll
 0001:0019a384       _toupper                   0059b384 f   MSVCRT:MSVCR120.dll
 0001:0019a38a       _strncmp                   0059b38a f   MSVCRT:MSVCR120.dll
 0001:0019a390       _strncpy                   0059b390 f   MSVCRT:MSVCR120.dll
 0001:0019a396       _sprintf                   0059b396 f   MSVCRT:MSVCR120.dll
 0001:0019a39c       _memchr                    0059b39c f   MSVCRT:MSVCR120.dll
 0001:0019a3a2       _exit                      0059b3a2 f   MSVCRT:MSVCR120.dll
 0001:0019a3a8       _malloc                    0059b3a8 f   MSVCRT:MSVCR120.dll
 0001:0019a3ae       _free                      0059b3ae f   MSVCRT:MSVCR120.dll
 0001:0019a3c0       __alldiv                   0059b3c0 f   MSVCRT:lldiv.obj
 0001:0019a46a       _realloc                   0059b46a f   MSVCRT:MSVCR120.dll
 0001:0019a470       __aligned_malloc           0059b470 f   MSVCRT:MSVCR120.dll
 0001:0019a476       __aligned_free             0059b476 f   MSVCRT:MSVCR120.dll
 0001:0019a480       __allmul                   0059b480 f   MSVCRT:llmul.obj
 0001:0019a4b4       _clock                     0059b4b4 f   MSVCRT:MSVCR120.dll
 0001:0019a4ba       _atol                      0059b4ba f   MSVCRT:MSVCR120.dll
 0001:0019a4c0       __allrem                   0059b4c0 f   MSVCRT:llrem.obj
 0001:0019a572       __localtime64              0059b572 f   MSVCRT:MSVCR120.dll
 0001:0019a578       _strftime                  0059b578 f   MSVCRT:MSVCR120.dll
 0001:0019a57e       __gmtime64                 0059b57e f   MSVCRT:MSVCR120.dll
 0001:0019a584       __controlfp_s              0059b584 f   MSVCRT:MSVCR120.dll
 0001:0019a58a       __clearfp                  0059b58a f   MSVCRT:MSVCR120.dll
 0001:0019a590       _vsprintf                  0059b590 f   MSVCRT:MSVCR120.dll
 0001:0019a596       ___iob_func                0059b596 f   MSVCRT:MSVCR120.dll
 0001:0019a59c       _freopen                   0059b59c f   MSVCRT:MSVCR120.dll
 0001:0019a5a2       _fprintf                   0059b5a2 f   MSVCRT:MSVCR120.dll
 0001:0019a5a8       _abort                     0059b5a8 f   MSVCRT:MSVCR120.dll
 0001:0019a5ae       _fopen                     0059b5ae f   MSVCRT:MSVCR120.dll
 0001:0019a5b4       _fputs                     0059b5b4 f   MSVCRT:MSVCR120.dll
 0001:0019a5ba       _fclose                    0059b5ba f   MSVCRT:MSVCR120.dll
 0001:0019a5c0       _fflush                    0059b5c0 f   MSVCRT:MSVCR120.dll
 0001:0019a5c6       _getenv_s                  0059b5c6 f   MSVCRT:MSVCR120.dll
 0001:0019a5cc       _strtok                    0059b5cc f   MSVCRT:MSVCR120.dll
 0001:0019a5d2       _atoi                      0059b5d2 f   MSVCRT:MSVCR120.dll
 0001:0019a5d8       __get_osfhandle            0059b5d8 f   MSVCRT:MSVCR120.dll
 0001:0019a5de       __open_osfhandle           0059b5de f   MSVCRT:MSVCR120.dll
 0001:0019a5e4       __fileno                   0059b5e4 f   MSVCRT:MSVCR120.dll
 0001:0019a5ea       __access                   0059b5ea f   MSVCRT:MSVCR120.dll
 0001:0019a5f0       __errno                    0059b5f0 f   MSVCRT:MSVCR120.dll
 0001:0019a5f6       __write                    0059b5f6 f   MSVCRT:MSVCR120.dll
 0001:0019a5fc       _tolower                   0059b5fc f   MSVCRT:MSVCR120.dll
 0001:0019a602       _isdigit                   0059b602 f   MSVCRT:MSVCR120.dll
 0001:0019a608       _sscanf                    0059b608 f   MSVCRT:MSVCR120.dll
 0001:0019a60e       _rand                      0059b60e f   MSVCRT:MSVCR120.dll
 0001:0019a614       __getpid                   0059b614 f   MSVCRT:MSVCR120.dll
 0001:0019a620       __aulldiv                  0059b620 f   MSVCRT:ulldiv.obj
 0001:0019a688       _strlen                    0059b688 f   MSVCRT:MSVCR120.dll
 0001:0019a68e       _strncat                   0059b68e f   MSVCRT:MSVCR120.dll
 0001:0019a694       _memset                    0059b694 f   MSVCRT:MSVCR120.dll
 0001:0019a69a       _strcat                    0059b69a f   MSVCRT:MSVCR120.dll
 0001:0019a6a0       __snprintf                 0059b6a0 f   MSVCRT:MSVCR120.dll
 0001:0019a6a6       _strcpy                    0059b6a6 f   MSVCRT:MSVCR120.dll
 0001:0019a6ac       __splitpath                0059b6ac f   MSVCRT:MSVCR120.dll
 0001:0019a6b2       _printf                    0059b6b2 f   MSVCRT:MSVCR120.dll
 0001:0019a6b8       _memcmp                    0059b6b8 f   MSVCRT:MSVCR120.dll
 0001:0019a6be       __except_handler3          0059b6be f   MSVCRT:MSVCR120.dll
 0001:0019a6c4       @__security_check_cookie@4 0059b6c4 f   MSVCRT:secchk.obj
 0001:0019a6d3       ___raise_securityfailure   0059b6d3 f   MSVCRT:gs_report.obj
 0001:0019a710       ___report_gsfailure        0059b710 f   MSVCRT:gs_report.obj
 0001:0019a80b       ___report_rangecheckfailure 0059b80b f   MSVCRT:gs_report.obj
 0001:0019a817       ___report_securityfailure  0059b817 f   MSVCRT:gs_report.obj
 0001:0019a8e8       _calloc                    0059b8e8 f   MSVCRT:MSVCR120.dll
 0001:0019a8ee       ?__CxxUnhandledExceptionFilter@@YGJPAU_EXCEPTION_POINTERS@@@Z 0059b8ee f   MSVCRT:unhandld.obj
 0001:0019a92f       ___CxxSetUnhandledExceptionFilter 0059b92f f   MSVCRT:unhandld.obj
 0001:0019a93e       __XcptFilter               0059b93e f   MSVCRT:MSVCR120.dll
 0001:0019a944       __amsg_exit                0059b944 f   MSVCRT:MSVCR120.dll
 0001:0019a94a       __setargv                  0059b94a f   MSVCRT:dllargv.obj
 0001:0019a94a       __matherr                  0059b94a f   MSVCRT:merr.obj
 0001:0019a950       __FindPESection            0059b950 f   MSVCRT:pesect.obj
 0001:0019a9a0       __IsNonwritableInCurrentImage 0059b9a0 f   MSVCRT:pesect.obj
 0001:0019aa60       __ValidateImageBase        0059ba60 f   MSVCRT:pesect.obj
 0001:0019aa91       ___security_init_cookie    0059ba91 f   MSVCRT:gs_support.obj
 0001:0019ab2d       __RTC_Initialize           0059bb2d f   MSVCRT:initsect.obj
 0001:0019ab4d       __RTC_Terminate            0059bb4d f   MSVCRT:initsect.obj
 0001:0019ab6d       __setdefaultprecision      0059bb6d f   MSVCRT:fp8.obj
 0001:0019ab94       __initterm_e               0059bb94 f   MSVCRT:MSVCR120.dll
 0001:0019ab9a       __initterm                 0059bb9a f   MSVCRT:MSVCR120.dll
 0001:0019aba0       __SEH_prolog4              0059bba0 f   MSVCRT:sehprolg4.obj
 0001:0019abe5       __SEH_epilog4              0059bbe5 f   MSVCRT:sehprolg4.obj
 0001:0019abf9       __except_handler4          0059bbf9 f   MSVCRT:chandler4gs.obj
 0001:0019ac1c       __lock                     0059bc1c f   MSVCRT:MSVCR120.dll
 0001:0019ac22       __unlock                   0059bc22 f   MSVCRT:MSVCR120.dll
 0001:0019ac28       ___dllonexit               0059bc28 f   MSVCRT:MSVCR120.dll
 0001:0019ac2e       __crt_debugger_hook        0059bc2e f   MSVCRT:MSVCR120.dll
 0001:0019ac34       ___crtUnhandledException   0059bc34 f   MSVCRT:MSVCR120.dll
 0001:0019ac3a       ___crtTerminateProcess     0059bc3a f   MSVCRT:MSVCR120.dll
 0001:0019ac40       ?terminate@@YAXXZ          0059bc40 f   MSVCRT:MSVCR120.dll
 0001:0019ac46       ___crtSetUnhandledExceptionFilter 0059bc46 f   MSVCRT:MSVCR120.dll
 0001:0019ac4c       __invoke_watson            0059bc4c f   MSVCRT:MSVCR120.dll
 0001:0019ac52       __except_handler4_common   0059bc52 f   MSVCRT:MSVCR120.dll
 0001:0019ac58       _IsProcessorFeaturePresent@4 0059bc58 f   kernel32:KERNEL32.dll
 0001:0019ac5e       __fpieee_flt               0059bc5e f   MSVCRT:MSVCR120.dll
 0002:00000000       __VInfreq__main            0059c000     libifcoremt:for_main.obj
 0003:00000000       __imp__ReadFile@20         0059d000     kernel32:KERNEL32.dll
 0003:00000004       __imp__GetFullPathNameW@16 0059d004     kernel32:KERNEL32.dll
 0003:00000008       __imp__GetCurrentProcessId@0 0059d008     kernel32:KERNEL32.dll
 0003:0000000c       __imp__QueryPerformanceCounter@4 0059d00c     kernel32:KERNEL32.dll
 0003:00000010       __imp__IsProcessorFeaturePresent@4 0059d010     kernel32:KERNEL32.dll
 0003:00000014       __imp__DecodePointer@4     0059d014     kernel32:KERNEL32.dll
 0003:00000018       __imp__EncodePointer@4     0059d018     kernel32:KERNEL32.dll
 0003:0000001c       __imp__GetCurrentThread@0  0059d01c     kernel32:KERNEL32.dll
 0003:00000020       __imp__VirtualQuery@12     0059d020     kernel32:KERNEL32.dll
 0003:00000024       __imp__GetModuleFileNameA@12 0059d024     kernel32:KERNEL32.dll
 0003:00000028       __imp__IsBadReadPtr@8      0059d028     kernel32:KERNEL32.dll
 0003:0000002c       __imp__GetHandleInformation@8 0059d02c     kernel32:KERNEL32.dll
 0003:00000030       __imp__UnmapViewOfFile@4   0059d030     kernel32:KERNEL32.dll
 0003:00000034       __imp__OpenFileMappingA@12 0059d034     kernel32:KERNEL32.dll
 0003:00000038       __imp__CreateFileMappingA@24 0059d038     kernel32:KERNEL32.dll
 0003:0000003c       __imp__MapViewOfFile@20    0059d03c     kernel32:KERNEL32.dll
 0003:00000040       __imp__CreateProcessA@40   0059d040     kernel32:KERNEL32.dll
 0003:00000044       __imp__SetThreadPriority@8 0059d044     kernel32:KERNEL32.dll
 0003:00000048       __imp__GetVersionExA@4     0059d048     kernel32:KERNEL32.dll
 0003:0000004c       __imp__DeleteFileA@4       0059d04c     kernel32:KERNEL32.dll
 0003:00000050       __imp__GetSystemDefaultLangID@0 0059d050     kernel32:KERNEL32.dll
 0003:00000054       __imp__GetFullPathNameA@16 0059d054     kernel32:KERNEL32.dll
 0003:00000058       __imp__GetTempFileNameA@16 0059d058     kernel32:KERNEL32.dll
 0003:0000005c       __imp__GetTempPathA@8      0059d05c     kernel32:KERNEL32.dll
 0003:00000060       __imp__GetFileInformationByHandle@8 0059d060     kernel32:KERNEL32.dll
 0003:00000064       __imp__TerminateThread@8   0059d064     kernel32:KERNEL32.dll
 0003:00000068       __imp__SetEvent@4          0059d068     kernel32:KERNEL32.dll
 0003:0000006c       __imp__CreateEventA@16     0059d06c     kernel32:KERNEL32.dll
 0003:00000070       __imp__ExitThread@4        0059d070     kernel32:KERNEL32.dll
 0003:00000074       __imp__InitializeCriticalSection@4 0059d074     kernel32:KERNEL32.dll
 0003:00000078       __imp__DeleteCriticalSection@4 0059d078     kernel32:KERNEL32.dll
 0003:0000007c       __imp__CreateFileA@28      0059d07c     kernel32:KERNEL32.dll
 0003:00000080       __imp__FreeLibrary@4       0059d080     kernel32:KERNEL32.dll
 0003:00000084       __imp__GetThreadLocale@0   0059d084     kernel32:KERNEL32.dll
 0003:00000088       __imp__LoadLibraryA@4      0059d088     kernel32:KERNEL32.dll
 0003:0000008c       __imp__FormatMessageA@28   0059d08c     kernel32:KERNEL32.dll
 0003:00000090       __imp__GetModuleHandleA@4  0059d090     kernel32:KERNEL32.dll
 0003:00000094       __imp__GetProcAddress@8    0059d094     kernel32:KERNEL32.dll
 0003:00000098       __imp__SetConsoleCtrlHandler@8 0059d098     kernel32:KERNEL32.dll
 0003:0000009c       __imp__GetACP@0            0059d09c     kernel32:KERNEL32.dll
 0003:000000a0       __imp__GetCommandLineA@0   0059d0a0     kernel32:KERNEL32.dll
 0003:000000a4       __imp__SetErrorMode@4      0059d0a4     kernel32:KERNEL32.dll
 0003:000000a8       __imp__IsDebuggerPresent@0 0059d0a8     kernel32:KERNEL32.dll
 0003:000000ac       __imp__GetStdHandle@4      0059d0ac     kernel32:KERNEL32.dll
 0003:000000b0       __imp__GetCurrentThreadId@0 0059d0b0     kernel32:KERNEL32.dll
 0003:000000b4       __imp__ReleaseMutex@4      0059d0b4     kernel32:KERNEL32.dll
 0003:000000b8       __imp__CreateMutexA@12     0059d0b8     kernel32:KERNEL32.dll
 0003:000000bc       __imp__FileTimeToLocalFileTime@8 0059d0bc     kernel32:KERNEL32.dll
 0003:000000c0       __imp__SystemTimeToFileTime@8 0059d0c0     kernel32:KERNEL32.dll
 0003:000000c4       __imp__GetCurrentProcess@0 0059d0c4     kernel32:KERNEL32.dll
 0003:000000c8       __imp__GetProcessTimes@20  0059d0c8     kernel32:KERNEL32.dll
 0003:000000cc       __imp__GetLocalTime@4      0059d0cc     kernel32:KERNEL32.dll
 0003:000000d0       __imp__GetSystemTimeAsFileTime@4 0059d0d0     kernel32:KERNEL32.dll
 0003:000000d4       __imp__VirtualFree@12      0059d0d4     kernel32:KERNEL32.dll
 0003:000000d8       __imp__VirtualAlloc@16     0059d0d8     kernel32:KERNEL32.dll
 0003:000000dc       __imp__SetEndOfFile@4      0059d0dc     kernel32:KERNEL32.dll
 0003:000000e0       __imp__GetFileType@4       0059d0e0     kernel32:KERNEL32.dll
 0003:000000e4       __imp__WriteFile@20        0059d0e4     kernel32:KERNEL32.dll
 0003:000000e8       __imp__SetFilePointer@16   0059d0e8     kernel32:KERNEL32.dll
 0003:000000ec       __imp__EnterCriticalSection@4 0059d0ec     kernel32:KERNEL32.dll
 0003:000000f0       __imp__LeaveCriticalSection@4 0059d0f0     kernel32:KERNEL32.dll
 0003:000000f4       __imp__GetFileAttributesExA@12 0059d0f4     kernel32:KERNEL32.dll
 0003:000000f8       __imp__GetFileSize@8       0059d0f8     kernel32:KERNEL32.dll
 0003:000000fc       __imp__GetFileAttributesA@4 0059d0fc     kernel32:KERNEL32.dll
 0003:00000100       __imp__GetLastError@0      0059d100     kernel32:KERNEL32.dll
 0003:00000104       __imp__WaitForSingleObject@8 0059d104     kernel32:KERNEL32.dll
 0003:00000108       __imp__TlsAlloc@0          0059d108     kernel32:KERNEL32.dll
 0003:0000010c       __imp__SetLastError@4      0059d10c     kernel32:KERNEL32.dll
 0003:00000110       __imp__TlsFree@4           0059d110     kernel32:KERNEL32.dll
 0003:00000114       __imp__TlsGetValue@4       0059d114     kernel32:KERNEL32.dll
 0003:00000118       __imp__TlsSetValue@8       0059d118     kernel32:KERNEL32.dll
 0003:0000011c       __imp__CloseHandle@4       0059d11c     kernel32:KERNEL32.dll
 0003:00000120       __imp__InterlockedExchange@8 0059d120     kernel32:KERNEL32.dll
 0003:00000124       __imp__Sleep@4             0059d124     kernel32:KERNEL32.dll
 0003:00000128       __imp__GetUserDefaultLangID@0 0059d128     kernel32:KERNEL32.dll
 0003:0000012c       \177KERNEL32_NULL_THUNK_DATA 0059d12c     kernel32:KERNEL32.dll
 0003:00000130       __imp___snprintf           0059d130     MSVCRT:MSVCR120.dll
 0003:00000134       __imp__strcpy              0059d134     MSVCRT:MSVCR120.dll
 0003:00000138       __imp___splitpath          0059d138     MSVCRT:MSVCR120.dll
 0003:0000013c       __imp__printf              0059d13c     MSVCRT:MSVCR120.dll
 0003:00000140       __imp__memcmp              0059d140     MSVCRT:MSVCR120.dll
 0003:00000144       __imp___except_handler3    0059d144     MSVCRT:MSVCR120.dll
 0003:00000148       __imp___open               0059d148     MSVCRT:MSVCR120.dll
 0003:0000014c       __imp___close              0059d14c     MSVCRT:MSVCR120.dll
 0003:00000150       __imp__strcat              0059d150     MSVCRT:MSVCR120.dll
 0003:00000154       __imp___read               0059d154     MSVCRT:MSVCR120.dll
 0003:00000158       __imp__calloc              0059d158     MSVCRT:MSVCR120.dll
 0003:0000015c       __imp___XcptFilter         0059d15c     MSVCRT:MSVCR120.dll
 0003:00000160       __imp___amsg_exit          0059d160     MSVCRT:MSVCR120.dll
 0003:00000164       __imp____getmainargs       0059d164     MSVCRT:MSVCR120.dll
 0003:00000168       __imp____set_app_type      0059d168     MSVCRT:MSVCR120.dll
 0003:0000016c       __imp___exit               0059d16c     MSVCRT:MSVCR120.dll
 0003:00000170       __imp___cexit              0059d170     MSVCRT:MSVCR120.dll
 0003:00000174       __imp___configthreadlocale 0059d174     MSVCRT:MSVCR120.dll
 0003:00000178       __imp____setusermatherr    0059d178     MSVCRT:MSVCR120.dll
 0003:0000017c       __imp___fpieee_flt         0059d17c     MSVCRT:MSVCR120.dll
 0003:00000180       __imp___initterm           0059d180     MSVCRT:MSVCR120.dll
 0003:00000184       __imp____initenv           0059d184     MSVCRT:MSVCR120.dll
 0003:00000188       __imp___fmode              0059d188     MSVCRT:MSVCR120.dll
 0003:0000018c       __imp___commode            0059d18c     MSVCRT:MSVCR120.dll
 0003:00000190       __imp___lock               0059d190     MSVCRT:MSVCR120.dll
 0003:00000194       __imp___unlock             0059d194     MSVCRT:MSVCR120.dll
 0003:00000198       __imp___calloc_crt         0059d198     MSVCRT:MSVCR120.dll
 0003:0000019c       __imp____dllonexit         0059d19c     MSVCRT:MSVCR120.dll
 0003:000001a0       __imp___onexit             0059d1a0     MSVCRT:MSVCR120.dll
 0003:000001a4       __imp___crt_debugger_hook  0059d1a4     MSVCRT:MSVCR120.dll
 0003:000001a8       __imp____crtUnhandledException 0059d1a8     MSVCRT:MSVCR120.dll
 0003:000001ac       __imp____crtTerminateProcess 0059d1ac     MSVCRT:MSVCR120.dll
 0003:000001b0       __imp_?terminate@@YAXXZ    0059d1b0     MSVCRT:MSVCR120.dll
 0003:000001b4       __imp____crtSetUnhandledExceptionFilter 0059d1b4     MSVCRT:MSVCR120.dll
 0003:000001b8       __imp___invoke_watson      0059d1b8     MSVCRT:MSVCR120.dll
 0003:000001bc       __imp___except_handler4_common 0059d1bc     MSVCRT:MSVCR120.dll
 0003:000001c0       __imp__memset              0059d1c0     MSVCRT:MSVCR120.dll
 0003:000001c4       __imp__strncat             0059d1c4     MSVCRT:MSVCR120.dll
 0003:000001c8       __imp__strlen              0059d1c8     MSVCRT:MSVCR120.dll
 0003:000001cc       __imp___getpid             0059d1cc     MSVCRT:MSVCR120.dll
 0003:000001d0       __imp__rand                0059d1d0     MSVCRT:MSVCR120.dll
 0003:000001d4       __imp__sscanf              0059d1d4     MSVCRT:MSVCR120.dll
 0003:000001d8       __imp__isdigit             0059d1d8     MSVCRT:MSVCR120.dll
 0003:000001dc       __imp__tolower             0059d1dc     MSVCRT:MSVCR120.dll
 0003:000001e0       __imp___write              0059d1e0     MSVCRT:MSVCR120.dll
 0003:000001e4       __imp___errno              0059d1e4     MSVCRT:MSVCR120.dll
 0003:000001e8       __imp___access             0059d1e8     MSVCRT:MSVCR120.dll
 0003:000001ec       __imp___fileno             0059d1ec     MSVCRT:MSVCR120.dll
 0003:000001f0       __imp___open_osfhandle     0059d1f0     MSVCRT:MSVCR120.dll
 0003:000001f4       __imp___get_osfhandle      0059d1f4     MSVCRT:MSVCR120.dll
 0003:000001f8       __imp__atoi                0059d1f8     MSVCRT:MSVCR120.dll
 0003:000001fc       __imp__strtok              0059d1fc     MSVCRT:MSVCR120.dll
 0003:00000200       __imp__getenv_s            0059d200     MSVCRT:MSVCR120.dll
 0003:00000204       __imp__strerror            0059d204     MSVCRT:MSVCR120.dll
 0003:00000208       __imp__fflush              0059d208     MSVCRT:MSVCR120.dll
 0003:0000020c       __imp__fclose              0059d20c     MSVCRT:MSVCR120.dll
 0003:00000210       __imp__fputs               0059d210     MSVCRT:MSVCR120.dll
 0003:00000214       __imp__fopen               0059d214     MSVCRT:MSVCR120.dll
 0003:00000218       __imp__abort               0059d218     MSVCRT:MSVCR120.dll
 0003:0000021c       __imp__fprintf             0059d21c     MSVCRT:MSVCR120.dll
 0003:00000220       __imp__freopen             0059d220     MSVCRT:MSVCR120.dll
 0003:00000224       __imp____iob_func          0059d224     MSVCRT:MSVCR120.dll
 0003:00000228       __imp__vsprintf            0059d228     MSVCRT:MSVCR120.dll
 0003:0000022c       __imp___clearfp            0059d22c     MSVCRT:MSVCR120.dll
 0003:00000230       __imp___controlfp_s        0059d230     MSVCRT:MSVCR120.dll
 0003:00000234       __imp___gmtime64           0059d234     MSVCRT:MSVCR120.dll
 0003:00000238       __imp__strftime            0059d238     MSVCRT:MSVCR120.dll
 0003:0000023c       __imp___localtime64        0059d23c     MSVCRT:MSVCR120.dll
 0003:00000240       __imp__atol                0059d240     MSVCRT:MSVCR120.dll
 0003:00000244       __imp__clock               0059d244     MSVCRT:MSVCR120.dll
 0003:00000248       __imp___aligned_free       0059d248     MSVCRT:MSVCR120.dll
 0003:0000024c       __imp___aligned_malloc     0059d24c     MSVCRT:MSVCR120.dll
 0003:00000250       __imp__realloc             0059d250     MSVCRT:MSVCR120.dll
 0003:00000254       __imp__free                0059d254     MSVCRT:MSVCR120.dll
 0003:00000258       __imp__malloc              0059d258     MSVCRT:MSVCR120.dll
 0003:0000025c       __imp__exit                0059d25c     MSVCRT:MSVCR120.dll
 0003:00000260       __imp__memchr              0059d260     MSVCRT:MSVCR120.dll
 0003:00000264       __imp__sprintf             0059d264     MSVCRT:MSVCR120.dll
 0003:00000268       __imp__strncpy             0059d268     MSVCRT:MSVCR120.dll
 0003:0000026c       __imp__strncmp             0059d26c     MSVCRT:MSVCR120.dll
 0003:00000270       __imp__toupper             0059d270     MSVCRT:MSVCR120.dll
 0003:00000274       __imp__strstr              0059d274     MSVCRT:MSVCR120.dll
 0003:00000278       __imp__strchr              0059d278     MSVCRT:MSVCR120.dll
 0003:0000027c       __imp__getenv              0059d27c     MSVCRT:MSVCR120.dll
 0003:00000280       __imp___stricmp            0059d280     MSVCRT:MSVCR120.dll
 0003:00000284       __imp__signal              0059d284     MSVCRT:MSVCR120.dll
 0003:00000288       __imp__memmove             0059d288     MSVCRT:MSVCR120.dll
 0003:0000028c       __imp__memcpy              0059d28c     MSVCRT:MSVCR120.dll
 0003:00000290       __imp___lseeki64           0059d290     MSVCRT:MSVCR120.dll
 0003:00000294       __imp___initterm_e         0059d294     MSVCRT:MSVCR120.dll
 0003:00000298       \177MSVCR120_NULL_THUNK_DATA 0059d298     MSVCRT:MSVCR120.dll
 0003:0000029c       __imp__SymInitialize@12    0059d29c     ImageHlp:imagehlp.dll
 0003:000002a0       __imp__SymCleanup@4        0059d2a0     ImageHlp:imagehlp.dll
 0003:000002a4       __imp__StackWalk64@36      0059d2a4     ImageHlp:imagehlp.dll
 0003:000002a8       \177imagehlp_NULL_THUNK_DATA 0059d2a8     ImageHlp:imagehlp.dll
 0003:000002ac       __imp____kmpc_atomic_float4_add 0059d2ac     libiomp5md:libiomp5md.dll
 0003:000002b0       __imp____kmpc_atomic_float4_min 0059d2b0     libiomp5md:libiomp5md.dll
 0003:000002b4       __imp____kmpc_atomic_float4_max 0059d2b4     libiomp5md:libiomp5md.dll
 0003:000002b8       __imp____kmpc_dispatch_next_4 0059d2b8     libiomp5md:libiomp5md.dll
 0003:000002bc       __imp____kmpc_dispatch_init_4 0059d2bc     libiomp5md:libiomp5md.dll
 0003:000002c0       __imp____kmpc_atomic_fixed4_add 0059d2c0     libiomp5md:libiomp5md.dll
 0003:000002c4       __imp____kmpc_atomic_float8_add 0059d2c4     libiomp5md:libiomp5md.dll
 0003:000002c8       __imp____kmpc_end_reduce_nowait 0059d2c8     libiomp5md:libiomp5md.dll
 0003:000002cc       __imp____kmpc_reduce_nowait 0059d2cc     libiomp5md:libiomp5md.dll
 0003:000002d0       __imp____kmpc_for_static_fini 0059d2d0     libiomp5md:libiomp5md.dll
 0003:000002d4       __imp____kmpc_for_static_init_4 0059d2d4     libiomp5md:libiomp5md.dll
 0003:000002d8       __imp____kmpc_end_serialized_parallel 0059d2d8     libiomp5md:libiomp5md.dll
 0003:000002dc       __imp____kmpc_serialized_parallel 0059d2dc     libiomp5md:libiomp5md.dll
 0003:000002e0       __imp____kmpc_fork_call    0059d2e0     libiomp5md:libiomp5md.dll
 0003:000002e4       __imp____kmpc_ok_to_fork   0059d2e4     libiomp5md:libiomp5md.dll
 0003:000002e8       __imp____kmpc_global_thread_num 0059d2e8     libiomp5md:libiomp5md.dll
 0003:000002ec       __imp__omp_get_max_threads 0059d2ec     libiomp5md:libiomp5md.dll
 0003:000002f0       \177libiomp5md_NULL_THUNK_DATA 0059d2f0     libiomp5md:libiomp5md.dll
 0003:000002f4       ___xc_a                    0059d2f4     MSVCRT:cinitexe.obj
 0003:000002fc       ___for_init_proc           0059d2fc     libifcoremt:for_init.obj
 0003:00000304       ___xc_z                    0059d304     MSVCRT:cinitexe.obj
 0003:00000308       ___xi_a                    0059d308     MSVCRT:cinitexe.obj
 0003:00000318       ___xi_z                    0059d318     MSVCRT:cinitexe.obj
 0003:00005ff8       ??_C@_0N@A@for_f90str?4c?$AA@ 005a2ff8     libifcoremt:for_f90str.obj
 0003:00006108       ??_C@_07A@unknown?$AA@     005a3108     libifcoremt:for_inquire.obj
 0003:00006110       ??_C@_07A@FORTRAN?$AA@     005a3110     libifcoremt:for_inquire.obj
 0003:00006118       ??_C@_04A@LIST?$AA@        005a3118     libifcoremt:for_inquire.obj
 0003:00006120       ??_C@_04A@NONE?$AA@        005a3120     libifcoremt:for_inquire.obj
 0003:00006128       ??_C@_09A@UNDEFINED?$AA@   005a3128     libifcoremt:for_inquire.obj
 0003:00006134       ??_C@_07A@UNKNOWN?$AA@     005a3134     libifcoremt:for_inquire.obj
 0003:0000613c       ??_C@_03A@YES?$AA@         005a313c     libifcoremt:for_inquire.obj
 0003:00006140       ??_C@_02A@NO?$AA@          005a3140     libifcoremt:for_inquire.obj
 0003:00006144       ??_C@_0O@A@for_inquire?4c?$AA@ 005a3144     libifcoremt:for_inquire.obj
 0003:00006154       ??_C@_0L@A@SEQUENTIAL?$AA@ 005a3154     libifcoremt:for_inquire.obj
 0003:00006160       ??_C@_08A@RELATIVE?$AA@    005a3160     libifcoremt:for_inquire.obj
 0003:0000616c       ??_C@_07A@INDEXED?$AA@     005a316c     libifcoremt:for_inquire.obj
 0003:00006174       ??_C@_05A@FIXED?$AA@       005a3174     libifcoremt:for_inquire.obj
 0003:0000617c       ??_C@_06A@STREAM?$AA@      005a317c     libifcoremt:for_inquire.obj
 0003:00006184       ??_C@_09A@STREAM_LF?$AA@   005a3184     libifcoremt:for_inquire.obj
 0003:00006190       ??_C@_09A@STREAM_CR?$AA@   005a3190     libifcoremt:for_inquire.obj
 0003:0000619c       ??_C@_0M@A@STREAM_CRLF?$AA@ 005a319c     libifcoremt:for_inquire.obj
 0003:000061a8       ??_C@_08A@VARIABLE?$AA@    005a31a8     libifcoremt:for_inquire.obj
 0003:000061b4       ??_C@_09A@SEGMENTED?$AA@   005a31b4     libifcoremt:for_inquire.obj
 0003:000061c0       ??_C@_04A@READ?$AA@        005a31c0     libifcoremt:for_inquire.obj
 0003:000061c8       ??_C@_05A@WRITE?$AA@       005a31c8     libifcoremt:for_inquire.obj
 0003:000061d0       ??_C@_09A@READWRITE?$AA@   005a31d0     libifcoremt:for_inquire.obj
 0003:000061dc       ??_C@_0L@A@APOSTROPHE?$AA@ 005a31dc     libifcoremt:for_inquire.obj
 0003:000061e8       ??_C@_05A@QUOTE?$AA@       005a31e8     libifcoremt:for_inquire.obj
 0003:000061f0       ??_C@_06A@REWIND?$AA@      005a31f0     libifcoremt:for_inquire.obj
 0003:000061f8       ??_C@_04A@ASIS?$AA@        005a31f8     libifcoremt:for_inquire.obj
 0003:00006200       ??_C@_06A@APPEND?$AA@      005a3200     libifcoremt:for_inquire.obj
 0003:00006208       ??_C@_06A@DIRECT?$AA@      005a3208     libifcoremt:for_inquire.obj
 0003:00006210       ??_C@_05A@KEYED?$AA@       005a3210     libifcoremt:for_inquire.obj
 0003:00006218       ??_C@_04A@NULL?$AA@        005a3218     libifcoremt:for_inquire.obj
 0003:00006220       ??_C@_04A@ZERO?$AA@        005a3220     libifcoremt:for_inquire.obj
 0003:00006228       ??_C@_09A@FORMATTED?$AA@   005a3228     libifcoremt:for_inquire.obj
 0003:00006234       ??_C@_06A@BINARY?$AA@      005a3234     libifcoremt:for_inquire.obj
 0003:0000623c       ??_C@_0M@A@UNFORMATTED?$AA@ 005a323c     libifcoremt:for_inquire.obj
 0003:00006248       ??_C@_02A@UP?$AA@          005a3248     libifcoremt:for_inquire.obj
 0003:0000624c       ??_C@_04A@DOWN?$AA@        005a324c     libifcoremt:for_inquire.obj
 0003:00006254       ??_C@_07A@NEAREST?$AA@     005a3254     libifcoremt:for_inquire.obj
 0003:0000625c       ??_C@_0L@A@COMPATIBLE?$AA@ 005a325c     libifcoremt:for_inquire.obj
 0003:00006268       ??_C@_0BC@A@PROCESSOR_DEFINED?$AA@ 005a3268     libifcoremt:for_inquire.obj
 0003:0000627c       ??_C@_05A@POINT?$AA@       005a327c     libifcoremt:for_inquire.obj
 0003:00006284       ??_C@_05A@COMMA?$AA@       005a3284     libifcoremt:for_inquire.obj
 0003:0000628c       ??_C@_04A@PLUS?$AA@        005a328c     libifcoremt:for_inquire.obj
 0003:00006294       ??_C@_08A@SUPPRESS?$AA@    005a3294     libifcoremt:for_inquire.obj
 0003:000062a0       ??_C@_05A@UTF?98?$AA@      005a32a0     libifcoremt:for_inquire.obj
 0003:00006af0       ??_C@_0N@A@F_UFMTENDIAN?$AA@ 005a3af0     libifcoremt:for_open.obj
 0003:00006b00       ??_C@_0BD@A@FOR_FMT_TERMINATOR?$AA@ 005a3b00     libifcoremt:for_open.obj
 0003:00006b14       ??_C@_06A@little?$AA@      005a3b14     libifcoremt:for_open.obj
 0003:00006b1c       ??_C@_03A@big?$AA@         005a3b1c     libifcoremt:for_open.obj
 0003:00006b20       ??_C@_07A@little?$DL?$AA@  005a3b20     libifcoremt:for_open.obj
 0003:00006b28       ??_C@_04A@big?$DL?$AA@     005a3b28     libifcoremt:for_open.obj
 0003:00006b30       ??_C@_07A@little?3?$AA@    005a3b30     libifcoremt:for_open.obj
 0003:00006b38       ??_C@_04A@big?3?$AA@       005a3b38     libifcoremt:for_open.obj
 0003:00006b40       ??_C@_04A@CRLF?$AA@        005a3b40     libifcoremt:for_open.obj
 0003:00006b48       ??_C@_02A@LF?$AA@          005a3b48     libifcoremt:for_open.obj
 0003:00006b4c       ??_C@_02A@CR?$AA@          005a3b4c     libifcoremt:for_open.obj
 0003:00006b50       ??_C@_05A@CRLF?$DL?$AA@    005a3b50     libifcoremt:for_open.obj
 0003:00006b58       ??_C@_03A@LF?$DL?$AA@      005a3b58     libifcoremt:for_open.obj
 0003:00006b5c       ??_C@_03A@CR?$DL?$AA@      005a3b5c     libifcoremt:for_open.obj
 0003:00006b60       ??_C@_05A@CRLF?3?$AA@      005a3b60     libifcoremt:for_open.obj
 0003:00006b68       ??_C@_03A@LF?3?$AA@        005a3b68     libifcoremt:for_open.obj
 0003:00006b6c       ??_C@_03A@CR?3?$AA@        005a3b6c     libifcoremt:for_open.obj
 0003:00006b70       ??_C@_0L@A@for_open?4c?$AA@ 005a3b70     libifcoremt:for_open.obj
 0003:00006b7c       ??_C@_08A@FOR_TYPE?$AA@    005a3b7c     libifcoremt:for_open.obj
 0003:00006b88       ??_C@_09A@FOR_PRINT?$AA@   005a3b88     libifcoremt:for_open.obj
 0003:00006b94       ??_C@_0L@A@FOR_ACCEPT?$AA@ 005a3b94     libifcoremt:for_open.obj
 0003:00006ba0       ??_C@_08A@FOR_READ?$AA@    005a3ba0     libifcoremt:for_open.obj
 0003:00006bac       ??_C@_04A@SAVE?$AA@        005a3bac     libifcoremt:for_open.obj
 0003:00006bb4       ??_C@_04A@KEEP?$AA@        005a3bb4     libifcoremt:for_open.obj
 0003:00006bbc       ??_C@_06A@DELETE?$AA@      005a3bbc     libifcoremt:for_open.obj
 0003:00006bc4       ??_C@_05A@PRINT?$AA@       005a3bc4     libifcoremt:for_open.obj
 0003:00006bcc       ??_C@_06A@SUBMIT?$AA@      005a3bcc     libifcoremt:for_open.obj
 0003:00006bd4       ??_C@_0N@A@PRINT?1DELETE?$AA@ 005a3bd4     libifcoremt:for_open.obj
 0003:00006be4       ??_C@_0O@A@SUBMIT?1DELETE?$AA@ 005a3be4     libifcoremt:for_open.obj
 0003:00006bf4       ??_C@_03A@OLD?$AA@         005a3bf4     libifcoremt:for_open.obj
 0003:00006bf8       ??_C@_03A@NEW?$AA@         005a3bf8     libifcoremt:for_open.obj
 0003:00006bfc       ??_C@_07A@SCRATCH?$AA@     005a3bfc     libifcoremt:for_open.obj
 0003:00006c04       ??_C@_07A@REPLACE?$AA@     005a3c04     libifcoremt:for_open.obj
 0003:00006c0c       ??_C@_0L@A@BIG_ENDIAN?$AA@ 005a3c0c     libifcoremt:for_open.obj
 0003:00006c18       ??_C@_0O@A@LITTLE_ENDIAN?$AA@ 005a3c18     libifcoremt:for_open.obj
 0003:00006c28       ??_C@_04A@VAXD?$AA@        005a3c28     libifcoremt:for_open.obj
 0003:00006c30       ??_C@_04A@VAXG?$AA@        005a3c30     libifcoremt:for_open.obj
 0003:00006c38       ??_C@_04A@CRAY?$AA@        005a3c38     libifcoremt:for_open.obj
 0003:00006c40       ??_C@_03A@IBM?$AA@         005a3c40     libifcoremt:for_open.obj
 0003:00006c44       ??_C@_03A@FDX?$AA@         005a3c44     libifcoremt:for_open.obj
 0003:00006c48       ??_C@_03A@FGX?$AA@         005a3c48     libifcoremt:for_open.obj
 0003:00006c4c       ??_C@_06A@NATIVE?$AA@      005a3c4c     libifcoremt:for_open.obj
 0003:00006c54       ??_C@_06A@COMPAT?$AA@      005a3c54     libifcoremt:for_open.obj
 0003:00006c5c       ??_C@_08A@DENYNONE?$AA@    005a3c5c     libifcoremt:for_open.obj
 0003:00006c68       ??_C@_06A@DENYRD?$AA@      005a3c68     libifcoremt:for_open.obj
 0003:00006c70       ??_C@_06A@DENYRW?$AA@      005a3c70     libifcoremt:for_open.obj
 0003:00006c78       ??_C@_06A@DENYWR?$AA@      005a3c78     libifcoremt:for_open.obj
 0003:00006c80       ??_C@_07A@DEFAULT?$AA@     005a3c80     libifcoremt:for_open.obj
 0003:00006c88       ??_C@_07A@ACCESS?$DN?$AA@  005a3c88     libifcoremt:for_open.obj
 0003:00006c90       ??_C@_07A@ACTION?$DN?$AA@  005a3c90     libifcoremt:for_open.obj
 0003:00006c98       ??_C@_0BD@A@ASSOCIATEVARIABLE?$DN?$AA@ 005a3c98     libifcoremt:for_open.obj
 0003:00006cac       ??_C@_0O@A@ASYNCHRONOUS?$DN?$AA@ 005a3cac     libifcoremt:for_open.obj
 0003:00006cbc       ??_C@_09A@BUFFERED?$DN?$AA@ 005a3cbc     libifcoremt:for_open.obj
 0003:00006cc8       ??_C@_08A@DISPOSE?$DN?$AA@ 005a3cc8     libifcoremt:for_open.obj
 0003:00006cd4       ??_C@_05A@FORM?$DN?$AA@    005a3cd4     libifcoremt:for_open.obj
 0003:00006cdc       ??_C@_08A@IOFOCUS?$DN?$AA@ 005a3cdc     libifcoremt:for_open.obj
 0003:00006ce8       ??_C@_07A@MAXREC?$DN?$AA@  005a3ce8     libifcoremt:for_open.obj
 0003:00006cf0       ??_C@_05A@MODE?$DN?$AA@    005a3cf0     libifcoremt:for_open.obj
 0003:00006cf8       ??_C@_08A@NOSHARED?$AA@    005a3cf8     libifcoremt:for_open.obj
 0003:00006d04       ??_C@_0O@A@ORGANIZATION?$DN?$AA@ 005a3d04     libifcoremt:for_open.obj
 0003:00006d14       ??_C@_09A@POSITION?$DN?$AA@ 005a3d14     libifcoremt:for_open.obj
 0003:00006d20       ??_C@_08A@READONLY?$AA@    005a3d20     libifcoremt:for_open.obj
 0003:00006d2c       ??_C@_05A@RECL?$DN?$AA@    005a3d2c     libifcoremt:for_open.obj
 0003:00006d34       ??_C@_0M@A@RECORDTYPE?$DN?$AA@ 005a3d34     libifcoremt:for_open.obj
 0003:00006d40       ??_C@_06A@SHARE?$DN?$AA@   005a3d40     libifcoremt:for_open.obj
 0003:00006d48       ??_C@_06A@SHARED?$AA@      005a3d48     libifcoremt:for_open.obj
 0003:00006d50       ??_C@_07A@STATUS?$DN?$AA@  005a3d50     libifcoremt:for_open.obj
 0003:00006d58       ??_C@_06A@TITLE?$DN?$AA@   005a3d58     libifcoremt:for_open.obj
 0003:00006d60       ??_C@_0P@A@FORT_CONVERT?$CFd?$AA@ 005a3d60     libifcoremt:for_open.obj
 0003:00006d70       ??_C@_06A@CONIN$?$AA@      005a3d70     libifcoremt:for_open.obj
 0003:00006d78       ??_C@_07A@CONOUT$?$AA@     005a3d78     libifcoremt:for_open.obj
 0003:00006e50       ??_C@_0P@A@for_rseq_fmt?4c?$AA@ 005a3e50     libifcoremt:for_rseq_fmt.obj
 0003:00006e60       ??_C@_02A@DT?$AA@          005a3e60     libifcoremt:for_rseq_fmt.obj
 0003:00006e74       ??_C@_0L@A@for_stop?4c?$AA@ 005a3e74     libifcoremt:for_stop.obj
 0003:00006e80       ??_C@_05A@ABORT?$AA@       005a3e80     libifcoremt:for_stop.obj
 0003:00006e88       ??_C@_0N@A@STOP?5message?$AA@ 005a3e88     libifcoremt:for_stop.obj
 0003:00006f34       ??_C@_0P@A@for_wseq_fmt?4c?$AA@ 005a3f34     libifcoremt:for_wseq_fmt.obj
 0003:000071ec       ??_C@_0P@A@for_wseq_lis?4c?$AA@ 005a41ec     libifcoremt:for_wseq_lis.obj
 0003:000071fc       ??_C@_0L@A@for_rseq?4c?$AA@ 005a41fc     libifcoremt:for_rseq.obj
 0003:00007274       ??_C@_0L@A@for_wseq?4c?$AA@ 005a4274     libifcoremt:for_wseq.obj
 0003:00007304       ??_C@_0P@A@for_wint_fmt?4c?$AA@ 005a4304     libifcoremt:for_wint_fmt.obj
 0003:00007314       ??_C@_0CD@A@Internal?5Formatted?5Write?5or?5ENCODE?$AA@ 005a4314     libifcoremt:for_wint_fmt.obj
 0003:00007338       ??_C@_06A@ENCODE?$AA@      005a4338     libifcoremt:for_wint_fmt.obj
 0003:00007340       ??_C@_0BJ@A@Internal?5Formatted?5Write?$AA@ 005a4340     libifcoremt:for_wint_fmt.obj
 0003:000075f8       ??_C@_0P@A@for_rseq_lis?4c?$AA@ 005a45f8     libifcoremt:for_rseq_lis.obj
 0003:00007608       ??_C@_08A@INFINITY?$AA@    005a4608     libifcoremt:for_rseq_lis.obj
 0003:00007614       ??_C@_03A@NAN?$AA@         005a4614     libifcoremt:for_rseq_lis.obj
 0003:000076e0       ??_C@_05A@?$CFI64d?$AA@    005a46e0     libifcoremt:for_90_date.obj
 0003:000076e8       ??_C@_06A@?$CFY?$CFm?$CFd?$AA@ 005a46e8     libifcoremt:for_90_date.obj
 0003:000076f0       ??_C@_07A@?$CFH?$CFM?$CFS?4?$AA@ 005a46f0     libifcoremt:for_90_date.obj
 0003:000076f8       ??_C@_08A@?$CF3?43I64d?$AA@ 005a46f8     libifcoremt:for_90_date.obj
 0003:00007704       ??_C@_0N@A@?$CFc?$CF2?42d?$CF2?42d?$AA@ 005a4704     libifcoremt:for_90_date.obj
 0003:00007770       ??_C@_0O@A@for_lub_mgt?4c?$AA@ 005a4770     libifcoremt:for_lub_mgt.obj
 0003:000077e0       ??_C@_03A@CON?$AA@         005a47e0     libifcoremt:for_need_lf.obj
 0003:000078ec       ??_C@_0M@A@libicaf?4dll?$AA@ 005a48ec     libifcoremt:for_init.obj
 0003:000078f8       ??_C@_0BC@A@for_rtl_ICAF_INIT?$AA@ 005a48f8     libifcoremt:for_init.obj
 0003:0000790c       ??_C@_0BE@A@FOR_NOERROR_DIALOGS?$AA@ 005a490c     libifcoremt:for_init.obj
 0003:00007920       ??_C@_09A@control?9C?$AA@  005a4920     libifcoremt:for_init.obj
 0003:0000792c       ??_C@_0O@A@control?9BREAK?$AA@ 005a492c     libifcoremt:for_init.obj
 0003:0000793c       ??_C@_0N@A@window?9CLOSE?$AA@ 005a493c     libifcoremt:for_init.obj
 0003:0000794c       ??_C@_0BG@A@FOR_IGNORE_EXCEPTIONS?$AA@ 005a494c     libifcoremt:for_init.obj
 0003:00007964       ??_C@_0BJ@A@FOR__IS_DEBUGGER_PRESENT?$AA@ 005a4964     libifcoremt:for_init.obj
 0003:00007990       ??_C@_0CB@A@operation?5completed?5successfully?$AA@ 005a4990     libifcoremt:for_diags_intel.obj
 0003:000079b4       ??_C@_0BN@A@not?5a?5FORTRAN?5specific?5error?$AA@ 005a49b4     libifcoremt:for_diags_intel.obj
 0003:000079d4       ??_C@_0BA@A@not?5implemented?$AA@ 005a49d4     libifcoremt:for_diags_intel.obj
 0003:000079e4       ??_C@_0BO@A@ignored?5requested?5disposition?$AA@ 005a49e4     libifcoremt:for_diags_intel.obj
 0003:00007a04       ??_C@_0DA@A@ignored?5requested?5disposition?0?5file?5not?5deleted?$AA@ 005a4a04     libifcoremt:for_diags_intel.obj
 0003:00007a40       ??_C@_0ED@A@requested?5disposition?5modified?0?5file?5not?5deleted?0?5unit?5?$CFd?0?5file?5?$CFs?$AA@ 005a4a40     libifcoremt:for_diags_intel.obj
 0003:00007aa0       ??_C@_0DN@A@?$EA?$CI?$CD?$CJIntel?5Fortran?5RTL?5Message?5Catalog?7V15?40?9101?5June?524?52014?$AA@ 005a4aa0     libifcoremt:for_diags_intel.obj
 0003:00007ae0       ??_C@_0DF@A@internal?5consistency?5check?5failure?0?5file?5?$CFs?0?5line?5?$CFd?$AA@ 005a4ae0     libifcoremt:for_diags_intel.obj
 0003:00007b18       ??_C@_0DD@A@permission?5to?5access?5file?5denied?0?5unit?5?$CFd?0?5file?5?$CFs?$AA@ 005a4b18     libifcoremt:for_diags_intel.obj
 0003:00007b4c       ??_C@_0DB@A@cannot?5overwrite?5existing?5file?0?5unit?5?$CFd?0?5file?5?$CFs?$AA@ 005a4b4c     libifcoremt:for_diags_intel.obj
 0003:00007b80       ??_C@_0BD@A@unit?5not?5connected?$AA@ 005a4b80     libifcoremt:for_diags_intel.obj
 0003:00007b94       ??_C@_0DD@A@SOURCE?5length?5?$CFd?5does?5not?5equal?5variable?5length?5?$CFd?$AA@ 005a4b94     libifcoremt:for_diags_intel.obj
 0003:00007bc8       ??_C@_0DB@A@syntax?5error?5in?5NAMELIST?5input?0?5unit?5?$CFd?0?5file?5?$CFs?$AA@ 005a4bc8     libifcoremt:for_diags_intel.obj
 0003:00007bfc       ??_C@_0DI@A@too?5many?5values?5for?5NAMELIST?5variable?0?5unit?5?$CFd?0?5file?5?$CFs?$AA@ 005a4bfc     libifcoremt:for_diags_intel.obj
 0003:00007c40       ??_C@_0EC@A@invalid?5reference?5to?5variable?5in?5NAMELIST?5input?0?5unit?5?$CFd?0?5file?5?$CFs?$AA@ 005a4c40     libifcoremt:for_diags_intel.obj
 0003:00007ca0       ??_C@_0BP@A@REWIND?5error?0?5unit?5?$CFd?0?5file?5?$CFs?$AA@ 005a4ca0     libifcoremt:for_diags_intel.obj
 0003:00007cc0       ??_C@_0DA@A@duplicate?5file?5specifications?0?5unit?5?$CFd?0?5file?5?$CFs?$AA@ 005a4cc0     libifcoremt:for_diags_intel.obj
 0003:00007cf0       ??_C@_0CI@A@input?5record?5too?5long?0?5unit?5?$CFd?0?5file?5?$CFs?$AA@ 005a4cf0     libifcoremt:for_diags_intel.obj
 0003:00007d18       ??_C@_0CC@A@BACKSPACE?5error?0?5unit?5?$CFd?0?5file?5?$CFs?$AA@ 005a4d18     libifcoremt:for_diags_intel.obj
 0003:00007d3c       ??_C@_0CK@A@end?9of?9file?5during?5read?0?5unit?5?$CFd?0?5file?5?$CFs?$AA@ 005a4d3c     libifcoremt:for_diags_intel.obj
 0003:00007d68       ??_C@_0CO@A@record?5number?5outside?5range?0?5unit?5?$CFd?0?5file?5?$CFs?$AA@ 005a4d68     libifcoremt:for_diags_intel.obj
 0003:00007d98       ??_C@_0BN@A@OPEN?5or?5DEFINE?5FILE?5required?$AA@ 005a4d98     libifcoremt:for_diags_intel.obj
 0003:00007db8       ??_C@_0DE@A@too?5many?5records?5in?5I?1O?5statement?0?5unit?5?$CFd?0?5file?5?$CFs?$AA@ 005a4db8     libifcoremt:for_diags_intel.obj
 0003:00007dec       ??_C@_0BO@A@CLOSE?5error?0?5unit?5?$CFd?0?5file?5?$CFs?$AA@ 005a4dec     libifcoremt:for_diags_intel.obj
 0003:00007e0c       ??_C@_0CB@A@file?5not?5found?0?5unit?5?$CFd?0?5file?5?$CFs?$AA@ 005a4e0c     libifcoremt:for_diags_intel.obj
 0003:00007e30       ??_C@_0BP@A@open?5failure?0?5unit?5?$CFd?0?5file?5?$CFs?$AA@ 005a4e30     libifcoremt:for_diags_intel.obj
 0003:00007e50       ??_C@_0CK@A@mixed?5file?5access?5modes?0?5unit?5?$CFd?0?5file?5?$CFs?$AA@ 005a4e50     libifcoremt:for_diags_intel.obj
 0003:00007e7c       ??_C@_0CO@A@invalid?5logical?5unit?5number?0?5unit?5?$CFd?0?5file?5?$CFs?$AA@ 005a4e7c     libifcoremt:for_diags_intel.obj
 0003:00007eac       ??_C@_0CA@A@ENDFILE?5error?0?5unit?5?$CFd?0?5file?5?$CFs?$AA@ 005a4eac     libifcoremt:for_diags_intel.obj
 0003:00007ecc       ??_C@_0CE@A@unit?5already?5open?0?5unit?5?$CFd?0?5file?5?$CFs?$AA@ 005a4ecc     libifcoremt:for_diags_intel.obj
 0003:00007ef0       ??_C@_0DA@A@segmented?5record?5format?5error?0?5unit?5?$CFd?0?5file?5?$CFs?$AA@ 005a4ef0     libifcoremt:for_diags_intel.obj
 0003:00007f20       ??_C@_0DI@A@attempt?5to?5access?5non?9existent?5record?0?5unit?5?$CFd?0?5file?5?$CFs?$AA@ 005a4f20     libifcoremt:for_diags_intel.obj
 0003:00007f58       ??_C@_0CN@A@inconsistent?5record?5length?0?5unit?5?$CFd?0?5file?5?$CFs?$AA@ 005a4f58     libifcoremt:for_diags_intel.obj
 0003:00007f88       ??_C@_0CF@A@error?5during?5write?0?5unit?5?$CFd?0?5file?5?$CFs?$AA@ 005a4f88     libifcoremt:for_diags_intel.obj
 0003:00007fb0       ??_C@_0CE@A@error?5during?5read?0?5unit?5?$CFd?0?5file?5?$CFs?$AA@ 005a4fb0     libifcoremt:for_diags_intel.obj
 0003:00007fd4       ??_C@_0CK@A@recursive?5I?1O?5operation?0?5unit?5?$CFd?0?5file?5?$CFs?$AA@ 005a4fd4     libifcoremt:for_diags_intel.obj
 0003:00008000       ??_C@_0BM@A@insufficient?5virtual?5memory?$AA@ 005a5000     libifcoremt:for_diags_intel.obj
 0003:0000801c       ??_C@_0CB@A@no?5such?5device?0?5unit?5?$CFd?0?5file?5?$CFs?$AA@ 005a501c     libifcoremt:for_diags_intel.obj
 0003:00008040       ??_C@_0DA@A@file?5name?5specification?5error?0?5unit?5?$CFd?0?5file?5?$CFs?$AA@ 005a5040     libifcoremt:for_diags_intel.obj
 0003:00008070       ??_C@_0CL@A@inconsistent?5record?5type?0?5unit?5?$CFd?0?5file?5?$CFs?$AA@ 005a5070     libifcoremt:for_diags_intel.obj
 0003:0000809c       ??_C@_0DI@A@keyword?5value?5error?5in?5OPEN?5statement?0?5unit?5?$CFd?0?5file?5?$CFs?$AA@ 005a509c     libifcoremt:for_diags_intel.obj
 0003:000080d4       ??_C@_0DF@A@inconsistent?5OPEN?1CLOSE?5parameters?0?5unit?5?$CFd?0?5file?5?$CFs?$AA@ 005a50d4     libifcoremt:for_diags_intel.obj
 0003:0000810c       ??_C@_0CJ@A@write?5to?5READONLY?5file?0?5unit?5?$CFd?0?5file?5?$CFs?$AA@ 005a510c     libifcoremt:for_diags_intel.obj
 0003:00008138       ??_C@_0CN@A@invalid?5argument?5to?5FORTRAN?5Run?9Time?5Library?$AA@ 005a5138     libifcoremt:for_diags_intel.obj
 0003:00008168       ??_C@_0CM@A@invalid?5key?5specification?0?5unit?5?$CFd?0?5file?5?$CFs?$AA@ 005a5168     libifcoremt:for_diags_intel.obj
 0003:00008194       ??_C@_0DL@A@inconsistent?5key?5change?5or?5duplicate?5key?0?5unit?5?$CFd?0?5file?5?$CFs?$AA@ 005a5194     libifcoremt:for_diags_intel.obj
 0003:000081d0       ??_C@_0DB@A@inconsistent?5file?5organization?0?5unit?5?$CFd?0?5file?5?$CFs?$AA@ 005a51d0     libifcoremt:for_diags_intel.obj
 0003:00008204       ??_C@_0CK@A@specified?5record?5locked?0?5unit?5?$CFd?0?5file?5?$CFs?$AA@ 005a5204     libifcoremt:for_diags_intel.obj
 0003:00008230       ??_C@_0CE@A@no?5current?5record?0?5unit?5?$CFd?0?5file?5?$CFs?$AA@ 005a5230     libifcoremt:for_diags_intel.obj
 0003:00008254       ??_C@_0CA@A@REWRITE?5error?0?5unit?5?$CFd?0?5file?5?$CFs?$AA@ 005a5254     libifcoremt:for_diags_intel.obj
 0003:00008274       ??_C@_0BP@A@DELETE?5error?0?5unit?5?$CFd?0?5file?5?$CFs?$AA@ 005a5274     libifcoremt:for_diags_intel.obj
 0003:00008294       ??_C@_0BP@A@UNLOCK?5error?0?5unit?5?$CFd?0?5file?5?$CFs?$AA@ 005a5294     libifcoremt:for_diags_intel.obj
 0003:000082b4       ??_C@_0BN@A@FIND?5error?0?5unit?5?$CFd?0?5file?5?$CFs?$AA@ 005a52b4     libifcoremt:for_diags_intel.obj
 0003:000082d4       ??_C@_0CE@A@format?5syntax?5error?5at?5or?5near?5?$CF?4?$CKs?$AA@ 005a52d4     libifcoremt:for_diags_intel.obj
 0003:000082f8       ??_C@_0DB@A@list?9directed?5I?1O?5syntax?5error?0?5unit?5?$CFd?0?5file?5?$CFs?$AA@ 005a52f8     libifcoremt:for_diags_intel.obj
 0003:0000832c       ??_C@_0CH@A@infinite?5format?5loop?0?5unit?5?$CFd?0?5file?5?$CFs?$AA@ 005a532c     libifcoremt:for_diags_intel.obj
 0003:00008354       ??_C@_0DA@A@format?1variable?9type?5mismatch?0?5unit?5?$CFd?0?5file?5?$CFs?$AA@ 005a5354     libifcoremt:for_diags_intel.obj
 0003:00008384       ??_C@_0CJ@A@syntax?5error?5in?5format?0?5unit?5?$CFd?0?5file?5?$CFs?$AA@ 005a5384     libifcoremt:for_diags_intel.obj
 0003:000083b0       ??_C@_0CK@A@output?5conversion?5error?0?5unit?5?$CFd?0?5file?5?$CFs?$AA@ 005a53b0     libifcoremt:for_diags_intel.obj
 0003:000083dc       ??_C@_0CJ@A@input?5conversion?5error?0?5unit?5?$CFd?0?5file?5?$CFs?$AA@ 005a53dc     libifcoremt:for_diags_intel.obj
 0003:00008408       ??_C@_0BB@A@floating?5invalid?$AA@ 005a5408     libifcoremt:for_diags_intel.obj
 0003:0000841c       ??_C@_0DE@A@output?5statement?5overflows?5record?0?5unit?5?$CFd?0?5file?5?$CFs?$AA@ 005a541c     libifcoremt:for_diags_intel.obj
 0003:00008450       ??_C@_0DJ@A@input?5statement?5requires?5too?5much?5data?0?5unit?5?$CFd?0?5file?5?$CFs?$AA@ 005a5450     libifcoremt:for_diags_intel.obj
 0003:0000848c       ??_C@_0DJ@A@variable?5format?5expression?5value?5error?0?5unit?5?$CFd?0?5file?5?$CFs?$AA@ 005a548c     libifcoremt:for_diags_intel.obj
 0003:000084c8       ??_C@_0BN@A@process?5interrupted?5?$CISIGINT?$CJ?$AA@ 005a54c8     libifcoremt:for_diags_intel.obj
 0003:000084e8       ??_C@_0BB@A@integer?5overflow?$AA@ 005a54e8     libifcoremt:for_diags_intel.obj
 0003:000084fc       ??_C@_0BH@A@integer?5divide?5by?5zero?$AA@ 005a54fc     libifcoremt:for_diags_intel.obj
 0003:00008514       ??_C@_0BC@A@floating?5overflow?$AA@ 005a5514     libifcoremt:for_diags_intel.obj
 0003:00008528       ??_C@_0BI@A@floating?5divide?5by?5zero?$AA@ 005a5528     libifcoremt:for_diags_intel.obj
 0003:00008540       ??_C@_0BD@A@floating?5underflow?$AA@ 005a5540     libifcoremt:for_diags_intel.obj
 0003:00008554       ??_C@_0BJ@A@floating?5point?5exception?$AA@ 005a5554     libifcoremt:for_diags_intel.obj
 0003:00008570       ??_C@_0BC@A@Abort?5trap?5signal?$AA@ 005a5570     libifcoremt:for_diags_intel.obj
 0003:00008584       ??_C@_0BH@A@subscript?5out?5of?5range?$AA@ 005a5584     libifcoremt:for_diags_intel.obj
 0003:0000859c       ??_C@_0BJ@A@process?5killed?5?$CISIGTERM?$CJ?$AA@ 005a559c     libifcoremt:for_diags_intel.obj
 0003:000085b8       ??_C@_0BH@A@process?5quit?5?$CISIGQUIT?$CJ?$AA@ 005a55b8     libifcoremt:for_diags_intel.obj
 0003:000085d0       ??_C@_0BK@A@wrong?5number?5of?5arguments?$AA@ 005a55d0     libifcoremt:for_diags_intel.obj
 0003:000085ec       ??_C@_0CB@A@invalid?5argument?5to?5math?5library?$AA@ 005a55ec     libifcoremt:for_diags_intel.obj
 0003:00008610       ??_C@_0BJ@A@undefined?5exponentiation?$AA@ 005a5610     libifcoremt:for_diags_intel.obj
 0003:0000862c       ??_C@_0CE@A@logarithm?5of?5zero?5or?5negative?5value?$AA@ 005a562c     libifcoremt:for_diags_intel.obj
 0003:00008650       ??_C@_0BO@A@square?5root?5of?5negative?5value?$AA@ 005a5650     libifcoremt:for_diags_intel.obj
 0003:00008670       ??_C@_0CC@A@significance?5lost?5in?5math?5library?$AA@ 005a5670     libifcoremt:for_diags_intel.obj
 0003:00008694       ??_C@_0CC@A@floating?5overflow?5in?5math?5library?$AA@ 005a5694     libifcoremt:for_diags_intel.obj
 0003:000086b8       ??_C@_0CD@A@floating?5underflow?5in?5math?5library?$AA@ 005a56b8     libifcoremt:for_diags_intel.obj
 0003:000086dc       ??_C@_0CG@A@Value?5of?5IOSTAT_INQUIRE_INTERNAL_UNIT?$AA@ 005a56dc     libifcoremt:for_diags_intel.obj
 0003:00008704       ??_C@_0CB@A@adjustable?5array?5dimension?5error?$AA@ 005a5704     libifcoremt:for_diags_intel.obj
 0003:00008740       ??_C@_0EA@A@invalid?5key?5match?5specifier?5for?5key?5direction?0?5unit?5?$CFd?0?5file?5?$CFs?$AA@ 005a5740     libifcoremt:for_diags_intel.obj
 0003:00008780       ??_C@_0CB@A@floating?5point?5conversion?5failed?$AA@ 005a5780     libifcoremt:for_diags_intel.obj
 0003:000087a4       ??_C@_0DP@A@F_UFMTENDIAN?5environment?5variable?5was?5ignored?3erroneous?5syntax?$AA@ 005a57a4     libifcoremt:for_diags_intel.obj
 0003:000087e4       ??_C@_0DO@A@write?5exceeds?5the?5record?5length?5of?5the?5file?0?5unit?5?$CFd?0?5file?5?$CFs?$AA@ 005a57e4     libifcoremt:for_diags_intel.obj
 0003:00008840       ??_C@_0EN@A@cannot?5allocate?5memory?5for?5the?5file?5buffer?5?9?5out?5of?5memory?0?5unit?5?$CFd?0?5file?5?$CFs?$AA@ 005a5840     libifcoremt:for_diags_intel.obj
 0003:000088a0       ??_C@_0DI@A@FORT_FMT_RECL?5environment?5variable?5has?5erroneous?5syntax?$AA@ 005a58a0     libifcoremt:for_diags_intel.obj
 0003:000088d8       ??_C@_0DJ@A@FORT_UFMT_RECL?5environment?5variable?5has?5erroneous?5syntax?$AA@ 005a58d8     libifcoremt:for_diags_intel.obj
 0003:00008920       ??_C@_0FD@A@Asynchronous?5data?5transfer?5statement?5is?5not?5allowed?5to?5this?5unit?0?5unit?5?$CFd?0?5file?5?$CFs?$AA@ 005a5920     libifcoremt:for_diags_intel.obj
 0003:00008980       ??_C@_0CL@A@ID?5value?5is?5out?5of?5range?0?5unit?5?$CFd?0?5file?5?$CFs?$AA@ 005a5980     libifcoremt:for_diags_intel.obj
 0003:000089ac       ??_C@_0DM@A@incorrect?5?$CFs?5specifier?5for?5connected?5file?0?5unit?5?$CFd?0?5file?5?$CFs?$AA@ 005a59ac     libifcoremt:for_diags_intel.obj
 0003:00008a00       ??_C@_0EC@A@incorrect?5?$CFs?5specifier?5value?5for?5connected?5file?0?5unit?5?$CFd?0?5file?5?$CFs?$AA@ 005a5a00     libifcoremt:for_diags_intel.obj
 0003:00008a60       ??_C@_0FI@A@there?5is?5no?5data?9edit?9descriptor?5to?5match?5a?5data?9item?5in?5the?5I?1O?5list?0?5unit?5?$CFd?0?5file?5?$CFs?$AA@ 005a5a60     libifcoremt:for_diags_intel.obj
 0003:00008ac0       ??_C@_0DJ@A@FORT_BLOCKSIZE?5environment?5variable?5has?5erroneous?5syntax?$AA@ 005a5ac0     libifcoremt:for_diags_intel.obj
 0003:00008afc       ??_C@_0DL@A@FORT_BUFFERCOUNT?5environment?5variable?5has?5erroneous?5syntax?$AA@ 005a5afc     libifcoremt:for_diags_intel.obj
 0003:00008b38       ??_C@_0CD@A@cannot?5stat?5file?0?5unit?5?$CFd?0?5file?5?$CFs?$AA@ 005a5b38     libifcoremt:for_diags_intel.obj
 0003:00008b60       ??_C@_0EL@A@stream?5data?5transfer?5statement?5is?5not?5allowed?5to?5an?5unopened?5unit?0?5unit?5?$CFd?$AA@ 005a5b60     libifcoremt:for_diags_intel.obj
 0003:00008bc0       ??_C@_0EN@A@stream?5data?5transfer?5statement?5is?5not?5allowed?5to?5this?5unit?0?5unit?5?$CFd?0?5file?5?$CFs?$AA@ 005a5bc0     libifcoremt:for_diags_intel.obj
 0003:00008c20       ??_C@_0EA@A@position?5number?5is?5outside?5of?5the?5valid?5range?0?5unit?5?$CFd?0?5file?5?$CFs?$AA@ 005a5c20     libifcoremt:for_diags_intel.obj
 0003:00008c60       ??_C@_0EL@A@RECL?$DN?5specifier?5may?5not?5be?5applied?5to?5stream?5access?5file?0?5unit?5?$CFd?0?5file?5?$CFs?$AA@ 005a5c60     libifcoremt:for_diags_intel.obj
 0003:00008cc0       ??_C@_0FL@A@BACKSPACE?5statement?5may?5not?5be?5applied?5to?5unformatted?5stream?5access?5file?0?5unit?5?$CFd?0?5file?5?$CFs?$AA@ 005a5cc0     libifcoremt:for_diags_intel.obj
 0003:00008d20       ??_C@_0FD@A@A?5keyword?5was?5specified?5that?5is?5not?5allowed?5with?5unformatted?5I?1O?$DL?5unit?5?$CFd?0?5file?5?$CFs?$AA@ 005a5d20     libifcoremt:for_diags_intel.obj
 0003:00008d80       ??_C@_0DL@A@keyword?5value?5error?5in?5a?5CLOSE?5statement?0?5unit?5?$CFd?0?5file?5?$CFs?$AA@ 005a5d80     libifcoremt:for_diags_intel.obj
 0003:00008dbc       ??_C@_0DK@A@keyword?5value?5error?5in?5an?5I?1O?5statement?0?5unit?5?$CFd?0?5file?5?$CFs?$AA@ 005a5dbc     libifcoremt:for_diags_intel.obj
 0003:00008e00       ??_C@_0GH@A@If?5NEWUNIT?5appears?5in?5OPEN?5statement?5either?5FILE?5or?5STATUS?5?$CIwith?5value?5SCRATCH?$CJ?5specifier?5shall?5appear?$AA@ 005a5e00     libifcoremt:for_diags_intel.obj
 0003:00008e80       ??_C@_0HF@A@The?5?8RECL?$DN?8?5value?5in?5an?5OPEN?5statement?5for?5unit?5?$CFd?0?5file?5?$CFs?0?5exceeds?5the?5maximum?5allowed?5for?5the?5file?8s?5record?5type?4?$AA@ 005a5e80     libifcoremt:for_diags_intel.obj
 0003:00008f00       ??_C@_0EH@A@The?5FORT_BUFFERING_THRESHOLD?5environment?5variable?5has?5erroneous?5syntax?$AA@ 005a5f00     libifcoremt:for_diags_intel.obj
 0003:00008f60       ??_C@_0DC@A@operation?5requires?5seek?5ability?0?5unit?5?$CFd?0?5file?5?$CFs?$AA@ 005a5f60     libifcoremt:for_diags_intel.obj
 0003:00008f94       ??_C@_0DN@A@Cannot?5access?5current?5working?5directory?5for?5unit?5?$CFd?0?5file?5?$CFs?$AA@ 005a5f94     libifcoremt:for_diags_intel.obj
 0003:00008fe0       ??_C@_0EA@A@invalid?5attempt?5to?5assign?5into?5a?5pointer?5that?5is?5not?5associated?$AA@ 005a5fe0     libifcoremt:for_diags_intel.obj
 0003:00009020       ??_C@_0DP@A@attempt?5to?5assign?5a?5scalar?5to?5an?5unallocated?5allocatable?5array?$AA@ 005a6020     libifcoremt:for_diags_intel.obj
 0003:00009060       ??_C@_0DB@A@Invalid?5command?5supplied?5to?5EXECUTE_COMMAND_LINE?$AA@ 005a6060     libifcoremt:for_diags_intel.obj
 0003:00009094       ??_C@_0CB@A@Error?5Stop?5?9?5Program?5terminated?4?$AA@ 005a6094     libifcoremt:for_diags_intel.obj
 0003:000090c0       ??_C@_0EN@A@user?5breakpoint?5?$CISIGTRAP?$CJ?5?9?5obtain?5more?5info?5on?5this?5signal?5via?5the?5debugger?$AA@ 005a60c0     libifcoremt:for_diags_intel.obj
 0003:00009120       ??_C@_0BM@A@kernel?5breakpoint?5?$CISIGTRAP?$CJ?$AA@ 005a6120     libifcoremt:for_diags_intel.obj
 0003:0000913c       ??_C@_0CH@A@taken?5branch?5delay?5emulation?5?$CISIGTRAP?$CJ?$AA@ 005a613c     libifcoremt:for_diags_intel.obj
 0003:00009164       ??_C@_0CL@A@not?5taken?5branch?5delay?5emulation?5?$CISIGTRAP?$CJ?$AA@ 005a6164     libifcoremt:for_diags_intel.obj
 0003:00009190       ??_C@_0BL@A@user?5single?5step?5?$CISIGTRAP?$CJ?$AA@ 005a6190     libifcoremt:for_diags_intel.obj
 0003:000091ac       ??_C@_0BJ@A@overflow?5check?5?$CISIGTRAP?$CJ?$AA@ 005a61ac     libifcoremt:for_diags_intel.obj
 0003:000091c8       ??_C@_0BP@A@divide?5by?5zero?5check?5?$CISIGTRAP?$CJ?$AA@ 005a61c8     libifcoremt:for_diags_intel.obj
 0003:000091e8       ??_C@_0CE@A@array?5index?5out?5of?5bounds?5?$CISIGTRAP?$CJ?$AA@ 005a61e8     libifcoremt:for_diags_intel.obj
 0003:0000920c       ??_C@_0DB@A@array?5index?5out?5of?5bounds?5for?5index?5?$CFd?5?$CISIGTRAP?$CJ?$AA@ 005a620c     libifcoremt:for_diags_intel.obj
 0003:00009240       ??_C@_0BB@A@floating?5inexact?$AA@ 005a6240     libifcoremt:for_diags_intel.obj
 0003:00009254       ??_C@_0BB@A@decimal?5overflow?$AA@ 005a6254     libifcoremt:for_diags_intel.obj
 0003:00009268       ??_C@_0BH@A@decimal?5divide?5by?5zero?$AA@ 005a6268     libifcoremt:for_diags_intel.obj
 0003:00009280       ??_C@_0BA@A@decimal?5invalid?$AA@ 005a6280     libifcoremt:for_diags_intel.obj
 0003:00009290       ??_C@_0BB@A@reserved?5operand?$AA@ 005a6290     libifcoremt:for_diags_intel.obj
 0003:000092a4       ??_C@_0BA@A@assertion?5error?$AA@ 005a62a4     libifcoremt:for_diags_intel.obj
 0003:000092b4       ??_C@_0BD@A@null?5pointer?5error?$AA@ 005a62b4     libifcoremt:for_diags_intel.obj
 0003:000092c8       ??_C@_0P@A@stack?5overflow?$AA@ 005a62c8     libifcoremt:for_diags_intel.obj
 0003:000092d8       ??_C@_0BE@A@string?5length?5error?$AA@ 005a62d8     libifcoremt:for_diags_intel.obj
 0003:000092ec       ??_C@_0BA@A@substring?5error?$AA@ 005a62ec     libifcoremt:for_diags_intel.obj
 0003:000092fc       ??_C@_0M@A@range?5error?$AA@ 005a62fc     libifcoremt:for_diags_intel.obj
 0003:00009308       ??_C@_0CH@A@allocatable?5array?5is?5already?5allocated?$AA@ 005a6308     libifcoremt:for_diags_intel.obj
 0003:00009330       ??_C@_0DM@A@unresolved?5contention?5for?5Intel?5Fortran?5RTL?5global?5resource?$AA@ 005a6330     libifcoremt:for_diags_intel.obj
 0003:0000936c       ??_C@_0CO@A@allocatable?5array?5or?5pointer?5is?5not?5allocated?$AA@ 005a636c     libifcoremt:for_diags_intel.obj
 0003:0000939c       ??_C@_0BK@A@array?5index?5out?5of?5bounds?$AA@ 005a639c     libifcoremt:for_diags_intel.obj
 0003:000093b8       ??_C@_0CH@A@array?5index?5out?5of?5bounds?5for?5index?5?$CFd?$AA@ 005a63b8     libifcoremt:for_diags_intel.obj
 0003:000093e0       ??_C@_0BL@A@GENTRAP?5code?5?$DN?50x?$CFlx?5?$CI?$CFld?$CJ?$AA@ 005a63e0     libifcoremt:for_diags_intel.obj
 0003:000093fc       ??_C@_0CF@A@Program?5Exception?5?9?5access?5violation?$AA@ 005a63fc     libifcoremt:for_diags_intel.obj
 0003:00009424       ??_C@_0CK@A@Program?5Exception?5?9?5datatype?5misalignment?$AA@ 005a6424     libifcoremt:for_diags_intel.obj
 0003:00009450       ??_C@_0BP@A@Program?5Exception?5?9?5breakpoint?$AA@ 005a6450     libifcoremt:for_diags_intel.obj
 0003:00009470       ??_C@_0CA@A@Program?5Exception?5?9?5single?5step?$AA@ 005a6470     libifcoremt:for_diags_intel.obj
 0003:00009490       ??_C@_0CK@A@Program?5Exception?5?9?5array?5bounds?5exceeded?$AA@ 005a6490     libifcoremt:for_diags_intel.obj
 0003:000094bc       ??_C@_0DE@A@Program?5Exception?5?9?5denormal?5floating?9point?5operand?$AA@ 005a64bc     libifcoremt:for_diags_intel.obj
 0003:000094f0       ??_C@_0CJ@A@Program?5Exception?5?9?5floating?5stack?5check?$AA@ 005a64f0     libifcoremt:for_diags_intel.obj
 0003:0000951c       ??_C@_0CL@A@Program?5Exception?5?9?5integer?5divide?5by?5zero?$AA@ 005a651c     libifcoremt:for_diags_intel.obj
 0003:00009548       ??_C@_0CF@A@Program?5Exception?5?9?5integer?5overflow?$AA@ 005a6548     libifcoremt:for_diags_intel.obj
 0003:00009570       ??_C@_0CL@A@Program?5Exception?5?9?5privileged?5instruction?$AA@ 005a6570     libifcoremt:for_diags_intel.obj
 0003:0000959c       ??_C@_0CC@A@Program?5Exception?5?9?5in?5page?5error?$AA@ 005a659c     libifcoremt:for_diags_intel.obj
 0003:000095c0       ??_C@_0CI@A@Program?5Exception?5?9?5illegal?5instruction?$AA@ 005a65c0     libifcoremt:for_diags_intel.obj
 0003:000095e8       ??_C@_0CN@A@Program?5Exception?5?9?5noncontinuable?5exception?$AA@ 005a65e8     libifcoremt:for_diags_intel.obj
 0003:00009618       ??_C@_0CD@A@Program?5Exception?5?9?5stack?5overflow?$AA@ 005a6618     libifcoremt:for_diags_intel.obj
 0003:0000963c       ??_C@_0CI@A@Program?5Exception?5?9?5invalid?5disposition?$AA@ 005a663c     libifcoremt:for_diags_intel.obj
 0003:00009664       ??_C@_0DB@A@Program?5Exception?5?9?5exception?5code?5?$DN?50x?$CFlx?5?$CI?$CFld?$CJ?$AA@ 005a6664     libifcoremt:for_diags_intel.obj
 0003:000096a0       ??_C@_0EO@A@A?5pointer?5passed?5to?5DEALLOCATE?5points?5to?5an?5object?5that?5cannot?5be?5deallocated?$AA@ 005a66a0     libifcoremt:for_diags_intel.obj
 0003:00009700       ??_C@_0M@A@SIGSEGV?0?5?$CFs?$AA@ 005a6700     libifcoremt:for_diags_intel.obj
 0003:00009720       ??_C@_0EF@A@DATE?5argument?5to?5DATE_AND_TIME?5is?5too?5short?5?$CILEN?$DN?$CFd?$CJ?0?5required?5LEN?$DN8?$AA@ 005a6720     libifcoremt:for_diags_intel.obj
 0003:00009780       ??_C@_0EG@A@TIME?5argument?5to?5DATE_AND_TIME?5is?5too?5short?5?$CILEN?$DN?$CFd?$CJ?0?5required?5LEN?$DN10?$AA@ 005a6780     libifcoremt:for_diags_intel.obj
 0003:000097e0       ??_C@_0EF@A@ZONE?5argument?5to?5DATE_AND_TIME?5is?5too?5short?5?$CILEN?$DN?$CFd?$CJ?0?5required?5LEN?$DN5?$AA@ 005a67e0     libifcoremt:for_diags_intel.obj
 0003:00009840       ??_C@_0P@A@Divide?5by?5zero?$AA@ 005a6840     libifcoremt:for_diags_intel.obj
 0003:00009850       ??_C@_0DM@A@Cannot?5allocate?5array?5?9?5overflow?5on?5array?5size?5calculation?4?$AA@ 005a6850     libifcoremt:for_diags_intel.obj
 0003:0000988c       ??_C@_0L@A@SIGBUS?0?5?$CFs?$AA@ 005a688c     libifcoremt:for_diags_intel.obj
 0003:000098a0       ??_C@_0FE@A@Unlimited?9format?9item?5is?5?$CK?$CIformat?9item?9list?$CJ?4?5Format?9item?5in?5list?5must?5not?5be?5empty?$AA@ 005a68a0     libifcoremt:for_diags_intel.obj
 0003:00009900       ??_C@_0EB@A@floating?5invalid?5?9?5possible?5uninitialized?5real?1complex?5variable?4?$AA@ 005a6900     libifcoremt:for_diags_intel.obj
 0003:00009960       ??_C@_0EO@A@Run?9Time?5Check?5Failure?4?5The?5variable?5?8?$CFs?8?5is?5being?5used?5without?5being?5defined?$AA@ 005a6960     libifcoremt:for_diags_intel.obj
 0003:000099c0       ??_C@_0FG@A@Run?9Time?5Check?5Failure?4?5The?5variable?5?8?$CFs?8?5is?5being?5used?5in?5?8?$CFs?8?5without?5being?5defined?$AA@ 005a69c0     libifcoremt:for_diags_intel.obj
 0003:00009a20       ??_C@_0CB@A@program?5aborting?5due?5to?5?$CFs?5event?$AA@ 005a6a20     libifcoremt:for_diags_intel.obj
 0003:00009a44       ??_C@_0DO@A@Intel?5Pentium?5fdiv?5flaw?5detected?0?5please?5update?5the?5processor?$AA@ 005a6a44     libifcoremt:for_diags_intel.obj
 0003:00009aa0       ??_C@_0EH@A@unformatted?5I?1O?5to?5unit?5open?5for?5formatted?5transfers?0?5unit?5?$CFd?0?5file?5?$CFs?$AA@ 005a6aa0     libifcoremt:for_diags_intel.obj
 0003:00009b00       ??_C@_0EH@A@formatted?5I?1O?5to?5unit?5open?5for?5unformatted?5transfers?0?5unit?5?$CFd?0?5file?5?$CFs?$AA@ 005a6b00     libifcoremt:for_diags_intel.obj
 0003:00009b60       ??_C@_0EC@A@direct?9access?5I?1O?5to?5unit?5open?5for?5keyed?5access?0?5unit?5?$CFd?0?5file?5?$CFs?$AA@ 005a6b60     libifcoremt:for_diags_intel.obj
 0003:00009bc0       ??_C@_0EH@A@sequential?9access?5I?1O?5to?5unit?5open?5for?5direct?5access?0?5unit?5?$CFd?0?5file?5?$CFs?$AA@ 005a6bc0     libifcoremt:for_diags_intel.obj
 0003:00009c20       ??_C@_0EC@A@keyed?9access?5I?1O?5to?5unit?5open?5for?5direct?5access?0?5unit?5?$CFd?0?5file?5?$CFs?$AA@ 005a6c20     libifcoremt:for_diags_intel.obj
 0003:00009c80       ??_C@_0BI@A@I?1O?5to?5non?9FORTRAN?5unit?$AA@ 005a6c80     libifcoremt:for_diags_intel.obj
 0003:00009c98       ??_C@_0CH@A@invalid?5text?5is?5?$CFs?5in?5record?5number?5?$CFd?$AA@ 005a6c98     libifcoremt:for_diags_intel.obj
 0003:00009cc0       ??_C@_0BD@A@invalid?5text?5is?5?$CFs?$AA@ 005a6cc0     libifcoremt:for_diags_intel.obj
 0003:00009ce0       ??_C@_0EA@A@operation?5requires?5file?5to?5be?5on?5disk?5or?5tape?0?5unit?5?$CFd?0?5file?5?$CFs?$AA@ 005a6ce0     libifcoremt:for_diags_intel.obj
 0003:00009d20       ??_C@_0EN@A@operation?5requires?5sequential?5file?5organization?5and?5access?0?5unit?5?$CFd?0?5file?5?$CFs?$AA@ 005a6d20     libifcoremt:for_diags_intel.obj
 0003:00009d80       ??_C@_0BN@A@FORTRAN?5abort?5routine?5called?$AA@ 005a6d80     libifcoremt:for_diags_intel.obj
 0003:00009da0       ??_C@_0CM@A@end?5of?5record?5during?5read?0?5unit?5?$CFd?0?5file?5?$CFs?$AA@ 005a6da0     libifcoremt:for_diags_intel.obj
 0003:00009de0       ??_C@_0FA@A@Another?5process?5has?5this?5file?5locked?5for?5shared?1exclusive?5use?0?5unit?5?$CFd?0?5file?5?$CFs?$AA@ 005a6de0     libifcoremt:for_diags_intel.obj
 0003:00009e40       ??_C@_0IF@A@A?5SHARE?$DN?5lock?5request?5in?5an?5OPEN?5statement?5is?5incompatible?5with?5a?5?$FLNO?$FNSHARED?5specifier?5and?1or?5the?5file?8s?5open?5mode?0?5unit?5?$CFd?0?5file?5?$CFs?$AA@ 005a6e40     libifcoremt:for_diags_intel.obj
 0003:00009ee0       ??_C@_0BK@A@?$CFd?5floating?5inexact?5traps?$AA@ 005a6ee0     libifcoremt:for_diags_intel.obj
 0003:00009efc       ??_C@_0BK@A@?$CFd?5floating?5invalid?5traps?$AA@ 005a6efc     libifcoremt:for_diags_intel.obj
 0003:00009f18       ??_C@_0BL@A@?$CFd?5floating?5overflow?5traps?$AA@ 005a6f18     libifcoremt:for_diags_intel.obj
 0003:00009f34       ??_C@_0CB@A@?$CFd?5floating?5divide?9by?9zero?5traps?$AA@ 005a6f34     libifcoremt:for_diags_intel.obj
 0003:00009f58       ??_C@_0BM@A@?$CFd?5floating?5underflow?5traps?$AA@ 005a6f58     libifcoremt:for_diags_intel.obj
 0003:00009f80       ??_C@_0EB@A@Diagnostic?5message?5buffer?5overflow?0?5hex?5message?5number?5was?5?$CF8?48x?$AA@ 005a6f80     libifcoremt:for_diags_intel.obj
 0003:00009fe0       ??_C@_02A@?$CFs?$AA@       005a6fe0     libifcoremt:for_diags_intel.obj
 0003:00009fe4       ??_C@_08A@forrtl?3?5?$AA@  005a6fe4     libifcoremt:for_diags_intel.obj
 0003:00009ff0       ??_C@_0BE@A@forrtl?3?5info?5?$CI?$CFi?$CJ?3?5?$AA@ 005a6ff0     libifcoremt:for_diags_intel.obj
 0003:0000a004       ??_C@_0BH@A@forrtl?3?5warning?5?$CI?$CFi?$CJ?3?5?$AA@ 005a7004     libifcoremt:for_diags_intel.obj
 0003:0000a01c       ??_C@_0BF@A@forrtl?3?5error?5?$CI?$CFi?$CJ?3?5?$AA@ 005a701c     libifcoremt:for_diags_intel.obj
 0003:0000a034       ??_C@_0BG@A@forrtl?3?5severe?5?$CI?$CFi?$CJ?3?5?$AA@ 005a7034     libifcoremt:for_diags_intel.obj
 0003:0000a04c       ??_C@_06A@forrtl?$AA@      005a704c     libifcoremt:for_diags_intel.obj
 0003:0000a054       ??_C@_0BC@A@Message?5not?5found?$AA@ 005a7054     libifcoremt:for_diags_intel.obj
 0003:0000a068       ??_C@_0DE@A@Insufficient?5memory?5to?5allocate?5Fortran?5RTL?5message?$AA@ 005a7068     libifcoremt:for_diags_intel.obj
 0003:0000a0a0       ??_C@_0EI@A@Insufficient?5memory?5to?5allocate?5Fortran?5RTL?5message?5buffer?0?5message?5?$CD?$CFd?$AA@ 005a70a0     libifcoremt:for_diags_intel.obj
 0003:0000a100       ??_C@_0FF@A@Insufficient?5memory?5to?5allocate?5Fortran?5RTL?5message?5buffer?0?5message?5?$CD?$CFd?5?$DN?5hex?5?$CF8?48x?4?$AA@ 005a7100     libifcoremt:for_diags_intel.obj
 0003:0000a160       ??_C@_0DC@A@FormatMessage?5failed?5for?5sysmem?5message?5number?5?$CFi?$AA@ 005a7160     libifcoremt:for_diags_intel.obj
 0003:0000a194       ??_C@_0CI@A@Intel?$CIr?$CJ?5Visual?5Fortran?5run?9time?5error?5?$AA@ 005a7194     libifcoremt:for_diags_intel.obj
 0003:0000a1c0       ??_C@_0EH@A@?5The?5allocation?5of?5dynamic?5common?5?$CFs?5of?5size?5?$CFs?5in?5procedure?5?$CFs?5failed?$AA@ 005a71c0     libifcoremt:for_diags_intel.obj
 0003:0000a220       ??_C@_0CN@A@?5The?5current?5size?5of?5dynamic?5common?5?$CFs?5is?5?$CFs?$AA@ 005a7220     libifcoremt:for_diags_intel.obj
 0003:0000a250       ??_C@_0CP@A@?5The?5declared?5size?5in?5procedure?5?$CFs?5is?5?$CFs?5bytes?$AA@ 005a7250     libifcoremt:for_diags_intel.obj
 0003:0000a280       ??_C@_0EC@A@?5Heap?5Allocation?5Failure?5while?5creating?5common?5?$CFs?5in?5procedure?5?$CFs?$AA@ 005a7280     libifcoremt:for_diags_intel.obj
 0003:0000a2e0       ??_C@_07A@Unknown?$AA@     005a72e0     libifcoremt:for_diags_intel.obj
 0003:0000a2e8       ??_C@_0BH@A@?0?5line?5?$CFs?0?5position?5?$CFd?$AA@ 005a72e8     libifcoremt:for_diags_intel.obj
 0003:0000a300       ??_C@_0CF@A@?$CFsAllocate?5Dynamic?5Common?5Error?5?9?5?$CFs?$AA@ 005a7300     libifcoremt:for_diags_intel.obj
 0003:0000a328       ??_C@_0BD@A@Allocation?5Failure?$AA@ 005a7328     libifcoremt:for_diags_intel.obj
 0003:0000a33c       ??_C@_0BJ@A@Inconsistent?5Common?5Size?$AA@ 005a733c     libifcoremt:for_diags_intel.obj
 0003:0000a358       ??_C@_0L@A@Empty?5Heap?$AA@ 005a7358     libifcoremt:for_diags_intel.obj
 0003:0000a364       ??_C@_0DF@A@Incrementally?5linked?5image?9?9PC?5correlation?5disabled?4?$AA@ 005a7364     libifcoremt:for_diags_intel.obj
 0003:0000a39c       ??_C@_0CD@A@Stack?5trace?5terminated?5abnormally?4?$AA@ 005a739c     libifcoremt:for_diags_intel.obj
 0003:0000a3c0       ??_C@_0BL@A@Stop?5?9?5Program?5terminated?4?$AA@ 005a73c0     libifcoremt:for_diags_intel.obj
 0003:0000a3dc       ??_C@_0N@A@Return?5code?5?$AA@ 005a73dc     libifcoremt:for_diags_intel.obj
 0003:0000a3ec       ??_C@_0DE@A@File?5name?5missing?5or?5blank?5?9?5please?5enter?5file?5name?$AA@ 005a73ec     libifcoremt:for_diags_intel.obj
 0003:0000a420       ??_C@_09A@UNIT?5?$CFd?$DP?5?$AA@ 005a7420     libifcoremt:for_diags_intel.obj
 0003:0000a42c       ??_C@_0CB@A@IEEE_DIVIDE_BY_ZERO?5is?5signaling?$AA@ 005a742c     libifcoremt:for_diags_intel.obj
 0003:0000a450       ??_C@_0BK@A@IEEE_INVALID?5is?5signaling?$AA@ 005a7450     libifcoremt:for_diags_intel.obj
 0003:0000a46c       ??_C@_0BL@A@IEEE_OVERFLOW?5is?5signaling?$AA@ 005a746c     libifcoremt:for_diags_intel.obj
 0003:0000a488       ??_C@_0BM@A@IEEE_UNDERFLOW?5is?5signaling?$AA@ 005a7488     libifcoremt:for_diags_intel.obj
 0003:0000a4a4       ??_C@_0CO@A@Attempt?5to?5close?5unit?5?$CFd?0?5which?5was?5not?5open?4?$AA@ 005a74a4     libifcoremt:for_diags_intel.obj
 0003:0000a4d4       ??_C@_0DF@A@array?5or?5substring?5subscript?5expression?5out?5of?5range?$AA@ 005a74d4     libifcoremt:for_diags_intel.obj
 0003:0000a50c       ??_C@_0CM@A@CHARACTER?5substring?5expression?5out?5of?5range?$AA@ 005a750c     libifcoremt:for_diags_intel.obj
 0003:0000a538       ??_C@_0CG@A@label?5not?5found?5in?5assigned?5GOTO?5list?$AA@ 005a7538     libifcoremt:for_diags_intel.obj
 0003:0000a560       ??_C@_0BM@A@INTEGER?5arithmetic?5overflow?$AA@ 005a7560     libifcoremt:for_diags_intel.obj
 0003:0000a57c       ??_C@_0BK@A@INTEGER?5overflow?5on?5input?$AA@ 005a757c     libifcoremt:for_diags_intel.obj
 0003:0000a598       ??_C@_0BA@A@invalid?5INTEGER?$AA@ 005a7598     libifcoremt:for_diags_intel.obj
 0003:0000a5a8       ??_C@_0DC@A@REAL?5indefinite?5?$CIuninitialized?5or?5previous?5error?$CJ?$AA@ 005a75a8     libifcoremt:for_diags_intel.obj
 0003:0000a5dc       ??_C@_0N@A@invalid?5REAL?$AA@ 005a75dc     libifcoremt:for_diags_intel.obj
 0003:0000a5ec       ??_C@_0BD@A@REAL?5math?5overflow?$AA@ 005a75ec     libifcoremt:for_diags_intel.obj
 0003:0000a600       ??_C@_0CH@A@No?5matching?5CASE?5found?5for?5SELECT?5CASE?$AA@ 005a7600     libifcoremt:for_diags_intel.obj
 0003:0000a628       ??_C@_0BM@A@INTEGER?5assignment?5overflow?$AA@ 005a7628     libifcoremt:for_diags_intel.obj
 0003:0000a644       ??_C@_0CP@A@formatted?5I?1O?5not?5consistent?5with?5OPEN?5options?$AA@ 005a7644     libifcoremt:for_diags_intel.obj
 0003:0000a674       ??_C@_0DD@A@list?9directed?5I?1O?5not?5consistent?5with?5OPEN?5options?$AA@ 005a7674     libifcoremt:for_diags_intel.obj
 0003:0000a6a8       ??_C@_0CO@A@terminal?5I?1O?5not?5consistent?5with?5OPEN?5options?$AA@ 005a76a8     libifcoremt:for_diags_intel.obj
 0003:0000a6d8       ??_C@_0CM@A@direct?5I?1O?5not?5consistent?5with?5OPEN?5options?$AA@ 005a76d8     libifcoremt:for_diags_intel.obj
 0003:0000a704       ??_C@_0DB@A@unformatted?5I?1O?5not?5consistent?5with?5OPEN?5options?$AA@ 005a7704     libifcoremt:for_diags_intel.obj
 0003:0000a738       ??_C@_0CJ@A@A?5edit?5descriptor?5expected?5for?5CHARACTER?$AA@ 005a7738     libifcoremt:for_diags_intel.obj
 0003:0000a764       ??_C@_0CP@A@E?0?5F?0?5D?5or?5G?5edit?5descriptor?5expected?5for?5REAL?$AA@ 005a7764     libifcoremt:for_diags_intel.obj
 0003:0000a794       ??_C@_0CH@A@I?5edit?5descriptor?5expected?5for?5INTEGER?$AA@ 005a7794     libifcoremt:for_diags_intel.obj
 0003:0000a7bc       ??_C@_0CH@A@L?5edit?5descriptor?5expected?5for?5LOGICAL?$AA@ 005a77bc     libifcoremt:for_diags_intel.obj
 0003:0000a7e4       ??_C@_0CH@A@file?5already?5open?5?3?5parameter?5mismatch?$AA@ 005a77e4     libifcoremt:for_diags_intel.obj
 0003:0000a80c       ??_C@_0CO@A@namelist?5I?1O?5not?5consistent?5with?5OPEN?5options?$AA@ 005a780c     libifcoremt:for_diags_intel.obj
 0003:0000a83c       ??_C@_0CF@A@IOFOCUS?5illegal?5with?5non?9window?5unit?$AA@ 005a783c     libifcoremt:for_diags_intel.obj
 0003:0000a864       ??_C@_0CB@A@IOFOCUS?5illegal?5without?5QuickWin?$AA@ 005a7864     libifcoremt:for_diags_intel.obj
 0003:0000a888       ??_C@_0CD@A@TITLE?5illegal?5with?5non?9window?5unit?$AA@ 005a7888     libifcoremt:for_diags_intel.obj
 0003:0000a8ac       ??_C@_0BP@A@TITLE?5illegal?5without?5QuickWin?$AA@ 005a78ac     libifcoremt:for_diags_intel.obj
 0003:0000a8cc       ??_C@_0BO@A@KEEP?5illegal?5for?5scratch?5file?$AA@ 005a78cc     libifcoremt:for_diags_intel.obj
 0003:0000a8ec       ??_C@_0BP@A@SCRATCH?5illegal?5for?5named?5file?$AA@ 005a78ec     libifcoremt:for_diags_intel.obj
 0003:0000a90c       ??_C@_0BK@A@multiple?5radix?5specifiers?$AA@ 005a790c     libifcoremt:for_diags_intel.obj
 0003:0000a928       ??_C@_0BI@A@illegal?5radix?5specifier?$AA@ 005a7928     libifcoremt:for_diags_intel.obj
 0003:0000a940       ??_C@_0BF@A@illegal?5STATUS?5value?$AA@ 005a7940     libifcoremt:for_diags_intel.obj
 0003:0000a958       ??_C@_0BD@A@illegal?5MODE?5value?$AA@ 005a7958     libifcoremt:for_diags_intel.obj
 0003:0000a96c       ??_C@_0BF@A@illegal?5ACCESS?5value?$AA@ 005a796c     libifcoremt:for_diags_intel.obj
 0003:0000a984       ??_C@_0BE@A@illegal?5BLANK?5value?$AA@ 005a7984     libifcoremt:for_diags_intel.obj
 0003:0000a998       ??_C@_0BD@A@illegal?5FORM?5value?$AA@ 005a7998     libifcoremt:for_diags_intel.obj
 0003:0000a9ac       ??_C@_0BE@A@illegal?5SHARE?5value?$AA@ 005a79ac     libifcoremt:for_diags_intel.obj
 0003:0000a9c0       ??_C@_0BH@A@illegal?5LOCKMODE?5value?$AA@ 005a79c0     libifcoremt:for_diags_intel.obj
 0003:0000a9d8       ??_C@_0BG@A@illegal?5record?5number?$AA@ 005a79d8     libifcoremt:for_diags_intel.obj
 0003:0000a9f0       ??_C@_0CB@A@no?5unit?5number?5associated?5with?5?$CK?$AA@ 005a79f0     libifcoremt:for_diags_intel.obj
 0003:0000aa14       ??_C@_0BG@A@illegal?5RECORDS?5value?$AA@ 005a7a14     libifcoremt:for_diags_intel.obj
 0003:0000aa2c       ??_C@_0BE@A@illegal?5unit?5number?$AA@ 005a7a2c     libifcoremt:for_diags_intel.obj
 0003:0000aa40       ??_C@_0BD@A@illegal?5RECL?5value?$AA@ 005a7a40     libifcoremt:for_diags_intel.obj
 0003:0000aa54       ??_C@_0BI@A@array?5already?5allocated?$AA@ 005a7a54     libifcoremt:for_diags_intel.obj
 0003:0000aa6c       ??_C@_0BM@A@array?5size?5zero?5or?5negative?$AA@ 005a7a6c     libifcoremt:for_diags_intel.obj
 0003:0000aa88       ??_C@_0BL@A@non?9HUGE?5array?5exceeds?564K?$AA@ 005a7a88     libifcoremt:for_diags_intel.obj
 0003:0000aaa4       ??_C@_0BE@A@array?5not?5allocated?$AA@ 005a7aa4     libifcoremt:for_diags_intel.obj
 0003:0000aab8       ??_C@_0CF@A@BACKSPACE?5illegal?5on?5terminal?5device?$AA@ 005a7ab8     libifcoremt:for_diags_intel.obj
 0003:0000aae0       ??_C@_0BP@A@EOF?5illegal?5on?5terminal?5device?$AA@ 005a7ae0     libifcoremt:for_diags_intel.obj
 0003:0000ab00       ??_C@_0CD@A@ENDFILE?5illegal?5on?5terminal?5device?$AA@ 005a7b00     libifcoremt:for_diags_intel.obj
 0003:0000ab24       ??_C@_0CC@A@REWIND?5illegal?5on?5terminal?5device?$AA@ 005a7b24     libifcoremt:for_diags_intel.obj
 0003:0000ab48       ??_C@_0CC@A@DELETE?5illegal?5for?5read?9only?5file?$AA@ 005a7b48     libifcoremt:for_diags_intel.obj
 0003:0000ab6c       ??_C@_0CI@A@external?5I?1O?5illegal?5beyond?5end?5of?5file?$AA@ 005a7b6c     libifcoremt:for_diags_intel.obj
 0003:0000ab94       ??_C@_0BP@A@truncation?5error?5?3?5file?5closed?$AA@ 005a7b94     libifcoremt:for_diags_intel.obj
 0003:0000abb4       ??_C@_0BJ@A@terminal?5buffer?5overflow?$AA@ 005a7bb4     libifcoremt:for_diags_intel.obj
 0003:0000abd0       ??_C@_0DC@A@comma?5delimiter?5disabled?5after?5left?5repositioning?$AA@ 005a7bd0     libifcoremt:for_diags_intel.obj
 0003:0000ac04       ??_C@_0CD@A@LOCKING?5illegal?5on?5sequential?5file?$AA@ 005a7c04     libifcoremt:for_diags_intel.obj
 0003:0000ac28       ??_C@_0CA@A@file?5already?5locked?5or?5unlocked?$AA@ 005a7c28     libifcoremt:for_diags_intel.obj
 0003:0000ac48       ??_C@_0BA@A@file?5deadlocked?$AA@ 005a7c48     libifcoremt:for_diags_intel.obj
 0003:0000ac58       ??_C@_0BE@A@SHARE?5not?5installed?$AA@ 005a7c58     libifcoremt:for_diags_intel.obj
 0003:0000ac6c       ??_C@_0CL@A@file?5already?5connected?5to?5a?5different?5unit?$AA@ 005a7c6c     libifcoremt:for_diags_intel.obj
 0003:0000ac98       ??_C@_0BD@A@access?5not?5allowed?$AA@ 005a7c98     libifcoremt:for_diags_intel.obj
 0003:0000acac       ??_C@_0BE@A@file?5already?5exists?$AA@ 005a7cac     libifcoremt:for_diags_intel.obj
 0003:0000acc0       ??_C@_0P@A@file?5not?5found?$AA@ 005a7cc0     libifcoremt:for_diags_intel.obj
 0003:0000acd0       ??_C@_0BE@A@too?5many?5open?5files?$AA@ 005a7cd0     libifcoremt:for_diags_intel.obj
 0003:0000ace4       ??_C@_0BJ@A@too?5many?5units?5connected?$AA@ 005a7ce4     libifcoremt:for_diags_intel.obj
 0003:0000ad00       ??_C@_0CH@A@illegal?5structure?5for?5unformatted?5file?$AA@ 005a7d00     libifcoremt:for_diags_intel.obj
 0003:0000ad28       ??_C@_0BE@A@unknown?5unit?5number?$AA@ 005a7d28     libifcoremt:for_diags_intel.obj
 0003:0000ad3c       ??_C@_0CJ@A@file?5read?9only?5or?5locked?5against?5writing?$AA@ 005a7d3c     libifcoremt:for_diags_intel.obj
 0003:0000ad68       ??_C@_0BI@A@no?5space?5left?5on?5device?$AA@ 005a7d68     libifcoremt:for_diags_intel.obj
 0003:0000ad80       ??_C@_0BB@A@too?5many?5threads?$AA@ 005a7d80     libifcoremt:for_diags_intel.obj
 0003:0000ad94       ??_C@_0BB@A@invalid?5argument?$AA@ 005a7d94     libifcoremt:for_diags_intel.obj
 0003:0000ada8       ??_C@_0DC@A@BACKSPACE?5illegal?5for?5SEQUENTIAL?5WRITE?9only?5files?$AA@ 005a7da8     libifcoremt:for_diags_intel.obj
 0003:0000addc       ??_C@_0CJ@A@file?5not?5open?5for?5reading?5or?5file?5locked?$AA@ 005a7ddc     libifcoremt:for_diags_intel.obj
 0003:0000ae08       ??_C@_0BI@A@end?5of?5file?5encountered?$AA@ 005a7e08     libifcoremt:for_diags_intel.obj
 0003:0000ae20       ??_C@_0CK@A@positive?5integer?5expected?5in?5repeat?5field?$AA@ 005a7e20     libifcoremt:for_diags_intel.obj
 0003:0000ae4c       ??_C@_0BG@A@multiple?5repeat?5field?$AA@ 005a7e4c     libifcoremt:for_diags_intel.obj
 0003:0000ae64       ??_C@_0BI@A@invalid?5number?5in?5input?$AA@ 005a7e64     libifcoremt:for_diags_intel.obj
 0003:0000ae7c       ??_C@_0BI@A@invalid?5string?5in?5input?$AA@ 005a7e7c     libifcoremt:for_diags_intel.obj
 0003:0000ae94       ??_C@_0BP@A@comma?5missing?5in?5COMPLEX?5input?$AA@ 005a7e94     libifcoremt:for_diags_intel.obj
 0003:0000aeb4       ??_C@_0CA@A@T?5or?5F?5expected?5in?5LOGICAL?5read?$AA@ 005a7eb4     libifcoremt:for_diags_intel.obj
 0003:0000aed4       ??_C@_0CM@A@too?5many?5bytes?5read?5from?5unformatted?5record?$AA@ 005a7ed4     libifcoremt:for_diags_intel.obj
 0003:0000af00       ??_C@_0DB@A@H?5or?5apostrophe?5edit?5descriptor?5illegal?5on?5input?$AA@ 005a7f00     libifcoremt:for_diags_intel.obj
 0003:0000af34       ??_C@_0CH@A@illegal?5character?5in?5hexadecimal?5input?$AA@ 005a7f34     libifcoremt:for_diags_intel.obj
 0003:0000af5c       ??_C@_0BI@A@variable?5name?5not?5found?$AA@ 005a7f5c     libifcoremt:for_diags_intel.obj
 0003:0000af74       ??_C@_0BO@A@invalid?5NAMELIST?5input?5format?$AA@ 005a7f74     libifcoremt:for_diags_intel.obj
 0003:0000af94       ??_C@_0CB@A@wrong?5number?5of?5array?5dimensions?$AA@ 005a7f94     libifcoremt:for_diags_intel.obj
 0003:0000afb8       ??_C@_0CH@A@array?5subscript?5exceeds?5allocated?5area?$AA@ 005a7fb8     libifcoremt:for_diags_intel.obj
 0003:0000afe0       ??_C@_0CD@A@invalid?5subrange?5in?5NAMELIST?5input?$AA@ 005a7fe0     libifcoremt:for_diags_intel.obj
 0003:0000b004       ??_C@_0DA@A@substring?5range?5specified?5on?5non?9CHARACTER?5item?$AA@ 005a8004     libifcoremt:for_diags_intel.obj
 0003:0000b034       ??_C@_0BH@A@internal?5file?5overflow?$AA@ 005a8034     libifcoremt:for_diags_intel.obj
 0003:0000b04c       ??_C@_0BH@A@direct?5record?5overflow?$AA@ 005a804c     libifcoremt:for_diags_intel.obj
 0003:0000b064       ??_C@_0CG@A@numeric?5field?5bigger?5than?5record?5size?$AA@ 005a8064     libifcoremt:for_diags_intel.obj
 0003:0000b08c       ??_C@_0BK@A@heap?5space?5limit?5exceeded?$AA@ 005a808c     libifcoremt:for_diags_intel.obj
 0003:0000b0a8       ??_C@_0CB@A@scratch?5file?5name?5limit?5exceeded?$AA@ 005a80a8     libifcoremt:for_diags_intel.obj
 0003:0000b0cc       ??_C@_0CO@A@D?5field?5exceeds?5W?5field?5in?5ES?5edit?5descriptor?$AA@ 005a80cc     libifcoremt:for_diags_intel.obj
 0003:0000b0fc       ??_C@_0CO@A@D?5field?5exceeds?5W?5field?5in?5EN?5edit?5descriptor?$AA@ 005a80fc     libifcoremt:for_diags_intel.obj
 0003:0000b12c       ??_C@_0CE@A@Exponent?5of?50?5not?5allowed?5in?5format?$AA@ 005a812c     libifcoremt:for_diags_intel.obj
 0003:0000b150       ??_C@_0BL@A@integer?5expected?5in?5format?$AA@ 005a8150     libifcoremt:for_diags_intel.obj
 0003:0000b16c       ??_C@_0CM@A@initial?5left?5parenthesis?5expected?5in?5format?$AA@ 005a816c     libifcoremt:for_diags_intel.obj
 0003:0000b198       ??_C@_0CE@A@positive?5integer?5expected?5in?5format?$AA@ 005a8198     libifcoremt:for_diags_intel.obj
 0003:0000b1bc       ??_C@_0CJ@A@repeat?5count?5on?5nonrepeatable?5descriptor?$AA@ 005a81bc     libifcoremt:for_diags_intel.obj
 0003:0000b1e8       ??_C@_0DG@A@integer?5expected?5preceding?5H?0?5X?0?5or?5P?5edit?5descriptor?$AA@ 005a81e8     libifcoremt:for_diags_intel.obj
 0003:0000b220       ??_C@_0CC@A@N?5or?5Z?5expected?5after?5B?5in?5format?$AA@ 005a8220     libifcoremt:for_diags_intel.obj
 0003:0000b244       ??_C@_0BO@A@format?5nesting?5limit?5exceeded?$AA@ 005a8244     libifcoremt:for_diags_intel.obj
 0003:0000b264       ??_C@_0BH@A@?8?4?8?5expected?5in?5format?$AA@ 005a8264     libifcoremt:for_diags_intel.obj
 0003:0000b27c       ??_C@_0BJ@A@unexpected?5end?5of?5format?$AA@ 005a827c     libifcoremt:for_diags_intel.obj
 0003:0000b298       ??_C@_0BP@A@unexpected?5character?5in?5format?$AA@ 005a8298     libifcoremt:for_diags_intel.obj
 0003:0000b2b8       ??_C@_0CN@A@M?5field?5exceeds?5W?5field?5in?5I?5edit?5descriptor?$AA@ 005a82b8     libifcoremt:for_diags_intel.obj
 0003:0000b2e8       ??_C@_0BP@A@integer?5out?5of?5range?5in?5format?$AA@ 005a82e8     libifcoremt:for_diags_intel.obj
 0003:0000b308       ??_C@_0BJ@A@format?5not?5set?5by?5ASSIGN?$AA@ 005a8308     libifcoremt:for_diags_intel.obj
 0003:0000b324       ??_C@_0BN@A@separator?5expected?5in?5format?$AA@ 005a8324     libifcoremt:for_diags_intel.obj
 0003:0000b344       ??_C@_0DA@A@?$CFc?5or?5$?5?3?5nonstandard?5edit?5descriptor?5in?5format?$AA@ 005a8344     libifcoremt:for_diags_intel.obj
 0003:0000b374       ??_C@_0CK@A@Z?5?3?5nonstandard?5edit?5descriptor?5in?5format?$AA@ 005a8374     libifcoremt:for_diags_intel.obj
 0003:0000b3a0       ??_C@_0CM@A@DOS?5graphics?5not?5supported?5under?5Windows?5NT?$AA@ 005a83a0     libifcoremt:for_diags_intel.obj
 0003:0000b3cc       ??_C@_0P@A@Graphics?5error?$AA@ 005a83cc     libifcoremt:for_diags_intel.obj
 0003:0000b3dc       ??_C@_0DB@A@Using?5QuickWin?5is?5illegal?5in?5console?5application?$AA@ 005a83dc     libifcoremt:for_diags_intel.obj
 0003:0000b410       ??_C@_0BI@A@Illegal?5?8ADVANCE?8?5value?$AA@ 005a8410     libifcoremt:for_diags_intel.obj
 0003:0000b428       ??_C@_0CN@A@DIM?5argument?5to?5SIZE?5out?5of?5range?5?$CIvalue?5?$CFd?$CJ?$AA@ 005a8428     libifcoremt:for_diags_intel.obj
 0003:0000b458       ??_C@_0DO@A@Uninitialised?5pointer?5used?5as?5argument?5to?5ASSOCIATED?5function?$AA@ 005a8458     libifcoremt:for_diags_intel.obj
 0003:0000b498       ??_C@_0CD@A@Reference?5to?5uninitialised?5POINTER?$AA@ 005a8498     libifcoremt:for_diags_intel.obj
 0003:0000b4bc       ??_C@_0CN@A@Reference?5to?5POINTER?5which?5is?5not?5ASSOCIATED?$AA@ 005a84bc     libifcoremt:for_diags_intel.obj
 0003:0000b4ec       ??_C@_0CG@A@Reference?5to?5uninitialised?5POINTER?5?$CFs?$AA@ 005a84ec     libifcoremt:for_diags_intel.obj
 0003:0000b514       ??_C@_0DA@A@Reference?5to?5POINTER?5?$CFs?5which?5is?5not?5ASSOCIATED?$AA@ 005a8514     libifcoremt:for_diags_intel.obj
 0003:0000b544       ??_C@_0DM@A@Out?5of?5range?3?5substring?5starting?5position?5?$CFd?5is?5less?5than?51?$AA@ 005a8544     libifcoremt:for_diags_intel.obj
 0003:0000b580       ??_C@_0EF@A@Out?5of?5range?3?5substring?5ending?5position?5?$CFd?5is?5greater?5than?5length?5?$CFd?$AA@ 005a8580     libifcoremt:for_diags_intel.obj
 0003:0000b5e0       ??_C@_0DG@A@Subscript?5?$CFd?5of?5?$CFs?5?$CIvalue?5?$CFd?$CJ?5is?5out?5of?5range?5?$CI?$CFd?3?$CFd?$CJ?$AA@ 005a85e0     libifcoremt:for_diags_intel.obj
 0003:0000b618       ??_C@_0DF@A@Subscript?5?$CFd?5of?5?$CFs?5?$CIvalue?5?$CFd?$CJ?5is?5out?5of?5range?5?$CI?$CFd?3?$CK?$CJ?$AA@ 005a8618     libifcoremt:for_diags_intel.obj
 0003:0000b650       ??_C@_0DK@A@VECTOR?5argument?5to?5PACK?5has?5incompatible?5character?5length?$AA@ 005a8650     libifcoremt:for_diags_intel.obj
 0003:0000b68c       ??_C@_0CF@A@VECTOR?5argument?5to?5PACK?5is?5too?5small?$AA@ 005a868c     libifcoremt:for_diags_intel.obj
 0003:0000b6c0       ??_C@_0EF@A@SOURCE?5and?5PAD?5arguments?5to?5RESHAPE?5have?5different?5character?5lengths?$AA@ 005a86c0     libifcoremt:for_diags_intel.obj
 0003:0000b720       ??_C@_0DE@A@Element?5?$CFd?5of?5SHAPE?5argument?5to?5RESHAPE?5is?5negative?$AA@ 005a8720     libifcoremt:for_diags_intel.obj
 0003:0000b754       ??_C@_0DM@A@SOURCE?5too?5small?5for?5specified?5SHAPE?5in?5RESHAPE?0?5and?5no?5PAD?$AA@ 005a8754     libifcoremt:for_diags_intel.obj
 0003:0000b790       ??_C@_0O@A@Out?5of?5memory?$AA@ 005a8790     libifcoremt:for_diags_intel.obj
 0003:0000b7a0       ??_C@_0EG@A@SHAPE?5and?5ORDER?5arguments?5to?5RESHAPE?5have?5different?5sizes?5?$CI?$CFd?5and?5?$CFd?$CJ?$AA@ 005a87a0     libifcoremt:for_diags_intel.obj
 0003:0000b800       ??_C@_0DN@A@Element?5?$CFd?5of?5ORDER?5argument?5to?5RESHAPE?5is?5out?5of?5range?5?$CI?$CFd?$CJ?$AA@ 005a8800     libifcoremt:for_diags_intel.obj
 0003:0000b840       ??_C@_0DD@A@Value?5?$CFd?5occurs?5twice?5in?5ORDER?5argument?5to?5RESHAPE?$AA@ 005a8840     libifcoremt:for_diags_intel.obj
 0003:0000b874       ??_C@_0CH@A@impossible?5nextelt?5overflow?5in?5RESHAPE?$AA@ 005a8874     libifcoremt:for_diags_intel.obj
 0003:0000b89c       ??_C@_0DP@A@Invalid?5value?5?$CFd?5for?5argument?5DIM?5for?5SPREAD?5of?5rank?5?$CFd?5source?$AA@ 005a889c     libifcoremt:for_diags_intel.obj
 0003:0000b8dc       ??_C@_0CC@A@Complex?5zero?5raised?5to?5power?5zero?$AA@ 005a88dc     libifcoremt:for_diags_intel.obj
 0003:0000b900       ??_C@_0CG@A@Complex?5zero?5raised?5to?5negative?5power?$AA@ 005a8900     libifcoremt:for_diags_intel.obj
 0003:0000b928       ??_C@_0CD@A@Impossible?5error?5in?5NAMELIST?5input?$AA@ 005a8928     libifcoremt:for_diags_intel.obj
 0003:0000b94c       ??_C@_0CM@A@DIM?5argument?5to?5CSHIFT?5?$CI?$CFd?$CJ?5is?5out?5of?5range?$AA@ 005a894c     libifcoremt:for_diags_intel.obj
 0003:0000b978       ??_C@_0DD@A@DIM?5argument?5?$CI?$CFd?$CJ?5to?5CSHIFT?5is?5out?5of?5range?5?$CI1?3?$CFd?$CJ?$AA@ 005a8978     libifcoremt:for_diags_intel.obj
 0003:0000b9c0       ??_C@_0EA@A@Shape?5mismatch?5?$CIdimension?5?$CFd?$CJ?5between?5ARRAY?5and?5SHIFT?5in?5CSHIFT?$AA@ 005a89c0     libifcoremt:for_diags_intel.obj
 0003:0000ba00       ??_C@_0CM@A@Internal?5Error?5?9?5bad?5arguments?5to?5cshift_ca?$AA@ 005a8a00     libifcoremt:for_diags_intel.obj
 0003:0000ba2c       ??_C@_0CN@A@Internal?5error?5?9?5bad?5arguments?5to?5cshift_caa?$AA@ 005a8a2c     libifcoremt:for_diags_intel.obj
 0003:0000ba5c       ??_C@_0DF@A@DATE?5argument?5to?5DATE_AND_TIME?5is?5too?5short?5?$CILEN?$DN?$CFd?$CJ?$AA@ 005a8a5c     libifcoremt:for_diags_intel.obj
 0003:0000ba94       ??_C@_0DF@A@TIME?5argument?5to?5DATE_AND_TIME?5is?5too?5short?5?$CILEN?$DN?$CFd?$CJ?$AA@ 005a8a94     libifcoremt:for_diags_intel.obj
 0003:0000bacc       ??_C@_0DF@A@ZONE?5argument?5to?5DATE_AND_TIME?5is?5too?5short?5?$CILEN?$DN?$CFd?$CJ?$AA@ 005a8acc     libifcoremt:for_diags_intel.obj
 0003:0000bb04       ??_C@_0DM@A@VALUES?5argument?5to?5DATE_AND_TIME?5is?5too?5small?5?$CI?$CFd?5elements?$CJ?$AA@ 005a8b04     libifcoremt:for_diags_intel.obj
 0003:0000bb40       ??_C@_0DB@A@Out?5of?5range?3?5DIM?5argument?5to?5COUNT?5has?5value?5?$CFd?$AA@ 005a8b40     libifcoremt:for_diags_intel.obj
 0003:0000bb80       ??_C@_0EG@A@Out?5of?5range?3?5DIM?5argument?5to?5COUNT?5has?5value?5?$CFd?5with?5MASK?5of?5rank?5?$CFd?$AA@ 005a8b80     libifcoremt:for_diags_intel.obj
 0003:0000bbe0       ??_C@_0DD@A@Out?5of?5range?3?5DIM?5argument?5to?5PRODUCT?5has?5value?5?$CFd?$AA@ 005a8be0     libifcoremt:for_diags_intel.obj
 0003:0000bc20       ??_C@_0EJ@A@Out?5of?5range?3?5DIM?5argument?5to?5PRODUCT?5has?5value?5?$CFd?5with?5ARRAY?5of?5rank?5?$CFd?$AA@ 005a8c20     libifcoremt:for_diags_intel.obj
 0003:0000bc80       ??_C@_0EF@A@Out?5of?5range?3?5DIM?5argument?5to?5SUM?5has?5value?5?$CFd?5with?5ARRAY?5of?5rank?5?$CFd?$AA@ 005a8c80     libifcoremt:for_diags_intel.obj
 0003:0000bce0       ??_C@_0CB@A@Real?5zero?5raised?5to?5zeroth?5power?$AA@ 005a8ce0     libifcoremt:for_diags_intel.obj
 0003:0000bd04       ??_C@_0CD@A@Real?5zero?5raised?5to?5negative?5power?$AA@ 005a8d04     libifcoremt:for_diags_intel.obj
 0003:0000bd28       ??_C@_0CP@A@Out?5of?5range?3?5DIM?5argument?5to?5SUM?5has?5value?5?$CFd?$AA@ 005a8d28     libifcoremt:for_diags_intel.obj
 0003:0000bd58       ??_C@_0DE@A@DIM?5argument?5?$CI?$CFd?$CJ?5to?5EOSHIFT?5is?5out?5of?5range?5?$CI1?3?$CFd?$CJ?$AA@ 005a8d58     libifcoremt:for_diags_intel.obj
 0003:0000bda0       ??_C@_0EE@A@Shape?5mismatch?5?$CIdimension?5?$CFd?$CJ?5between?5ARRAY?5and?5BOUNDARY?5in?5EOSHIFT?$AA@ 005a8da0     libifcoremt:for_diags_intel.obj
 0003:0000be00       ??_C@_0CN@A@DIM?5argument?5to?5EOSHIFT?5is?5out?5of?5range?5?$CI?$CFd?$CJ?$AA@ 005a8e00     libifcoremt:for_diags_intel.obj
 0003:0000be40       ??_C@_0EB@A@Shape?5mismatch?5?$CIdimension?5?$CFd?$CJ?5between?5ARRAY?5and?5SHIFT?5in?5EOSHIFT?$AA@ 005a8e40     libifcoremt:for_diags_intel.obj
 0003:0000bea0       ??_C@_0DO@A@BOUNDARY?5argument?5to?5EOSHIFT?5has?5wrong?5LEN?5?$CI?$CFd?5instead?5of?5?$CFd?$CJ?$AA@ 005a8ea0     libifcoremt:for_diags_intel.obj
 0003:0000bee0       ??_C@_0CN@A@BOUNDARY?5has?5LEN?5?$CFd?5instead?5of?5?$CFd?5to?5EOSHIFT?$AA@ 005a8ee0     libifcoremt:for_diags_intel.obj
 0003:0000bf10       ??_C@_0CK@A@Internal?5error?5?9?5bad?5arguments?5to?5EOSHIFT?$AA@ 005a8f10     libifcoremt:for_diags_intel.obj
 0003:0000bf3c       ??_C@_0CI@A@GETARG?3?5Value?5of?5K?5?$CI?$CFd?$CJ?5is?5out?5of?5range?$AA@ 005a8f3c     libifcoremt:for_diags_intel.obj
 0003:0000bf64       ??_C@_0CL@A@FLUSH?3?5Value?5of?5LUNIT?5?$CI?$CFd?$CJ?5is?5out?5of?5range?$AA@ 005a8f64     libifcoremt:for_diags_intel.obj
 0003:0000bf90       ??_C@_0CA@A@FLUSH?3?5Unit?5?$CFd?5is?5not?5connected?$AA@ 005a8f90     libifcoremt:for_diags_intel.obj
 0003:0000bfb0       ??_C@_0CE@A@Invalid?5string?5length?5?$CI?$CFd?$CJ?5to?5ICHAR?$AA@ 005a8fb0     libifcoremt:for_diags_intel.obj
 0003:0000bfd4       ??_C@_0CF@A@Invalid?5string?5length?5?$CI?$CFd?$CJ?5to?5IACHAR?$AA@ 005a8fd4     libifcoremt:for_diags_intel.obj
 0003:0000bffc       ??_C@_0CI@A@Integer?5zero?5raised?5to?5a?5negative?5power?$AA@ 005a8ffc     libifcoremt:for_diags_intel.obj
 0003:0000c024       ??_C@_0CE@A@Integer?5zero?5raised?5to?5zeroth?5power?$AA@ 005a9024     libifcoremt:for_diags_intel.obj
 0003:0000c048       ??_C@_0DE@A@SIZE?5argument?5?$CI?$CFd?$CJ?5to?5ISHFTC?5intrinsic?5out?5of?5range?$AA@ 005a9048     libifcoremt:for_diags_intel.obj
 0003:0000c07c       ??_C@_0DF@A@SHIFT?5argument?5?$CI?$CFd?$CJ?5to?5ISHFTC?5intrinsic?5out?5of?5range?$AA@ 005a907c     libifcoremt:for_diags_intel.obj
 0003:0000c0b4       ??_C@_0DC@A@Out?5of?5range?3?5DIM?5argument?5to?5LBOUND?5has?5value?5?$CFd?$AA@ 005a90b4     libifcoremt:for_diags_intel.obj
 0003:0000c100       ??_C@_0EH@A@Out?5of?5range?3?5DIM?5argument?5?$CI?$CFd?$CJ?5to?5LBOUND?5greater?5than?5array?5rank?5?$CI?$CFd?$CJ?$AA@ 005a9100     libifcoremt:for_diags_intel.obj
 0003:0000c160       ??_C@_0DC@A@Out?5of?5range?3?5DIM?5argument?5to?5MAXVAL?5has?5value?5?$CFd?$AA@ 005a9160     libifcoremt:for_diags_intel.obj
 0003:0000c1a0       ??_C@_0EI@A@Out?5of?5range?3?5DIM?5argument?5to?5MAXVAL?5has?5value?5?$CFd?5with?5ARRAY?5of?5rank?5?$CFd?$AA@ 005a91a0     libifcoremt:for_diags_intel.obj
 0003:0000c200       ??_C@_0DA@A@Cannot?5allocate?5array?5temporary?5?9?5out?5of?5memory?$AA@ 005a9200     libifcoremt:for_diags_intel.obj
 0003:0000c230       ??_C@_0CO@A@Attempt?5to?5DEALLOCATE?5part?5of?5a?5larger?5object?$AA@ 005a9230     libifcoremt:for_diags_intel.obj
 0003:0000c260       ??_C@_0DO@A@Pointer?5in?5DEALLOCATE?5is?5ASSOCIATED?5with?5an?5ALLOCATABLE?5array?$AA@ 005a9260     libifcoremt:for_diags_intel.obj
 0003:0000c2a0       ??_C@_0DI@A@Attempt?5to?5DEALLOCATE?5an?5object?5which?5was?5not?5ALLOCATEd?$AA@ 005a92a0     libifcoremt:for_diags_intel.obj
 0003:0000c2d8       ??_C@_0CP@A@Cannot?5ALLOCATE?5scalar?5POINTER?5?9?5out?5of?5memory?$AA@ 005a92d8     libifcoremt:for_diags_intel.obj
 0003:0000c308       ??_C@_0CM@A@DEALLOCATE?3?5object?5not?5allocated?1associated?$AA@ 005a9308     libifcoremt:for_diags_intel.obj
 0003:0000c334       ??_C@_0CO@A@Cannot?5allocate?5POINTER?5array?5?9?5out?5of?5memory?$AA@ 005a9334     libifcoremt:for_diags_intel.obj
 0003:0000c364       ??_C@_0CA@A@DEALLOCATE?3?5Array?5not?5allocated?$AA@ 005a9364     libifcoremt:for_diags_intel.obj
 0003:0000c384       ??_C@_0CK@A@DEALLOCATE?3?5Character?5array?5not?5allocated?$AA@ 005a9384     libifcoremt:for_diags_intel.obj
 0003:0000c3b0       ??_C@_0DC@A@Cannot?5ALLOCATE?5ALLOCATABLE?5array?5?9?5out?5of?5memory?$AA@ 005a93b0     libifcoremt:for_diags_intel.obj
 0003:0000c3e4       ??_C@_0DD@A@Cannot?5allocate?5automatic?5variable?5?9?5out?5of?5memory?$AA@ 005a93e4     libifcoremt:for_diags_intel.obj
 0003:0000c418       ??_C@_0DH@A@DEALLOCATE?5failure?3?5ALLOCATABLE?5array?5is?5not?5ALLOCATEd?$AA@ 005a9418     libifcoremt:for_diags_intel.obj
 0003:0000c450       ??_C@_0DC@A@Out?5of?5range?3?5DIM?5argument?5to?5MINVAL?5has?5value?5?$CFd?$AA@ 005a9450     libifcoremt:for_diags_intel.obj
 0003:0000c4a0       ??_C@_0EI@A@Out?5of?5range?3?5DIM?5argument?5to?5MINVAL?5has?5value?5?$CFd?5with?5ARRAY?5of?5rank?5?$CFd?$AA@ 005a94a0     libifcoremt:for_diags_intel.obj
 0003:0000c500       ??_C@_0CL@A@P?5argument?5to?5MOD?5is?5double?5precision?5zero?$AA@ 005a9500     libifcoremt:for_diags_intel.obj
 0003:0000c52c       ??_C@_0CC@A@P?5argument?5to?5MOD?5is?5integer?5zero?$AA@ 005a952c     libifcoremt:for_diags_intel.obj
 0003:0000c550       ??_C@_0BP@A@P?5argument?5to?5MOD?5is?5real?5zero?$AA@ 005a9550     libifcoremt:for_diags_intel.obj
 0003:0000c570       ??_C@_0CC@A@P?5argument?5to?5MODULO?5is?5real?5zero?$AA@ 005a9570     libifcoremt:for_diags_intel.obj
 0003:0000c594       ??_C@_0BN@A@P?5argument?5to?5modulo?5is?5zero?$AA@ 005a9594     libifcoremt:for_diags_intel.obj
 0003:0000c5b4       ??_C@_0BO@A@Argument?5S?5to?5NEAREST?5is?5zero?$AA@ 005a95b4     libifcoremt:for_diags_intel.obj
 0003:0000c5d4       ??_C@_0BH@A@Heap?5Storage?5Exhausted?$AA@ 005a95d4     libifcoremt:for_diags_intel.obj
 0003:0000c5ec       ??_C@_0CJ@A@PUT?5argument?5to?5RANDOM_SEED?5is?5too?5small?$AA@ 005a95ec     libifcoremt:for_diags_intel.obj
 0003:0000c618       ??_C@_0CJ@A@GET?5argument?5to?5RANDOM_SEED?5is?5too?5small?$AA@ 005a9618     libifcoremt:for_diags_intel.obj
 0003:0000c644       ??_C@_0BI@A@Recursive?5i?1o?5reference?$AA@ 005a9644     libifcoremt:for_diags_intel.obj
 0003:0000c65c       ??_C@_0CL@A@Argument?5to?5SHAPE?5intrinsic?5is?5not?5PRESENT?$AA@ 005a965c     libifcoremt:for_diags_intel.obj
 0003:0000c688       ??_C@_0DC@A@Out?5of?5range?3?5DIM?5argument?5to?5UBOUND?5has?5value?5?$CFd?$AA@ 005a9688     libifcoremt:for_diags_intel.obj
 0003:0000c6c0       ??_C@_0EH@A@Out?5of?5range?3?5DIM?5argument?5?$CI?$CFd?$CJ?5to?5UBOUND?5greater?5than?5array?5rank?5?$CI?$CFd?$CJ?$AA@ 005a96c0     libifcoremt:for_diags_intel.obj
 0003:0000c720       ??_C@_0DP@A@Out?5of?5range?3?5UBOUND?5of?5assumed?9size?5array?5with?5DIM?$DN?$DNrank?5?$CI?$CFd?$CJ?$AA@ 005a9720     libifcoremt:for_diags_intel.obj
 0003:0000c760       ??_C@_0EC@A@Out?5of?5range?3?5DIM?5argument?5?$CI?$CFd?$CJ?5to?5UBOUND?5greater?5than?5array?5rank?$AA@ 005a9760     libifcoremt:for_diags_intel.obj
 0003:0000c7c0       ??_C@_0DD@A@Shape?5mismatch?3?5Dimension?5?$CFd?5extents?5are?5?$CFd?5and?5?$CFd?$AA@ 005a97c0     libifcoremt:for_diags_intel.obj
 0003:0000c7f4       ??_C@_0BH@A@Illegal?5POSITION?5value?$AA@ 005a97f4     libifcoremt:for_diags_intel.obj
 0003:0000c80c       ??_C@_0BF@A@Illegal?5ACTION?5value?$AA@ 005a980c     libifcoremt:for_diags_intel.obj
 0003:0000c824       ??_C@_0DF@A@DELIM?$DN?5specifier?5not?5allowed?5for?5an?5UNFORMATTED?5file?$AA@ 005a9824     libifcoremt:for_diags_intel.obj
 0003:0000c85c       ??_C@_0BE@A@Illegal?5DELIM?5value?$AA@ 005a985c     libifcoremt:for_diags_intel.obj
 0003:0000c870       ??_C@_0DD@A@PAD?$DN?5specifier?5not?5allowed?5for?5an?5UNFORMATTED?5file?$AA@ 005a9870     libifcoremt:for_diags_intel.obj
 0003:0000c8a4       ??_C@_0BC@A@illegal?5PAD?5value?$AA@ 005a98a4     libifcoremt:for_diags_intel.obj
 0003:0000c8b8       ??_C@_0BO@A@illegal?5CARRIAGECONTROL?5value?$AA@ 005a98b8     libifcoremt:for_diags_intel.obj
 0003:0000c8d8       ??_C@_0CM@A@SIZE?5specifier?5only?5allowed?5with?5ADVANCE?$DNNO?$AA@ 005a98d8     libifcoremt:for_diags_intel.obj
 0003:0000c904       ??_C@_0CC@A@illegal?5character?5in?5binary?5input?$AA@ 005a9904     libifcoremt:for_diags_intel.obj
 0003:0000c928       ??_C@_0CB@A@illegal?5character?5in?5octal?5input?$AA@ 005a9928     libifcoremt:for_diags_intel.obj
 0003:0000c94c       ??_C@_0BK@A@End?5of?5record?5encountered?$AA@ 005a994c     libifcoremt:for_diags_intel.obj
 0003:0000c968       ??_C@_0CK@A@Illegal?5subcript?5in?5namelist?5input?5record?$AA@ 005a9968     libifcoremt:for_diags_intel.obj
 0003:0000c994       ??_C@_0CG@A@Error?5reported?5by?5?8EnumSystemLocales?8?$AA@ 005a9994     libifcoremt:for_diags_intel.obj
 0003:0000c9bc       ??_C@_0CE@A@Cannot?5set?5environment?5variable?5?$CFs?4?$AA@ 005a99bc     libifcoremt:for_diags_intel.obj
 0003:0000c9e0       ??_C@_0N@A@place?5holder?$AA@ 005a99e0     libifcoremt:for_diags_intel.obj
 0003:0000ca00       ??_C@_0EH@A@A?5SYNC?5ALL?5statement?5could?5not?5perform?5a?5synchronization?5of?5all?5images?$AA@ 005a9a00     libifcoremt:for_diags_intel.obj
 0003:0000ca60       ??_C@_0EH@A@Image?5number?5?$CFd?5is?5not?5a?5valid?5image?5number?$DL?5valid?5numbers?5are?51?5to?5?$CFd?$AA@ 005a9a60     libifcoremt:for_diags_intel.obj
 0003:0000cac0       ??_C@_0DM@A@Image?9set?5array?5expression?5must?5not?5contain?5repeated?5values?$AA@ 005a9ac0     libifcoremt:for_diags_intel.obj
 0003:0000cb00       ??_C@_0EP@A@The?5lock?5variable?5in?5a?5LOCK?5statement?5is?5already?5locked?5by?5the?5executing?5image?$AA@ 005a9b00     libifcoremt:for_diags_intel.obj
 0003:0000cb60       ??_C@_0FG@A@The?5lock?5variable?5in?5an?5UNLOCK?5statement?5is?5not?5already?5locked?5by?5the?5executing?5image?$AA@ 005a9b60     libifcoremt:for_diags_intel.obj
 0003:0000cbc0       ??_C@_0EJ@A@The?5lock?5variable?5in?5a?5LOCK?5statement?5is?5already?5locked?5by?5another?5image?$AA@ 005a9bc0     libifcoremt:for_diags_intel.obj
 0003:0000cc20       ??_C@_0DK@A@One?5of?5the?5images?5to?5be?5synchronized?5with?5has?5terminated?4?$AA@ 005a9c20     libifcoremt:for_diags_intel.obj
 0003:0000cc5c       ??_C@_0BF@A@In?5coarray?5image?5?$CFd?6?$AA@ 005a9c5c     libifcoremt:for_diags_intel.obj
 0003:0000cc80       ??_C@_0EE@A@The?5lock?5variable?5in?5an?5UNLOCK?5statement?5is?5locked?5by?5another?5image?$AA@ 005a9c80     libifcoremt:for_diags_intel.obj
 0003:0000cce0       ??_C@_0CE@A@Only?5image?51?5may?5read?5from?5unit?5?8?$CK?8?$AA@ 005a9ce0     libifcoremt:for_diags_intel.obj
 0003:0000cd04       ??_C@_0BD@A@for_rtl_THIS_IMAGE?$AA@ 005a9d04     libifcoremt:for_diags_intel.obj
 0003:0000cd18       ??_C@_03A@?$CFs?6?$AA@     005a9d18     libifcoremt:for_diags_intel.obj
 0003:0000cd1c       ??_C@_0BI@A@FOR_DEBUGGER_IS_PRESENT?$AA@ 005a9d1c     libifcoremt:for_diags_intel.obj
 0003:0000cd34       ??_C@_0BI@A@FOR_DISABLE_STACK_TRACE?$AA@ 005a9d34     libifcoremt:for_diags_intel.obj
 0003:0000cd4c       ??_C@_0BG@A@FOR_FORCE_STACK_TRACE?$AA@ 005a9d4c     libifcoremt:for_diags_intel.obj
 0003:0000cd64       ??_C@_05A@?$CFs?$CFs?6?$AA@ 005a9d64     libifcoremt:for_diags_intel.obj
 0003:0000cd6c       ??_C@_0BC@A@decfort_dump_flag?$AA@ 005a9d6c     libifcoremt:for_diags_intel.obj
 0003:0000cd80       ??_C@_0O@A@f77_dump_flag?$AA@ 005a9d80     libifcoremt:for_diags_intel.obj
 0003:0000cd90       ??_C@_04A@?$CC?$CFs?$CC?$AA@ 005a9d90     libifcoremt:for_diags_intel.obj
 0003:0000cd98       ??_C@_0BC@A@for_diags_intel?4c?$AA@ 005a9d98     libifcoremt:for_diags_intel.obj
 0003:0000cdac       ??_C@_00A@?$AA@            005a9dac     libifcoremt:for_diags_intel.obj
 0003:0000cdb0       ??_C@_08A@No?5error?$AA@   005a9db0     libifcoremt:for_diags_intel.obj
 0003:0000cdbc       ??_C@_0BD@A@for_rtl_ICAF_ABORT?$AA@ 005a9dbc     libifcoremt:for_diags_intel.obj
 0003:0000cdd0       ??_C@_05A@FORT0?$AA@       005a9dd0     libifcoremt:for_diags_intel.obj
 0003:0000cdd8       ??_C@_01A@a?$AA@           005a9dd8     libifcoremt:for_diags_intel.obj
 0003:0000cddc       ??_C@_0M@A@MessageBoxA?$AA@ 005a9ddc     libifcoremt:for_diags_intel.obj
 0003:0000cde8       ??_C@_0BI@A@FOR_DIAGNOSTIC_LOG_FILE?$AA@ 005a9de8     libifcoremt:for_diags_intel.obj
 0003:0000ce00       ??_C@_0BP@A@FOR_DISABLE_DIAGNOSTIC_DISPLAY?$AA@ 005a9e00     libifcoremt:for_diags_intel.obj
 0003:0000ce20       ??_C@_0L@A@user32?4dll?$AA@ 005a9e20     libifcoremt:for_diags_intel.obj
 0003:0000ce2c       ??_C@_06A@?$CFs?3?5?$CFs?$AA@ 005a9e2c     libifcoremt:for_diags_intel.obj
 0003:0000ce34       ??_C@_06A@?$CFlu?1?$CFs?$AA@ 005a9e34     libifcoremt:for_diags_intel.obj
 0003:0000ce3c       ??_C@_0P@A@ifcore_msg?4dll?$AA@ 005a9e3c     libifcoremt:for_diags_intel.obj
 0003:0000cf64       ??_C@_0BF@A@for_common_inquire?4c?$AA@ 005a9f64     libifcoremt:for_common_inquire.obj
 0003:0000cf7c       ??_C@_06A@NODENY?$AA@      005a9f7c     libifcoremt:for_common_inquire.obj
 0003:0000cf84       ??_C@_0N@A@kernel32?4dll?$AA@ 005a9f84     libifcoremt:for_aio.obj
 0003:0000cf94       ??_C@_0L@A@OpenThread?$AA@ 005a9f94     libifcoremt:for_aio.obj
 0003:0000d004       ??_C@_01A@?0?$AA@          005aa004     libifcoremt:for_nt_open_proc.obj
 0003:0000d008       ??_C@_04A@USER?$AA@        005aa008     libifcoremt:for_nt_open_proc.obj
 0003:0000d010       ??_C@_0BN@A@FOR_DO_NOT_CACHE_DIRECT_FILE?$AA@ 005aa010     libifcoremt:for_nt_open_proc.obj
 0003:0000d030       ??_C@_0BD@A@for_nt_open_proc?4c?$AA@ 005aa030     libifcoremt:for_nt_open_proc.obj
 0003:0000d044       ??_C@_0O@A@FORT_BUFFERED?$AA@ 005aa044     libifcoremt:for_nt_open_proc.obj
 0003:0000d054       ??_C@_0BJ@A@FORT_BUFFERING_THRESHOLD?$AA@ 005aa054     libifcoremt:for_nt_open_proc.obj
 0003:0000d070       ??_C@_0BD@A@FORT_BUFFER_STDOUT?$AA@ 005aa070     libifcoremt:for_nt_open_proc.obj
 0003:0000d084       ??_C@_07A@Unit?5?$CFi?$AA@ 005aa084     libifcoremt:for_nt_open_proc.obj
 0003:0000d08c       ??_C@_0BI@A@FORT_FMT_NO_WRAP_MARGIN?$AA@ 005aa08c     libifcoremt:for_nt_open_proc.obj
 0003:0000d0a4       ??_C@_06A@FORT?$CFd?$AA@   005aa0a4     libifcoremt:for_nt_open_proc.obj
 0003:0000d0ac       ??_C@_07A@fort?4?$CFd?$AA@ 005aa0ac     libifcoremt:for_nt_open_proc.obj
 0003:0000d0b4       ??_C@_0M@A@FORT_TMPDIR?$AA@ 005aa0b4     libifcoremt:for_nt_open_proc.obj
 0003:0000d0c0       ??_C@_03A@FOR?$AA@         005aa0c0     libifcoremt:for_nt_open_proc.obj
 0003:0000d0c4       ??_C@_04A@?$CFs?$CFd?$AA@  005aa0c4     libifcoremt:for_nt_open_proc.obj
 0003:0000d0cc       ??_C@_0BM@A@Open?3?5Select?5File?5for?5Unit?5?$AA@ 005aa0cc     libifcoremt:for_nt_open_proc.obj
 0003:0000d0e8       ??_C@_0CM@A@A?5File?5Must?5be?5Selected?$AN?$ANTerminate?5Program?$DP?$AA@ 005aa0e8     libifcoremt:for_nt_open_proc.obj
 0003:0000d114       ??_C@_0BA@A@File?5Open?5Error?$AA@ 005aa114     libifcoremt:for_nt_open_proc.obj
 0003:0000d124       ??_C@_04A@?$CFs?$AN?6?$AA@ 005aa124     libifcoremt:for_nt_open_proc.obj
 0003:0000d1b0       ??_C@_09A@for_put?4c?$AA@  005aa1b0     libifcoremt:for_put.obj
 0003:0000d1c0       _for__dsc_itm_table        005aa1c0     libifcoremt:for_desc_item.obj
 0003:0000d278       ??_C@_0BA@A@for_desc_item?4c?$AA@ 005aa278     libifcoremt:for_desc_item.obj
 0003:0000d46c       ??_C@_0P@A@for_fmt_comp?4c?$AA@ 005aa46c     libifcoremt:for_fmt_comp.obj
 0003:0000d490       ??_C@_09A@for_get?4c?$AA@  005aa490     libifcoremt:for_get.obj
 0003:0000d49c       ??_C@_02A@?$AN?6?$AA@      005aa49c     libifcoremt:for_get.obj
 0003:0000d620       _for__oz_fmt_table         005aa620     libifcoremt:for_intrp_fmt.obj
 0003:0000d680       _for__b_fmt_table          005aa680     libifcoremt:for_intrp_fmt.obj
 0003:0000d720       _for__fedg_fmt_table       005aa720     libifcoremt:for_intrp_fmt.obj
 0003:0000d800       _for__coerce_data_types    005aa800     libifcoremt:for_intrp_fmt.obj
 0003:0000da83       _for__i_fmt_table          005aaa83     libifcoremt:for_intrp_fmt.obj
 0003:0000db98       ??_C@_0BA@A@for_intrp_fmt?4c?$AA@ 005aab98     libifcoremt:for_intrp_fmt.obj
 0003:0000de00       ??_C@_02A@?$CFu?$AA@       005aae00     libifcoremt:for_io_util.obj
 0003:0000e1c4       ??_C@_0N@A@?$CFs?5?$CG?$CG?5DEL?5?$CFs?$AA@ 005ab1c4     libifcoremt:for_close_proc.obj
 0003:0000e1d4       ??_C@_0BJ@A@FOR_DEFAULT_PRINT_DEVICE?$AA@ 005ab1d4     libifcoremt:for_close_proc.obj
 0003:0000e1f0       ??_C@_03A@PRN?$AA@         005ab1f0     libifcoremt:for_close_proc.obj
 0003:0000e1f4       ??_C@_0BM@A@Command?4com?5?1C?5COPY?5?$CC?$CFs?$CC?5?$CFs?$AA@ 005ab1f4     libifcoremt:for_close_proc.obj
 0003:0000e210       ??_C@_0BI@A@Cmd?4exe?5?1C?5COPY?5?$CC?$CFs?$CC?5?$CFs?$AA@ 005ab210     libifcoremt:for_close_proc.obj
 0003:0000e228       ??_C@_0BG@A@for_rtl_ICAF_FINALIZE?$AA@ 005ab228     libifcoremt:for_exit_handler.obj
 0003:0000e240       ??_C@_0BD@A@for_exit_handler?4c?$AA@ 005ab240     libifcoremt:for_exit_handler.obj
 0003:0000e260       _for__wfs_table            005ab260     libifcoremt:for_ldir_wfs.obj
 0003:0000e380       _for__wfs_msf_table        005ab380     libifcoremt:for_ldir_wfs.obj
 0003:0000e4a0       _nAvSignature              005ab4a0     libifcoremt:for_avalloc.obj
 0003:0000e4a4       ??_C@_04A@?$CF08X?$AA@     005ab4a4     libifcoremt:for_avalloc.obj
 0003:0000e4ac       ??_C@_0M@A@?90000?90000?9?$AA@ 005ab4ac     libifcoremt:for_avalloc.obj
 0003:0000e4b8       ??_C@_04A@?$CF02X?$AA@     005ab4b8     libifcoremt:for_avalloc.obj
 0003:0000e4c0       ??_C@_01A@?9?$AA@          005ab4c0     libifcoremt:for_avalloc.obj
 0003:0000e4c4       ??_C@_01A@?$HN?$AA@        005ab4c4     libifcoremt:for_avalloc.obj
 0003:0000e4c8       ??_C@_0P@A@FORT_BLOCKSIZE?$AA@ 005ab4c8     libifcoremt:for_default_io_sizes_env_init.obj
 0003:0000e4d8       ??_C@_0BB@A@FORT_BUFFERCOUNT?$AA@ 005ab4d8     libifcoremt:for_default_io_sizes_env_init.obj
 0003:0000e4ec       ??_C@_0O@A@FORT_FMT_RECL?$AA@ 005ab4ec     libifcoremt:for_default_io_sizes_env_init.obj
 0003:0000e4fc       ??_C@_0P@A@FORT_UFMT_RECL?$AA@ 005ab4fc     libifcoremt:for_default_io_sizes_env_init.obj
 0003:0000e50c       ??_C@_0BP@A@FOR_ENABLE_VERBOSE_STACK_TRACE?$AA@ 005ab50c     libifcoremt:tbk_traceback.obj
 0003:0000e52c       ??_C@_0BP@A@TBK_ENABLE_VERBOSE_STACK_TRACE?$AA@ 005ab52c     libifcoremt:tbk_traceback.obj
 0003:0000e54c       ??_C@_0DF@A@?6Hex?5Dump?5Of?5Exception?5Record?5Context?5Information?3?6?6?$AA@ 005ab54c     libifcoremt:tbk_traceback.obj
 0003:0000e584       ??_C@_0DI@A@?$CFs?6?6?$CFs?$CF8?48lX?6?$CFs?$CF8?48lX?$CFs?$CF8?48lX?$CFs?$CF8?48lX?$CFs?$CF8?48lX?$CFs?$CF8?48lX?6?6?$AA@ 005ab584     libifcoremt:tbk_traceback.obj
 0003:0000e5bc       ??_C@_0DM@A@Exception?5Context?3?5?5Processor?5Control?5and?5Status?5Registers?4?$AA@ 005ab5bc     libifcoremt:tbk_traceback.obj
 0003:0000e5f8       ??_C@_09A@EFlags?3?5?5?$AA@ 005ab5f8     libifcoremt:tbk_traceback.obj
 0003:0000e604       ??_C@_05A@CS?3?5?5?$AA@    005ab604     libifcoremt:tbk_traceback.obj
 0003:0000e60c       ??_C@_08A@?5?5EIP?3?5?5?$AA@ 005ab60c     libifcoremt:tbk_traceback.obj
 0003:0000e618       ??_C@_08A@?5?5SS?3?5?5?5?$AA@ 005ab618     libifcoremt:tbk_traceback.obj
 0003:0000e624       ??_C@_08A@?5?5ESP?3?5?5?$AA@ 005ab624     libifcoremt:tbk_traceback.obj
 0003:0000e630       ??_C@_08A@?5?5EBP?3?5?5?$AA@ 005ab630     libifcoremt:tbk_traceback.obj
 0003:0000e63c       ??_C@_0DI@A@?$CFs?6?6?$CFs?$CF8?48lX?$CFs?$CF8?48lX?$CFs?$CF8?48lX?$CFs?$CF8?48lX?6?$CFs?$CF8?48lX?$CFs?$CF8?48lX?6?6?$AA@ 005ab63c     libifcoremt:tbk_traceback.obj
 0003:0000e674       ??_C@_0DB@A@Exception?5Context?3?5?5Processor?5Integer?5Registers?4?$AA@ 005ab674     libifcoremt:tbk_traceback.obj
 0003:0000e6a8       ??_C@_05A@EAX?3?5?$AA@     005ab6a8     libifcoremt:tbk_traceback.obj
 0003:0000e6b0       ??_C@_08A@?5?5EBX?3?5?5?$AA@ 005ab6b0     libifcoremt:tbk_traceback.obj
 0003:0000e6bc       ??_C@_08A@?5?5ECX?3?5?5?$AA@ 005ab6bc     libifcoremt:tbk_traceback.obj
 0003:0000e6c8       ??_C@_08A@?5?5EDX?3?5?5?$AA@ 005ab6c8     libifcoremt:tbk_traceback.obj
 0003:0000e6d4       ??_C@_05A@ESI?3?5?$AA@     005ab6d4     libifcoremt:tbk_traceback.obj
 0003:0000e6dc       ??_C@_08A@?5?5EDI?3?5?5?$AA@ 005ab6dc     libifcoremt:tbk_traceback.obj
 0003:0000e6e8       ??_C@_0CH@A@?$CFs?6?6?$CFs?$CF8?48lX?$CFs?$CF8?48lX?$CFs?$CF8?48lX?$CFs?$CF8?48lX?6?6?$AA@ 005ab6e8     libifcoremt:tbk_traceback.obj
 0003:0000e710       ??_C@_0DB@A@Exception?5Context?3?5?5Processor?5Segment?5Registers?4?$AA@ 005ab710     libifcoremt:tbk_traceback.obj
 0003:0000e744       ??_C@_05A@DS?3?5?5?$AA@    005ab744     libifcoremt:tbk_traceback.obj
 0003:0000e74c       ??_C@_08A@?5?5ES?3?5?5?5?$AA@ 005ab74c     libifcoremt:tbk_traceback.obj
 0003:0000e758       ??_C@_08A@?5?5FS?3?5?5?5?$AA@ 005ab758     libifcoremt:tbk_traceback.obj
 0003:0000e764       ??_C@_08A@?5?5GS?3?5?5?5?$AA@ 005ab764     libifcoremt:tbk_traceback.obj
 0003:0000e780       ??_C@_0PB@A@?$CFs?6?6?$CFs?$CF8?48lX?$CFs?$CF8?48lX?$CFs?$CF8?48lX?6?$CFs?$CF8?48lX?$CFs?$CF8?48lX?$CFs?$CF8?48lX?6?$CFs?$CF8?48lX?$CFs?$CF8?48lX?6?6?$CFs?6?6?$CFs?$CF4?44hX?$CF8?48lX?$CF8?48lX?$CFs?$CF4?44hX?$CF8?48lX?$CF8?48lX?6?$CFs?$CF4?44hX?$CF8?48lX?$CF8?48lX?$CFs?$CF4?44hX?$CF8?48lX?$CF8?48lX?6?$CFs?$CF4?44hX?$CF8?48lX?$CF8?48lX?$CFs?$CF4?44hX?$CF8?48lX?$CF8?48lX?6?$CFs?$CF4?44hX?$CF8?48lX?$CF8?48lX?$CFs?$CF4?44hX?$CF8?48lX?$CF8?48lX?6?$AA@ 005ab780     libifcoremt:tbk_traceback.obj
 0003:0000e880       ??_C@_0EB@A@Exception?5Context?3?5?5Floating?5Point?5Control?5and?5Status?5Registers?4?$AA@ 005ab880     libifcoremt:tbk_traceback.obj
 0003:0000e8e0       ??_C@_0P@A@ControlWord?3?5?5?$AA@ 005ab8e0     libifcoremt:tbk_traceback.obj
 0003:0000e8f0       ??_C@_0BD@A@?5?5ErrorOffset?3?5?5?5?5?$AA@ 005ab8f0     libifcoremt:tbk_traceback.obj
 0003:0000e904       ??_C@_0BC@A@?5?5DataOffset?3?5?5?5?5?$AA@ 005ab904     libifcoremt:tbk_traceback.obj
 0003:0000e918       ??_C@_0P@A@StatusWord?3?5?5?5?$AA@ 005ab918     libifcoremt:tbk_traceback.obj
 0003:0000e928       ??_C@_0BD@A@?5?5ErrorSelector?3?5?5?$AA@ 005ab928     libifcoremt:tbk_traceback.obj
 0003:0000e93c       ??_C@_0BC@A@?5?5DataSelector?3?5?5?$AA@ 005ab93c     libifcoremt:tbk_traceback.obj
 0003:0000e950       ??_C@_0P@A@TagWord?3?5?5?5?5?5?5?$AA@ 005ab950     libifcoremt:tbk_traceback.obj
 0003:0000e960       ??_C@_0BD@A@?5?5Cr0NpxState?3?5?5?5?5?$AA@ 005ab960     libifcoremt:tbk_traceback.obj
 0003:0000e974       ??_C@_0DB@A@Exception?5Context?3?5?5Floating?5Point?5RegisterArea?4?$AA@ 005ab974     libifcoremt:tbk_traceback.obj
 0003:0000e9a8       ??_C@_0BE@A@RegisterArea?$FL00?$FN?3?5?5?$AA@ 005ab9a8     libifcoremt:tbk_traceback.obj
 0003:0000e9bc       ??_C@_0BG@A@?5?5RegisterArea?$FL10?$FN?3?5?5?$AA@ 005ab9bc     libifcoremt:tbk_traceback.obj
 0003:0000e9d4       ??_C@_0BE@A@RegisterArea?$FL20?$FN?3?5?5?$AA@ 005ab9d4     libifcoremt:tbk_traceback.obj
 0003:0000e9e8       ??_C@_0BG@A@?5?5RegisterArea?$FL30?$FN?3?5?5?$AA@ 005ab9e8     libifcoremt:tbk_traceback.obj
 0003:0000ea00       ??_C@_0BE@A@RegisterArea?$FL40?$FN?3?5?5?$AA@ 005aba00     libifcoremt:tbk_traceback.obj
 0003:0000ea14       ??_C@_0BG@A@?5?5RegisterArea?$FL50?$FN?3?5?5?$AA@ 005aba14     libifcoremt:tbk_traceback.obj
 0003:0000ea2c       ??_C@_0BE@A@RegisterArea?$FL60?$FN?3?5?5?$AA@ 005aba2c     libifcoremt:tbk_traceback.obj
 0003:0000ea40       ??_C@_0BG@A@?5?5RegisterArea?$FL70?$FN?3?5?5?$AA@ 005aba40     libifcoremt:tbk_traceback.obj
 0003:0000ea58       ??_C@_01A@?6?$AA@          005aba58     libifcoremt:tbk_traceback.obj
 0003:0000eb60       ??_C@_0BB@A@0123456789ABCDEF?$AA@ 005abb60     libifcoremt:cvt_data_to_text.obj
 0003:0000eb84       ??_C@_08A@Infinity?$AA@    005abb84     libifcoremt:cvt_cvtas_x.obj
 0003:0000eba0       _vax_c                     005abba0     libifcoremt:cvt__globals.obj
 0003:0000ebe0       _ieee_t                    005abbe0     libifcoremt:cvt__globals.obj
 0003:0000ec50       _ieee_s                    005abc50     libifcoremt:cvt__globals.obj
 0003:0000ec88       _ibm_s                     005abc88     libifcoremt:cvt__globals.obj
 0003:0000eca4       _ibm_l                     005abca4     libifcoremt:cvt__globals.obj
 0003:0000ecdc       _cray                      005abcdc     libifcoremt:cvt__globals.obj
 0003:0000ed14       _int_c                     005abd14     libifcoremt:cvt__globals.obj
 0003:0000ed60       ??_C@_03A@nan?$AA@         005abd60     libifcoremt:cvtas_x_to_a.obj
 0003:0000ed64       ??_C@_03A@NaN?$AA@         005abd64     libifcoremt:cvtas_x_to_a.obj
 0003:0000ed68       ??_C@_08A@infinity?$AA@    005abd68     libifcoremt:cvtas_x_to_a.obj
 0003:0000f160       _cvtas_pten_128            005ac160     libifcoremt:cvtas_pow_ten_128.obj
 0003:0000f320       _cvtas_tiny_tiny_pten_128  005ac320     libifcoremt:cvtas_pow_ten_128.obj
 0003:0000f360       _cvtas_tiny_pten_128       005ac360     libifcoremt:cvtas_pow_ten_128.obj
 0003:0000f400       _cvtas_tiny_pten_128_map   005ac400     libifcoremt:cvtas_pow_ten_128.obj
 0003:0000f4a0       _cvtas_huge_huge_pten_128  005ac4a0     libifcoremt:cvtas_pow_ten_128.obj
 0003:0000f4e0       _cvtas_huge_pten_128       005ac4e0     libifcoremt:cvtas_pow_ten_128.obj
 0003:0000f580       _cvtas_huge_pten_128_map   005ac580     libifcoremt:cvtas_pow_ten_128.obj
 0003:0000f608       _cvtas_pten_128_bexp       005ac608     libifcoremt:cvtas_pow_ten_128.obj
 0003:0000f63e       _cvtas_tiny_tiny_pten_128_bexp 005ac63e     libifcoremt:cvtas_pow_ten_128.obj
 0003:0000f646       _cvtas_tiny_pten_128_bexp  005ac646     libifcoremt:cvtas_pow_ten_128.obj
 0003:0000f65a       _cvtas_huge_huge_pten_128_bexp 005ac65a     libifcoremt:cvtas_pow_ten_128.obj
 0003:0000f662       _cvtas_huge_pten_128_bexp  005ac662     libifcoremt:cvtas_pow_ten_128.obj
 0003:0000f680       _cvtas_pten_64             005ac680     libifcoremt:cvtas_pow_ten_64.obj
 0003:0000f980       _cvtas_pten_64_bexp        005ac980     libifcoremt:cvtas_pow_ten_64.obj
 0003:0000fa40       _cvtas_tiny_pten_64        005aca40     libifcoremt:cvtas_pow_ten_64.obj
 0003:0000fac0       _cvtas_tiny_pten_64_map    005acac0     libifcoremt:cvtas_pow_ten_64.obj
 0003:0000fb40       _cvtas_huge_pten_64        005acb40     libifcoremt:cvtas_pow_ten_64.obj
 0003:0000fbc0       _cvtas_huge_pten_64_map    005acbc0     libifcoremt:cvtas_pow_ten_64.obj
 0003:0000fc1a       _cvtas_tiny_pten_64_bexp   005acc1a     libifcoremt:cvtas_pow_ten_64.obj
 0003:0000fc38       _cvtas_huge_pten_64_bexp   005acc38     libifcoremt:cvtas_pow_ten_64.obj
 0003:0000fc60       _cvtas_globals_t           005acc60     libifcoremt:cvtas_globals.obj
 0003:0000fcc0       _cvtas_globals_x           005accc0     libifcoremt:cvtas_globals.obj
 0003:0000fd20       _cvtas_pten_word           005acd20     libifcoremt:cvtas_globals.obj
 0003:0000fd48       _cvtas_globals_s           005acd48     libifcoremt:cvtas_globals.obj
 0003:0000fd60       _cvtas_pten_t              005acd60     libifcoremt:cvtas_pow_ten_53.obj
 0003:00010060       _cvtas_tiny_pten_t         005ad060     libifcoremt:cvtas_pow_ten_53.obj
 0003:00010100       _cvtas_tiny_pten_t_map     005ad100     libifcoremt:cvtas_pow_ten_53.obj
 0003:00010160       _cvtas_huge_pten_t         005ad160     libifcoremt:cvtas_pow_ten_53.obj
 0003:000101e0       _cvtas_huge_pten_t_map     005ad1e0     libifcoremt:cvtas_pow_ten_53.obj
 0003:00015da0       ??_C@_0N@A@GENERIC_IA32?$AA@ 005b2da0     libirc:new_proc_init.obj
 0003:00015db0       ??_C@_03A@X87?$AA@         005b2db0     libirc:new_proc_init.obj
 0003:00015db4       ??_C@_04A@CMOV?$AA@        005b2db4     libirc:new_proc_init.obj
 0003:00015dbc       ??_C@_03A@MMX?$AA@         005b2dbc     libirc:new_proc_init.obj
 0003:00015dc0       ??_C@_06A@FXSAVE?$AA@      005b2dc0     libirc:new_proc_init.obj
 0003:00015dc8       ??_C@_03A@SSE?$AA@         005b2dc8     libirc:new_proc_init.obj
 0003:00015dcc       ??_C@_04A@SSE2?$AA@        005b2dcc     libirc:new_proc_init.obj
 0003:00015dd4       ??_C@_04A@SSE3?$AA@        005b2dd4     libirc:new_proc_init.obj
 0003:00015ddc       ??_C@_05A@SSSE3?$AA@       005b2ddc     libirc:new_proc_init.obj
 0003:00015de4       ??_C@_06A@SSE4_1?$AA@      005b2de4     libirc:new_proc_init.obj
 0003:00015dec       ??_C@_06A@SSE4_2?$AA@      005b2dec     libirc:new_proc_init.obj
 0003:00015df4       ??_C@_05A@MOVBE?$AA@       005b2df4     libirc:new_proc_init.obj
 0003:00015dfc       ??_C@_06A@POPCNT?$AA@      005b2dfc     libirc:new_proc_init.obj
 0003:00015e04       ??_C@_09A@PCLMULQDQ?$AA@   005b2e04     libirc:new_proc_init.obj
 0003:00015e10       ??_C@_03A@AES?$AA@         005b2e10     libirc:new_proc_init.obj
 0003:00015e14       ??_C@_04A@F16C?$AA@        005b2e14     libirc:new_proc_init.obj
 0003:00015e1c       ??_C@_03A@AVX?$AA@         005b2e1c     libirc:new_proc_init.obj
 0003:00015e20       ??_C@_05A@RDRND?$AA@       005b2e20     libirc:new_proc_init.obj
 0003:00015e28       ??_C@_03A@FMA?$AA@         005b2e28     libirc:new_proc_init.obj
 0003:00015e2c       ??_C@_03A@BMI?$AA@         005b2e2c     libirc:new_proc_init.obj
 0003:00015e30       ??_C@_05A@LZCNT?$AA@       005b2e30     libirc:new_proc_init.obj
 0003:00015e38       ??_C@_03A@HLE?$AA@         005b2e38     libirc:new_proc_init.obj
 0003:00015e3c       ??_C@_03A@RTM?$AA@         005b2e3c     libirc:new_proc_init.obj
 0003:00015e40       ??_C@_04A@AVX2?$AA@        005b2e40     libirc:new_proc_init.obj
 0003:00015e48       ??_C@_08A@AVX512DQ?$AA@    005b2e48     libirc:new_proc_init.obj
 0003:00015e54       ??_C@_05A@KNCNI?$AA@       005b2e54     libirc:new_proc_init.obj
 0003:00015e5c       ??_C@_07A@AVX512F?$AA@     005b2e5c     libirc:new_proc_init.obj
 0003:00015e64       ??_C@_03A@ADX?$AA@         005b2e64     libirc:new_proc_init.obj
 0003:00015e68       ??_C@_06A@RDSEED?$AA@      005b2e68     libirc:new_proc_init.obj
 0003:00015e70       ??_C@_0N@A@AVX512IFMA52?$AA@ 005b2e70     libirc:new_proc_init.obj
 0003:00015e80       ??_C@_0BI@A@FULLY?5INORDER?5PROCESSOR?$AA@ 005b2e80     libirc:new_proc_init.obj
 0003:00015e98       ??_C@_08A@AVX512ER?$AA@    005b2e98     libirc:new_proc_init.obj
 0003:00015ea4       ??_C@_08A@AVX512PF?$AA@    005b2ea4     libirc:new_proc_init.obj
 0003:00015eb0       ??_C@_08A@AVX512CD?$AA@    005b2eb0     libirc:new_proc_init.obj
 0003:00015ebc       ??_C@_03A@SHA?$AA@         005b2ebc     libirc:new_proc_init.obj
 0003:00015ec0       ??_C@_03A@MPX?$AA@         005b2ec0     libirc:new_proc_init.obj
 0003:00015ec4       ??_C@_08A@AVX512BW?$AA@    005b2ec4     libirc:new_proc_init.obj
 0003:00015ed0       ??_C@_08A@AVX512VL?$AA@    005b2ed0     libirc:new_proc_init.obj
 0003:00015edc       ??_C@_0L@A@AVX512VBMI?$AA@ 005b2edc     libirc:new_proc_init.obj
 0003:00015ee8       ??_C@_02A@?0?5?$AA@        005b2ee8     libirc:new_proc_init.obj
 0003:00016090       ??_C@_0CF@A@?6Stack?5trace?5terminated?5abnormally?4?6?$AA@ 005b3090     libirc:tbk_display.obj
 0003:000160b8       ??_C@_0DJ@A@?6Stack?5trace?5buffer?5overflow?$DL?5further?5frames?5not?5shown?4?6?$AA@ 005b30b8     libirc:tbk_display.obj
 0003:000160f4       ??_C@_0N@A@AddrMode1616?$AA@ 005b30f4     libirc:tbk_display.obj
 0003:00016104       ??_C@_0N@A@AddrMode1632?$AA@ 005b3104     libirc:tbk_display.obj
 0003:00016114       ??_C@_0N@A@AddrModeReal?$AA@ 005b3114     libirc:tbk_display.obj
 0003:00016124       ??_C@_0N@A@AddrModeFlat?$AA@ 005b3124     libirc:tbk_display.obj
 0003:00016134       ??_C@_0CK@A@?$CF?919?419s?$CF?910?410s?$CF?919?419s?$CF?912?412s?$CF?919?419s?6?$AA@ 005b3134     libirc:tbk_display.obj
 0003:00016160       ??_C@_05A@Image?$AA@       005b3160     libirc:tbk_display.obj
 0003:00016168       ??_C@_02A@PC?$AA@          005b3168     libirc:tbk_display.obj
 0003:0001616c       ??_C@_07A@Routine?$AA@     005b316c     libirc:tbk_display.obj
 0003:00016174       ??_C@_04A@Line?$AA@        005b3174     libirc:tbk_display.obj
 0003:0001617c       ??_C@_06A@Source?$AA@      005b317c     libirc:tbk_display.obj
 0003:00016184       ??_C@_0DC@A@?6?6Traceback?5symbolic?5or?5hex?5stack?5dump?5follows?3?6?6?$AA@ 005b3184     libirc:tbk_display.obj
 0003:000161b8       ??_C@_0CI@A@?$CF?917?417s?5?5?$CF8?48X?5?5?$CF?917?417s?5?5?$CF10?410s?5?5?$CFs?6?$AA@ 005b31b8     libirc:tbk_display.obj
 0003:000161e0       ??_C@_0BBH@A@?9?9?9?9?9?9?9?9?9?5Frame?5?$CD?5?$CFs?5?9?9?9?9?9?9?9?9?9?9?9?9?9?9?9?9?9?9?9?9?9?9?9?9?9?9?9?9?9?9?9?9?9?9?9?9?9?9?9?6?6Image?3?5?5?5?5?5?5?5?5?5?$CFs?6PC?3?5?5?5?5?5?5?5?5?5?5?5?5?$CF8?48x?6Routine?5name?3?5?5?$CFs?6Source?5file?3?5?5?5?$CFs?6Line?5number?3?5?5?5?$CFs?6?6?$CFs?$CFs?$CF8?48lX?$CFs?$CF4?44lX?$CFs?$CFs?6?$CFs?$CF8?48lX?$CFs?$CF4?44lX?$CFs?$CFs?6?$CFs?$CF8?48lX?$CFs?$CF4?44lX?$CFs?$CFs?6?$CFs?$CF8?48lX?$CFs?$CF4?44lX?$CFs?$CFs?6?6?$CFs?$CF8?48lX?$CFs?$CF8?48lX?6?$CFs?$CF8?48lX?$CFs?$CF8?48lX?6?6?$AA@ 005b31e0     libirc:tbk_display.obj
 0003:00016300       ??_C@_0BL@A@Info?5from?5StackFrame?5is?3?6?6?$AA@ 005b3300     libirc:tbk_display.obj
 0003:0001631c       ??_C@_0BC@A@PC?4Offset?3?5?5?5?5?5?5?5?$AA@ 005b331c     libirc:tbk_display.obj
 0003:00016330       ??_C@_0BF@A@?5?5PC?4Segment?3?5?5?5?5?5?5?5?$AA@ 005b3330     libirc:tbk_display.obj
 0003:00016348       ??_C@_0BC@A@?5?5PC?4Mode?3?5?5?5?5?5?5?5?$AA@ 005b3348     libirc:tbk_display.obj
 0003:0001635c       ??_C@_0BC@A@Return?4Offset?3?5?5?5?$AA@ 005b335c     libirc:tbk_display.obj
 0003:00016370       ??_C@_0BF@A@?5?5Return?4Segment?3?5?5?5?$AA@ 005b3370     libirc:tbk_display.obj
 0003:00016388       ??_C@_0BC@A@?5?5Return?4Mode?3?5?5?5?$AA@ 005b3388     libirc:tbk_display.obj
 0003:0001639c       ??_C@_0BC@A@Frame?4Offset?3?5?5?5?5?$AA@ 005b339c     libirc:tbk_display.obj
 0003:000163b0       ??_C@_0BF@A@?5?5Frame?4Segment?3?5?5?5?5?$AA@ 005b33b0     libirc:tbk_display.obj
 0003:000163c8       ??_C@_0BC@A@?5?5Frame?4Mode?3?5?5?5?5?$AA@ 005b33c8     libirc:tbk_display.obj
 0003:000163dc       ??_C@_0BC@A@Stack?4Offset?3?5?5?5?5?$AA@ 005b33dc     libirc:tbk_display.obj
 0003:000163f0       ??_C@_0BF@A@?5?5Stack?4Segment?3?5?5?5?5?$AA@ 005b33f0     libirc:tbk_display.obj
 0003:00016408       ??_C@_0BC@A@?5?5Stack?4Mode?3?5?5?5?5?$AA@ 005b3408     libirc:tbk_display.obj
 0003:0001641c       ??_C@_0BC@A@Params?$FL0?$FN?3?5?5?5?5?5?5?5?$AA@ 005b341c     libirc:tbk_display.obj
 0003:00016430       ??_C@_0BA@A@?5?5Params?$FL1?$FN?3?5?5?5?$AA@ 005b3430     libirc:tbk_display.obj
 0003:00016440       ??_C@_0BC@A@Params?$FL2?$FN?3?5?5?5?5?5?5?5?$AA@ 005b3440     libirc:tbk_display.obj
 0003:00016454       ??_C@_0BA@A@?5?5Params?$FL3?$FN?3?5?5?5?$AA@ 005b3454     libirc:tbk_display.obj
 0003:00016760       ??_C@_0CO@A@Constant?5propagation?5error?5?$CI?$CFs?5substitution?$CJ?3?$AA@ 005b3760     libirc:irc_msg_support.obj
 0003:00016790       ??_C@_06A@FORMAL?$AA@      005b3790     libirc:irc_msg_support.obj
 0003:00016798       ??_C@_06A@RETURN?$AA@      005b3798     libirc:irc_msg_support.obj
 0003:000167a0       ??_C@_06A@GLOBAL?$AA@      005b37a0     libirc:irc_msg_support.obj
 0003:000167a8       ??_C@_0BA@A@?7I32?5?$CFlx?5?$CB?$DN?5?$CFlx?$AA@ 005b37a8     libirc:irc_msg_support.obj
 0003:000167b8       ??_C@_0BB@A@?7SI32?5?$CFld?5?$CB?$DN?5?$CFld?$AA@ 005b37b8     libirc:irc_msg_support.obj
 0003:000167cc       ??_C@_0O@A@?7F32?5?$CFf?5?$CB?$DN?5?$CFf?$AA@ 005b37cc     libirc:irc_msg_support.obj
 0003:000167dc       ??_C@_0BI@A@?7I64?5?$CFlx?3?$CFlx?5?$CB?$DN?5?$CFlx?3?$CFlx?$AA@ 005b37dc     libirc:irc_msg_support.obj
 0003:000167f4       ??_C@_0BJ@A@?7SI64?5?$CFld?3?$CFld?5?$CB?$DN?5?$CFld?3?$CFld?$AA@ 005b37f4     libirc:irc_msg_support.obj
 0003:00016810       ??_C@_0O@A@?7F64?5?$CFf?5?$CB?$DN?5?$CFf?$AA@ 005b3810     libirc:irc_msg_support.obj
 0003:00016820       ??_C@_0BE@A@Bad?5second?5argument?$AA@ 005b3820     libirc:irc_msg_support.obj
 0003:00016834       ??_C@_0CH@A@Fatal?5Error?3?5Can?5not?5initiate?5the?5Heap?$AA@ 005b3834     libirc:irc_msg_support.obj
 0003:0001685c       ??_C@_0CB@A@Usage?3?5?$CFs?5input_file?5output_file?$AA@ 005b385c     libirc:irc_msg_support.obj
 0003:00016880       ??_C@_0CL@A@Usage?3?5?$CFs?5segment_size?5input_file?5?$FL?9trace?$FN?$AA@ 005b3880     libirc:irc_msg_support.obj
 0003:000168ac       ??_C@_0DE@A@Conversion?5from?5text?5file?5?$CFs?5to?5binary?5?$CFs?5completed?$AA@ 005b38ac     libirc:irc_msg_support.obj
 0003:000168e0       ??_C@_0BJ@A@segment_size?5?$DN?50x?$CFx?5?$DN?5?$CFd?$AA@ 005b38e0     libirc:irc_msg_support.obj
 0003:000168fc       ??_C@_0DF@A@Cannot?5allocate?5memory?5to?5hold?5segment?5?$CIsize?5?$DN?50x?$CFx?$CJ?$AA@ 005b38fc     libirc:irc_msg_support.obj
 0003:00016934       ??_C@_0BJ@A@Input?5file?3?5?$CFs?5corrupted?$AA@ 005b3934     libirc:irc_msg_support.obj
 0003:00016950       ??_C@_0BE@A@routine_name?5?$DN?5?8?$CFs?8?$AA@ 005b3950     libirc:irc_msg_support.obj
 0003:00016964       ??_C@_0BE@A@file_name?5?5?5?5?$DN?5?8?$CFs?8?$AA@ 005b3964     libirc:irc_msg_support.obj
 0003:00016978       ??_C@_0BE@A@prof_dir?5?5?5?5?5?$DN?5?8?$CFs?8?$AA@ 005b3978     libirc:irc_msg_support.obj
 0003:0001698c       ??_C@_0CP@A@Dynamic?5profile?5created?5from?5file?5?$CFs?5completed?$AA@ 005b398c     libirc:irc_msg_support.obj
 0003:000169c0       ??_C@_0FA@A@Fatal?5Error?3?5This?5program?5was?5not?5built?5to?5run?5on?5the?5processor?5in?5your?5system?4?$AA@ 005b39c0     libirc:irc_msg_support.obj
 0003:00016a20       ??_C@_0CA@A@The?5allowed?5processors?5are?3?5?$CFs?4?$AA@ 005b3a20     libirc:irc_msg_support.obj
 0003:00016a40       ??_C@_0FC@A@Run?9Time?5Check?5Failure?3?5The?5variable?5?8?$CFs?8?5is?5being?5used?5without?5being?5initialized?$AA@ 005b3a40     libirc:irc_msg_support.obj
 0003:00016aa0       ??_C@_0CN@A@Error?3?5?5Buffer?5overrun?5occurred?0?5forced?5exit?$AA@ 005b3aa0     libirc:irc_msg_support.obj
 0003:00016ad0       ??_C@_0DH@A@Initialization?5of?5symbol?5handler?5failed?4?5Error?5code?5?$CFd?$AA@ 005b3ad0     libirc:irc_msg_support.obj
 0003:00016b08       ??_C@_0BH@A@NTDLL?5module?5not?5found?$AA@ 005b3b08     libirc:irc_msg_support.obj
 0003:00016b20       ??_C@_0DC@A@RtlCaptureContext?5function?5not?5found?5in?5ntdll?4dll?$AA@ 005b3b20     libirc:irc_msg_support.obj
 0003:00016b60       ??_C@_0EB@A@?5Windows?5XP?564?9bit?5Edition?5Version?52003?5or?5newer?5should?5be?5used?4?$AA@ 005b3b60     libirc:irc_msg_support.obj
 0003:00016bc0       ??_C@_0DC@A@StackWalk?5is?5terminated?5abnormally?4?5Error?5code?5?$CFd?$AA@ 005b3bc0     libirc:irc_msg_support.obj
 0003:00016bf4       ??_C@_0CJ@A@Exception?5is?5raised?5during?5stack?5walking?$AA@ 005b3bf4     libirc:irc_msg_support.obj
 0003:00016c20       ??_C@_0BE@A@Signal?5?$CFs?5is?5raised?$AA@ 005b3c20     libirc:irc_msg_support.obj
 0003:00016c34       ??_C@_0BM@A@Signal?5?$CFs?5is?5raised?5at?50x?$CFp?$AA@ 005b3c34     libirc:irc_msg_support.obj
 0003:00016c50       ??_C@_07A@SIGSEGV?$AA@     005b3c50     libirc:irc_msg_support.obj
 0003:00016c58       ??_C@_06A@SIGILL?$AA@      005b3c58     libirc:irc_msg_support.obj
 0003:00016c60       ??_C@_06A@SIGBUS?$AA@      005b3c60     libirc:irc_msg_support.obj
 0003:00016c68       ??_C@_06A@SIGFPE?$AA@      005b3c68     libirc:irc_msg_support.obj
 0003:00016c70       ??_C@_0DM@A@You?5must?5link?5with?5libunwind?5to?5use?5traceback?5functionality?$AA@ 005b3c70     libirc:irc_msg_support.obj
 0003:00016cc0       ??_C@_0IL@A@Intel?$CIR?$CJ?5Core?$CITM?$CJ?5Duo?5processors?5and?5compatible?5Intel?5processors?5with?5supplemental?5Streaming?5SIMD?5Extensions?53?5?$CISSSE3?$CJ?5instruction?5support?$AA@ 005b3cc0     libirc:irc_msg_support.obj
 0003:00016d60       ??_C@_0IE@A@Intel?$CIR?$CJ?5Pentium?$CIR?$CJ?54?5and?5compatible?5Intel?5processors?5with?5Intel?$CIR?$CJ?5Streaming?5SIMD?5Extensions?53?5?$CIIntel?$CIR?$CJ?5SSE3?$CJ?5instruction?5support?$AA@ 005b3d60     libirc:irc_msg_support.obj
 0003:00016e00       ??_C@_0DG@A@Intel?$CIR?$CJ?5Pentium?$CIR?$CJ?5M?5and?5compatible?5Intel?5processors?$AA@ 005b3e00     libirc:irc_msg_support.obj
 0003:00016e40       ??_C@_0IH@A@Intel?$CIR?$CJ?5Pentium?$CIR?$CJ?54?5and?5compatible?5Intel?5processors?4?5Enables?5new?5optimizations?5in?5addition?5to?5Intel?5processor?9specific?5optimizations?$AA@ 005b3e40     libirc:irc_msg_support.obj
 0003:00016ee0       ??_C@_0DI@A@Intel?$CIR?$CJ?5processors?5with?5Swing?5New?5Instructions?5support?$AA@ 005b3ee0     libirc:irc_msg_support.obj
 0003:00016f20       ??_C@_0EA@A@Intel?$CIR?$CJ?5processors?5with?5SSE4?42?5and?5POPCNT?5instructions?5support?$AA@ 005b3f20     libirc:irc_msg_support.obj
 0003:00016f60       ??_C@_0DE@A@Intel?$CIR?$CJ?5processors?5with?5MOVBE?5instructions?5support?$AA@ 005b3f60     libirc:irc_msg_support.obj
 0003:00016f94       ??_C@_0DP@A@Fatal?5Error?3?5This?5program?5was?5not?5built?5to?5run?5in?5your?5system?4?$AA@ 005b3f94     libirc:irc_msg_support.obj
 0003:00016fe0       ??_C@_0FF@A@Please?5verify?5that?5both?5the?5operating?5system?5and?5the?5processor?5support?5Intel?$CIR?$CJ?5AVX?4?$AA@ 005b3fe0     libirc:irc_msg_support.obj
 0003:00017040       ??_C@_0HD@A@Please?5verify?5that?5both?5the?5operating?5system?5and?5the?5processor?5support?5Intel?$CIR?$CJ?5AVX?0?5F16C?5and?5RDRAND?5instructions?4?$AA@ 005b4040     libirc:irc_msg_support.obj
 0003:000170c0       ??_C@_0IB@A@Please?5verify?5that?5both?5the?5operating?5system?5and?5the?5processor?5support?5Intel?$CIR?$CJ?5AVX2?0?5BMI?0?5LZCNT?0?5HLE?0?5RTM?5and?5FMA?5instructions?4?$AA@ 005b40c0     libirc:irc_msg_support.obj
 0003:00017160       ??_C@_0DC@A@Boundary?5Run?9Time?5Check?5Failure?5for?5variable?5?8?$CFs?8?$AA@ 005b4160     libirc:irc_msg_support.obj
 0003:00017194       ??_C@_0CA@A@Boundary?5Run?9Time?5Check?5Failure?$AA@ 005b4194     libirc:irc_msg_support.obj
 0003:000171b4       ??_C@_0CC@A@Conversion?5Run?9Time?5Check?5Failure?$AA@ 005b41b4     libirc:irc_msg_support.obj
 0003:000171e0       ??_C@_0GB@A@Please?5verify?5that?5both?5the?5operating?5system?5and?5the?5processor?5support?5Intel?$CIR?$CJ?5?$CFs?5instructions?4?$AA@ 005b41e0     libirc:irc_msg_support.obj
 0003:00017260       ??_C@_05A@?5and?5?$AA@     005b4260     libirc:irc_msg_support.obj
 0003:00017280       ??_C@_0FG@A@Please?5verify?5that?5your?5application?5was?5built?5with?5compatible?5Intel?$CIR?$CJ?5libirc?5library?$AA@ 005b4280     libirc:irc_msg_support.obj
 0003:000172e0       ??_C@_0EH@A@Use?5of?5incompatible?5or?5internally?5inconsistent?5Intel?$CIR?$CJ?5libirc?5library?$AA@ 005b42e0     libirc:irc_msg_support.obj
 0003:00017340       ??_C@_0FI@A@Run?9Time?5Check?5Failure?3?5The?5variable?5?8?$CFs?8?5is?5being?5used?5in?5?$CFs?5without?5being?5initialized?$AA@ 005b4340     libirc:irc_msg_support.obj
 0003:000173a0       ??_C@_0M@A@irc_msg?4dll?$AA@ 005b43a0     libirc:irc_msg_support.obj
 0003:000173dc       ??_C@_09A@NTDLL?4DLL?$AA@  005b43dc     libirc:tbk_backtrace.obj
 0003:000173e8       ??_C@_0BC@A@RtlCaptureContext?$AA@ 005b43e8     libirc:tbk_backtrace.obj
 0003:000173fc       ??_C@_06A@?4trace?$AA@     005b43fc     libirc:tbk_backtrace.obj
 0003:00017404       ??_C@_05A@?4text?$AA@      005b4404     libirc:tbk_backtrace.obj
 0003:00017a00       ___svml_sround_data        005b4a00     svml_dispmt:svml_s_round_data_a6la.obj
 0003:0002b390       ??_C@_0P@A@for_rint_fmt?4c?$AA@ 005c8390     libifcoremt:for_rint_fmt.obj
 0003:0002b3a0       ??_C@_0CC@A@Internal?5Formatted?5Read?5or?5DECODE?$AA@ 005c83a0     libifcoremt:for_rint_fmt.obj
 0003:0002b3c4       ??_C@_06A@DECODE?$AA@      005c83c4     libifcoremt:for_rint_fmt.obj
 0003:0002b3cc       ??_C@_0BI@A@Internal?5Formatted?5Read?$AA@ 005c83cc     libifcoremt:for_rint_fmt.obj
 0003:0002b3fc       ??_C@_0BA@A@for_backspace?4c?$AA@ 005c83fc     libifcoremt:for_backspace.obj
 0003:0002b40c       ??_C@_0N@A@for_rewind?4c?$AA@ 005c840c     libifcoremt:for_rewind.obj
 0003:0002b6b8       ??_C@_0P@A@for_rint_lis?4c?$AA@ 005c86b8     libifcoremt:for_rint_lis.obj
 0003:0002b6c8       ??_C@_0BM@A@Internal?5List?9Directed?5Read?$AA@ 005c86c8     libifcoremt:for_rint_lis.obj
 0003:0002b754       ??_C@_0P@A@for_wint_lis?4c?$AA@ 005c8754     libifcoremt:for_wint_lis.obj
 0003:0002b764       ??_C@_0BN@A@Internal?5List?9Directed?5Write?$AA@ 005c8764     libifcoremt:for_wint_lis.obj
 0003:00037040       ___svml_dfmod_data         005d4040     svml_dispmt:svml_d_fmod_data_w7la.obj
 0003:00037380       ___svml_dsincos_reduction_data 005d4380     svml_dispmt:svml_d_sincos_data_w7la.obj
 0003:00043580       ___svml_dsincos_data_ha    005e0580     svml_dispmt:svml_d_sincos_data_w7la.obj
 0003:00047940       ___svml_dsincos_data       005e4940     svml_dispmt:svml_d_sincos_data_w7la.obj
 0003:000487cc       ??_C@_0CP@JMHBHLOA@Crenef?3?5Data?5filename?5too?5long?5?$CI@ 005e57cc     nefis:f2c.obj
 0003:000487fc       ??_C@_0DF@HEPCNFIJ@Crenef?3?5Definition?5filename?5too?5@ 005e57fc     nefis:f2c.obj
 0003:00048834       ??_C@_07EHCIHKNF@INTEGER?$AA@ 005e5834     nefis:f2c.obj
 0003:0004883c       ??_C@_04PKFANLLI@REAL?$AA@ 005e583c     nefis:f2c.obj
 0003:00048844       ??_C@_08KNCCGBPM@CHARACTE?$AA@ 005e5844     nefis:f2c.obj
 0003:00048850       ??_C@_0HC@KHMDEMEC@Inqelm?3?5User?5supplied?5array?8s?5to@ 005e5850     nefis:f2c.obj
 0003:000488c4       ??_C@_0CD@ELAPJGMH@Inqelm?3?5Element?5name?5?8?$CFs?8?5too?5lo@ 005e58c4     nefis:f2c.obj
 0003:000488e8       ??_C@_0GH@BAPBAAKE@Inqelm?3?5User?5supplied?5array?5to?5c@ 005e58e8     nefis:f2c.obj
 0003:0004894f       ??_C@_00CNPNBAHC@?$AA@     005e594f     nefis:f2c.obj
 0003:00048950       ??_C@_0FG@GEMBHIDI@Number?5of?5dimensions?5not?5within?5@ 005e5950     nefis:df.obj
 0003:000489a8       ??_C@_08DFIDPGGG@?5?5?5?5?5?5?51?$AA@ 005e59a8     nefis:df.obj
 0003:000489b4       ??_C@_0BN@OBALLHF@Element?5?8?$CFs?8?5already?5exists?6?$AA@ 005e59b4     nefis:df.obj
 0003:000489d4       ??_C@_0CP@ECKEKMAG@Error?5writing?5element?5?8?$CFs?8?5to?5de@ 005e59d4     nefis:df.obj
 0003:00048a04       ??_C@_0DC@HHJCBODN@Maximum?5size?5reached?5in?5DataDefi@ 005e5a04     nefis:df.obj
 0003:00048a38       ??_C@_0CN@IHLGMNIH@Maximum?5size?5reached?5in?5definiti@ 005e5a38     nefis:df.obj
 0003:00048a68       ??_C@_08BOKOKFKF@?5?5?5?5?5?5?52?$AA@ 005e5a68     nefis:df.obj
 0003:00048a74       ??_C@_0BN@CDPIOANJ@Element?5?8?$CFs?8?5does?5not?5exist?6?$AA@ 005e5a74     nefis:df.obj
 0003:00048a94       ??_C@_0BJ@GMOODINI@Cel?5?8?$CFs?8?5already?5exists?6?$AA@ 005e5a94     nefis:df.obj
 0003:00048ab0       ??_C@_0CM@NCHKJFOG@Error?5writing?5cel?5?8?$CFs?8?5to?5defini@ 005e5ab0     nefis:df.obj
 0003:00048adc       ??_C@_08HLFJEOE@?5?5?5?5?5?5?53?$AA@ 005e5adc     nefis:df.obj
 0003:00048ae8       ??_C@_0CH@GHHMABAL@Cel?5?8?$CFs?8?5does?5not?5exist?5on?5file?5@ 005e5ae8     nefis:df.obj
 0003:00048b10       ??_C@_0CJ@JJDFAFKC@Group?5?8?$CFs?8?5already?5exists?5on?5fil@ 005e5b10     nefis:df.obj
 0003:00048b3c       ??_C@_0DB@JNKFKFKA@Error?5on?5writing?5group?5?8?$CFs?8?5to?5d@ 005e5b3c     nefis:df.obj
 0003:00048b70       ??_C@_0CO@KHJEHPPJ@Maximum?5size?5reached?5in?5definiti@ 005e5b70     nefis:df.obj
 0003:00048ba0       ??_C@_0DE@MIMFIMLP@Group?5definition?5?8?$CFs?8?5does?5not?5e@ 005e5ba0     nefis:df.obj
 0003:00048bd4       ??_C@_08FBOPDDGC@?5?5?5?5?5?5?55?$AA@ 005e5bd4     nefis:df.obj
 0003:00048be0       ??_C@_08EIPEACCD@?5?5?5?5?5?5?54?$AA@ 005e5be0     nefis:df.obj
 0003:00048bec       ??_C@_0DC@CCEJOIGC@Data?5group?5?8?$CFs?8?5already?5exists?5i@ 005e5bec     nefis:df.obj
 0003:00048c20       ??_C@_0CM@EPOIEFGA@Error?5on?5writing?5fixed?5part?5of?5g@ 005e5c20     nefis:df.obj
 0003:00048c50       ??_C@_0EF@KKABADBC@Error?5on?5writing?5variable?5part?5o@ 005e5c50     nefis:df.obj
 0003:00048c98       ??_C@_0DB@FEFGIFFH@Maximum?5size?5reached?5in?5DataDefi@ 005e5c98     nefis:df.obj
 0003:00048ccc       ??_C@_0CK@JOBFKNGF@This?5size?5of?5real?5?$CI?$CFld?$CJ?5is?5not?5s@ 005e5ccc     nefis:df.obj
 0003:00048cf8       ??_C@_0CN@CHPMPHGB@This?5size?5of?5integer?5?$CI?$CFld?$CJ?5is?5no@ 005e5cf8     nefis:df.obj
 0003:00048d28       ??_C@_07NBKIEJID@COMPLEX?$AA@ 005e5d28     nefis:df.obj
 0003:00048d30       ??_C@_0CN@HLIDFIBG@This?5size?5of?5complex?5?$CI?$CFld?$CJ?5is?5no@ 005e5d30     nefis:df.obj
 0003:00048d60       ??_C@_07LFCHOCGF@LOGICAL?$AA@ 005e5d60     nefis:df.obj
 0003:00048d68       ??_C@_0CN@MDIHIKBN@This?5size?5of?5logical?5?$CI?$CFld?$CJ?5is?5no@ 005e5d68     nefis:df.obj
 0003:00048d98       ??_C@_0CJ@CHOPINBE@This?5element?5type?5is?5not?5support@ 005e5d98     nefis:df.obj
 0003:00048dc4       ??_C@_0CH@HFMLHNBL@Data?5file?5?8?$CFs?8?5has?5already?5been?5@ 005e5dc4     nefis:oc.obj
 0003:00048dec       ??_C@_0CN@CHOJADEI@Definition?5file?5?8?$CFs?8?5has?5already@ 005e5dec     nefis:oc.obj
 0003:00048e1c       ??_C@_0DF@PDPMCNNA@Maximum?5number?5?$CI?$DN?$CFd?$CJ?5of?5open?5fil@ 005e5e1c     nefis:oc.obj
 0003:00048e54       ??_C@_02DKCKIIND@?$CFs?$AA@ 005e5e54     nefis:oc.obj
 0003:00048e58       ??_C@_0BE@DGANHIPD@?0?5NEFIS?5Data?5File?$DL?5?$AA@ 005e5e58     nefis:oc.obj
 0003:00048e6c       ??_C@_0CJ@MAALEJMK@Header?5was?5not?5written?5to?5data?5f@ 005e5e6c     nefis:oc.obj
 0003:00048e98       ??_C@_0CM@PFBKDMIE@Hashtable?5was?5not?5written?5to?5dat@ 005e5e98     nefis:oc.obj
 0003:00048ec4       ??_C@_0CA@LLPAGOCF@Unable?5to?5access?5data?5file?5?8?$CFs?8?$AA@ 005e5ec4     nefis:oc.obj
 0003:00048ee4       ??_C@_0CI@DDAFFLEF@During?5reading?5header?5of?5data?5fi@ 005e5ee4     nefis:oc.obj
 0003:00048f0c       ??_C@_0BA@LMDKAGNE@NEFIS?5Data?5File?$AA@ 005e5f0c     nefis:oc.obj
 0003:00048f1c       ??_C@_09LDFANEGK@DATA?5FILE?$AA@ 005e5f1c     nefis:oc.obj
 0003:00048f28       ??_C@_0BP@LONMEOHP@NEFIS?5Definition?5and?5Data?5File?$AA@ 005e5f28     nefis:oc.obj
 0003:00048f48       ??_C@_0CD@HCPODIPH@File?5?8?$CFs?8?5is?5not?5a?5NEFIS?5data?5fi@ 005e5f48     nefis:oc.obj
 0003:00048f6c       ??_C@_0DA@EFIJPLGO@Data?5File?5?8?$CFs?8?5has?5unregcognized@ 005e5f6c     nefis:oc.obj
 0003:00048f9c       ??_C@_0CM@POCIFCCJ@During?5reading?5hashtable?5of?5data@ 005e5f9c     nefis:oc.obj
 0003:00048fc8       ??_C@_0BK@GCKFDEJN@?0?5NEFIS?5Definition?5File?$DL?5?$AA@ 005e5fc8     nefis:oc.obj
 0003:00048fe4       ??_C@_0CP@IHABABPI@Unable?5to?5write?5header?5of?5defini@ 005e5fe4     nefis:oc.obj
 0003:00049014       ??_C@_0DC@MPHLBELA@Unable?5to?5write?5hashtable?5of?5def@ 005e6014     nefis:oc.obj
 0003:00049048       ??_C@_0CG@OKPMEIJL@Unable?5to?5access?5definition?5file@ 005e6048     nefis:oc.obj
 0003:00049070       ??_C@_0CO@NFFHNMJK@During?5reading?5header?5of?5definit@ 005e6070     nefis:oc.obj
 0003:000490a0       ??_C@_0BG@NDFADMIP@NEFIS?5Definition?5File?$AA@ 005e60a0     nefis:oc.obj
 0003:000490b8       ??_C@_09CGGKMDNJ@DEFN?5FILE?$AA@ 005e60b8     nefis:oc.obj
 0003:000490c4       ??_C@_0CJ@GJDKCPDI@File?5?8?$CFs?8?5is?5not?5a?5NEFIS?5definit@ 005e60c4     nefis:oc.obj
 0003:000490f0       ??_C@_0DG@KOOIIEDG@Definition?5File?5?8?$CFs?8?5has?5unregco@ 005e60f0     nefis:oc.obj
 0003:00049128       ??_C@_0CN@ELJIFMAE@On?5reading?5hashtable?5of?5definiti@ 005e6128     nefis:oc.obj
 0003:00049158       ??_C@_0CD@GBLKLNGM@?0?5NEFIS?5Definition?5and?5Data?5File@ 005e6158     nefis:oc.obj
 0003:0004917c       ??_C@_0DD@DNLPOCEK@Unable?5to?5write?5header?5of?5Defini@ 005e617c     nefis:oc.obj
 0003:000491b0       ??_C@_0DG@NECFKLNN@Unable?5to?5write?5hashtable?5of?5Def@ 005e61b0     nefis:oc.obj
 0003:000491e8       ??_C@_0CK@PJHGIOPN@Unable?5to?5access?5DefinitionData?5@ 005e61e8     nefis:oc.obj
 0003:00049214       ??_C@_0DC@EAEFLBKL@During?5reading?5header?5of?5Definit@ 005e6214     nefis:oc.obj
 0003:00049248       ??_C@_0CN@GBDPAGPJ@File?5?8?$CFs?8?5is?5not?5a?5NEFIS?5Definit@ 005e6248     nefis:oc.obj
 0003:00049278       ??_C@_0DK@NPAFMJNO@DefinitionData?5File?5?8?$CFs?8?5has?5unr@ 005e6278     nefis:oc.obj
 0003:000492b4       ??_C@_0DB@KHDKEJHO@On?5reading?5hashtable?5of?5Definiti@ 005e62b4     nefis:oc.obj
 0003:000492e8       ??_C@_0BP@NJNEMPHF@Unable?5to?5close?5data?5file?5?8?$CFs?8?$AA@ 005e62e8     nefis:oc.obj
 0003:00049308       ??_C@_0CF@MPDGNBGN@Unable?5to?5close?5definition?5file?5@ 005e6308     nefis:oc.obj
 0003:00049330       ??_C@_0CJ@NCKIKPHK@Unable?5to?5close?5DefinitionData?5f@ 005e6330     nefis:oc.obj
 0003:00049360       ??_C@_0EE@FCEGPCIK@File?5?8?$CFs?8?5can?5not?5be?5opened?5with@ 005e6360     nefis:oc.obj
 0003:000493a4       ??_C@_0DB@DCOPMBFB@File?5?8?$CFs?8?5can?5not?5be?5opened?5as?5r@ 005e63a4     nefis:oc.obj
 0003:000493d8       ??_C@_0EL@CNPNOOPB@File?5?8?$CFs?8?5cann?8t?5be?5opened?5with?5@ 005e63d8     nefis:oc.obj
 0003:00049424       ??_C@_0DD@NMMOCGOO@Cannot?5open?5file?5?8?$CFs?8?5for?5access@ 005e6424     nefis:oc.obj
 0003:00049458       ??_C@_09HNMLHGCM@Versie?51?4?$AA@ 005e6458     nefis:oc.obj
 0003:00049464       ??_C@_0BB@MNPKOIGI@File?$DL?5Version?54?4?$AA@ 005e6464     nefis:oc.obj
 0003:00049478       ??_C@_08DAJBJKMK@File?$DL?55?4?$AA@ 005e6478     nefis:oc.obj
 0003:00049484       ??_C@_0BB@MGJOMGDK@NEFIS?5Version?55?4?$AA@ 005e6484     nefis:oc.obj
 0003:00049498       ??_C@_0CI@NIHBONJN@Hashtable?5not?5written?5to?5data?5fi@ 005e6498     nefis:gp.obj
 0003:000494c0       ??_C@_0CO@PFFHLHOG@Hashtable?5not?5written?5to?5definit@ 005e64c0     nefis:gp.obj
 0003:000494f0       ??_C@_0DC@BOEAKKIG@Hashtable?5not?5written?5to?5Definit@ 005e64f0     nefis:gp.obj
 0003:00049524       ??_C@_0CM@FDBNGNEE@Cell?5?8?$CFs?8?5does?5not?5exist?5in?5defi@ 005e6524     nefis:gp.obj
 0003:00049550       ??_C@_0CI@MMDDNNNE@Group?5?8?$CFs?8?5does?5not?5exist?5in?5dat@ 005e6550     nefis:gp.obj
 0003:00049578       ??_C@_0DA@FDEBOHCB@Element?5?8?$CFs?8?5does?5not?5exist?5in?5d@ 005e6578     nefis:gp.obj
 0003:000495a8       ??_C@_0CO@LOGHKMPF@Group?5?8?$CFs?8?5does?5not?5exist?5in?5def@ 005e65a8     nefis:gp.obj
 0003:000495d8       ??_C@_0CI@DDOOMHBL@On?5reading?5first?5variable?5pointe@ 005e65d8     nefis:gp.obj
 0003:00049600       ??_C@_0CN@MOKFJJD@On?5reading?5variable?5pointer?5tabl@ 005e6600     nefis:gp.obj
 0003:00049630       ??_C@_0CN@LKHGEAPC@Maximum?5size?5reached?5in?5DataDefi@ 005e6630     nefis:gp.obj
 0003:00049660       ??_C@_0CD@LIFFJEDL@Maximum?5size?5reached?5in?5data?5fil@ 005e6660     nefis:gp.obj
 0003:00049688       ??_C@_0EH@CEFJOCKD@Start?5value?5user?5index?5?$FL?$CFld?02?$FN?$DN?$CF@ 005e6688     nefis:pt.obj
 0003:000496d0       ??_C@_0EB@DNEPLDOE@Increment?5value?5user?5index?5?$FL?$CFld?0@ 005e66d0     nefis:pt.obj
 0003:00049718       ??_C@_0EA@JGOGCPEK@Start?5value?5user?5index?5?$FL?$CFld?00?$FN?$DN?$CF@ 005e6718     nefis:pt.obj
 0003:00049758       ??_C@_0DO@IFOJJFHI@Stop?5value?5user?5index?5?$FL?$CFld?01?$FN?$DN?$CFl@ 005e6758     nefis:pt.obj
 0003:00049798       ??_C@_0CL@IHJENEA@Stop?5value?5?$CFld?5should?5be?5smaller@ 005e6798     nefis:gt.obj
 0003:000497c8       ??_C@_0FB@CMNGNHIE@Buffer?5length?5too?5small?0?5should?5@ 005e67c8     nefis:gt.obj
 0003:00049820       ??_C@_0EB@FJGDGCFP@Variable?5dimension?5?$CFld?5not?5found@ 005e6820     nefis:gt.obj
 0003:00049864       ??_C@_0BE@NJDIEKLC@?6NEFIS?5message?5?$CFd?3?6?$AA@ 005e6864     nefis:er.obj
 0003:00049878       ??_C@_04MDKIEGGJ@?5?$CFs?6?$AA@ 005e6878     nefis:er.obj
 0003:00049880       ??_C@_0DC@POOPCMFJ@?6The?5total?5number?5of?5NEFIS?5error@ 005e6880     nefis:er.obj
 0003:000498b4       ??_C@_0BO@FLEIOOEK@?6No?5NEFIS?5errors?5encountered?6?$AA@ 005e68b4     nefis:er.obj
 0003:000498d4       ??_C@_0DA@BPNJEAJP@The?5total?5number?5of?5NEFIS?5errors@ 005e68d4     nefis:er.obj
 0003:00049904       ??_C@_0BM@JFGCHLIE@No?5NEFIS?5errors?5encountered?$AA@ 005e6904     nefis:er.obj
 0003:00049920       ??_C@_0CK@BAHPJBNG@No?5entry?5found?5in?5hash?5table?5for@ 005e6920     nefis:hs.obj
 0003:0004994c       ??_C@_0CP@JGDEDDNN@Unable?5to?5read?5next?5pointer?5?$CIfil@ 005e694c     nefis:hs.obj
 0003:0004997c       ??_C@_0BP@NMGGJJBK@During?5reading?5of?5next?5pointer?$AA@ 005e697c     nefis:hs.obj
 0003:0004999c       ??_C@_0CC@JIKFHNIM@During?5reading?5of?5cell?5structure@ 005e699c     nefis:hs.obj
 0003:000499c0       ??_C@_0CE@GBACAGNL@During?5reading?5of?5element?5struct@ 005e69c0     nefis:hs.obj
 0003:000499e4       ??_C@_0CC@CKKOALJB@During?5reading?5of?5group?5structur@ 005e69e4     nefis:hs.obj
 0003:00049a08       ??_C@_0CB@FJINMJNF@During?5reading?5of?5data?5structure@ 005e6a08     nefis:hs.obj
 0003:00049a2c       ??_C@_0CM@CDHPCCDP@This?5size?5of?5integer?5?$CI?$CFd?$CJ?5is?5not@ 005e6a2c     nefis:wl-xdr.obj
 0003:00049a58       ??_C@_0CJ@KMPBCPEJ@This?5size?5of?5real?5?$CI?$CFd?$CJ?5is?5not?5su@ 005e6a58     nefis:wl-xdr.obj
 0003:00049a84       ??_C@_0CM@OPLKFBIE@This?5size?5of?5complex?5?$CI?$CFd?$CJ?5is?5not@ 005e6a84     nefis:wl-xdr.obj
 0003:00049ab0       ??_C@_0CM@FGMNFFLD@This?5size?5of?5logical?5?$CI?$CFd?$CJ?5is?5not@ 005e6ab0     nefis:wl-xdr.obj
 0003:00049ae0       ??_C@_0EF@CNJMAOOI@The?5variable?5MAX_VAR_GROUPS?5need@ 005e6ae0     nefis:rt.obj
 0003:00049b28       ??_C@_01NBENCBCI@?$CK?$AA@ 005e6b28     nefis:rt.obj
 0003:00049b2c       ??_C@_0DD@NKAONEPP@Element?5?$CC?$CFs?$CC?5of?5group?5?$CC?$CFs?$CC?5not?5f@ 005e6b2c     nefis:rt.obj
 0003:00049b60       __xmm@20202020202020202020202020202020 005e6b60     nefis:f2c.obj
 0003:00049b70       __load_config_used         005e6b70     MSVCRT:loadcfg.obj
 0003:00049bc0       ___safe_se_handler_table   005e6bc0     <linker-defined>
 0003:00049bc8       ___rtc_iaa                 005e6bc8     MSVCRT:initsect.obj
 0003:00049bcc       ___rtc_izz                 005e6bcc     MSVCRT:initsect.obj
 0003:00049bd0       ___rtc_taa                 005e6bd0     MSVCRT:initsect.obj
 0003:00049bd4       ___rtc_tzz                 005e6bd4     MSVCRT:initsect.obj
 0003:00049c34       __IMPORT_DESCRIPTOR_libiomp5md 005e6c34     libiomp5md:libiomp5md.dll
 0003:00049c48       __IMPORT_DESCRIPTOR_imagehlp 005e6c48     ImageHlp:imagehlp.dll
 0003:00049c5c       __IMPORT_DESCRIPTOR_MSVCR120 005e6c5c     MSVCRT:MSVCR120.dll
 0003:00049c70       __IMPORT_DESCRIPTOR_KERNEL32 005e6c70     kernel32:KERNEL32.dll
 0003:00049c84       __NULL_IMPORT_DESCRIPTOR   005e6c84     libiomp5md:libiomp5md.dll
 0004:000028a0       _for__static_threadstor_private 005ea8a0     libifcoremt:for_reentrancy.obj
 0004:00002944       _for__reentrancy_mode      005ea944     libifcoremt:for_reentrancy.obj
 0004:000029f0       _libc_fpieee_version       005ea9f0     libifcoremt:for_init.obj
 0004:00004a40       ___libirc_largest_cache_size 005eca40     libirc:fast_mem_ops.obj
 0004:00004a44       ___libirc_largest_cache_size_half 005eca44     libirc:fast_mem_ops.obj
 0004:00004a48       ___libirc_data_cache_size  005eca48     libirc:fast_mem_ops.obj
 0004:00004a4c       ___libirc_data_cache_size_half 005eca4c     libirc:fast_mem_ops.obj
 0004:00004a80       _PARTMEM_mp_FTYPEP         005eca80     part_data_f:partmem.obj
 0004:00004ac0       _PARTMEM_mp_FNAMEP         005ecac0     part_data_f:partmem.obj
 0004:0000aec0       _FILEINFO_mp_FTYPE         005f2ec0     part_data_f:file_info.obj
 0004:0000af00       _FILEINFO_mp_FNAME         005f2f00     part_data_f:file_info.obj
 0004:00011d20       _NORMAL_MOD_mp_YBOX        005f9d20     part_utils_f:normal_mod.obj
 0004:00011d48       _NORMAL_MOD_mp_XBOX        005f9d48     part_utils_f:normal_mod.obj
 0004:00016700       _TIMESPACE_READ_mp_ERRORMESSAGE 005fe700     part_io_f:meteo1.obj
 0004:00016830       _TIMESPACE_DATA_mp_T01INI  005fe830     part_io_f:meteo1.obj
 0004:00016838       _TIMESPACE_DATA_mp_TIMELAST 005fe838     part_io_f:meteo1.obj
 0004:00016840       _TIMESPACE_DATA_mp_SUBDOMS 005fe840     part_io_f:meteo1.obj
 0004:00016868       _M_ARCUV_mp_ARCUV          005fe868     part_io_f:meteo1.obj
 0004:000168a8       _TIMESPACE_TRIANGLE_mp_YCENT 005fe8a8     part_io_f:meteo1.obj
 0004:000168d0       _TIMESPACE_TRIANGLE_mp_XCENT 005fe8d0     part_io_f:meteo1.obj
 0004:000168f8       _TIMESPACE_TRIANGLE_mp_INDX 005fe8f8     part_io_f:meteo1.obj
 0004:000180bc       _PUTGET_MOD_mp_FD_NEF      006000bc     part_io_f:putget.obj
 0004:000181d0       _M_MISSING_mp_DXYMIS       006001d0     part_io_f:meteo1temphelpers.obj
 0004:000181d8       _M_MISSING_mp_XYMIS        006001d8     part_io_f:meteo1temphelpers.obj
 0004:000181e0       _M_MISSING_mp_DMISS        006001e0     part_io_f:meteo1temphelpers.obj
 0004:00018208       _M_SFERIC_mp_RA            00600208     part_io_f:m_sferic.obj
 0004:00018ce0       ___defaultmatherr          00600ce0     MSVCRT:merr.obj
 0004:00018cf0       ___globallocalestatus      00600cf0     MSVCRT:xthdloc.obj
 0004:00018cf4       ___native_dllmain_reason   00600cf4     MSVCRT:natstart.obj
 0004:00018cf8       ___security_cookie         00600cf8     MSVCRT:gs_cookie.obj
 0004:00018cfc       ___security_cookie_complement 00600cfc     MSVCRT:gs_cookie.obj
 0004:00019dd8       _TIMERS_mp_CONT1           00601dd8     deltares_common:timers.obj
 0004:00019e18       _TIMERS_mp_NCON1           00601e18     deltares_common:timers.obj
 0004:00019e40       _TIMERS_mp_TMSU1           00601e40     deltares_common:timers.obj
 0004:00019e68       _TIMERS_mp_WCTT1           00601e68     deltares_common:timers.obj
 0004:00019e90       _TIMERS_mp_WCST1           00601e90     deltares_common:timers.obj
 0004:00019eb8       _TIMERS_mp_CPTT1           00601eb8     deltares_common:timers.obj
 0004:00019ee0       _TIMERS_mp_CPST1           00601ee0     deltares_common:timers.obj
 0004:00019f08       _TIMERS_mp_LEVL1           00601f08     deltares_common:timers.obj
 0004:00019f30       _TIMERS_mp_NTIM1           00601f30     deltares_common:timers.obj
 0004:00019f58       _TIMERS_mp_CONTEXT         00601f58     deltares_common:timers.obj
 0004:00019f98       _TIMERS_mp_NCONTXT         00601f98     deltares_common:timers.obj
 0004:00019fc0       _TIMERS_mp_TMSUBNM         00601fc0     deltares_common:timers.obj
 0004:00019fe8       _TIMERS_mp_WCTIME          00601fe8     deltares_common:timers.obj
 0004:0001a010       _TIMERS_mp_WCSTART         00602010     deltares_common:timers.obj
 0004:0001a038       _TIMERS_mp_CPTIME          00602038     deltares_common:timers.obj
 0004:0001a060       _TIMERS_mp_CPSTART         00602060     deltares_common:timers.obj
 0004:0001a088       _TIMERS_mp_LEVEL           00602088     deltares_common:timers.obj
 0004:0001a0b0       _TIMERS_mp_NTIMCAL         006020b0     deltares_common:timers.obj
 0004:0001a0f8       _for__reentrancy_initialized 006020f8     libifcoremt:for_reentrancy.obj
 0004:0001a520       _for__l_exit_hand_decl     00602520     libifcoremt:for_open.obj
 0004:0001a9c0       _for__lub_table            006029c0     libifcoremt:for_lub_mgt.obj
 0004:0001ee60       _for__file_info_hash_table 00606e60     libifcoremt:for_need_lf.obj
 0004:00022774       _for__l_fpe_mask           0060a774     libifcoremt:for_init.obj
 0004:00022778       _for__l_undcnt             0060a778     libifcoremt:for_init.obj
 0004:0002277c       _for__l_ovfcnt             0060a77c     libifcoremt:for_init.obj
 0004:00022780       _for__l_div0cnt            0060a780     libifcoremt:for_init.obj
 0004:00022784       _for__l_invcnt             0060a784     libifcoremt:for_init.obj
 0004:00022788       _for__l_inecnt             0060a788     libifcoremt:for_init.obj
 0004:0002278c       _for__l_fmtrecl            0060a78c     libifcoremt:for_init.obj
 0004:00022790       _for__l_ufmtrecl           0060a790     libifcoremt:for_init.obj
 0004:00022794       _for__l_blocksize          0060a794     libifcoremt:for_init.obj
 0004:00022798       _for__l_buffercount        0060a798     libifcoremt:for_init.obj
 0004:0002279c       _for__l_pgm_exit_status    0060a79c     libifcoremt:for_init.obj
 0004:000227a0       _for__l_msg_hnd            0060a7a0     libifcoremt:for_init.obj
 0004:000229fc       _for__user_iomsg_buf       0060a9fc     libifcoremt:for_diags_intel.obj
 0004:00022a00       _for__user_iomsg_len       0060aa00     libifcoremt:for_diags_intel.obj
 0004:00022a78       _for__l_exit_termination   0060aa78     libifcoremt:for_exit_handler.obj
 0004:000235e8       ___fortran_posix_io_flag   0060b5e8     libifcoremt:for_portlib.obj
 0004:000235f0       ___intel_cpu_feature_indicator 0060b5f0     libirc:cpu_feature_disp.obj
 0004:000235f8       ___intel_cpu_feature_indicator_x 0060b5f8     libirc:cpu_feature_disp.obj
 0004:00023c20       ___intel_cpu_indicator     0060bc20     libirc:cpu_disp.obj
 0004:00023d24       ___libirc_mem_ops_method   0060bd24     libirc:fast_mem_ops.obj
 0004:00023d28       ___libirc_largest_cachelinesize 0060bd28     libirc:fast_mem_ops.obj
 0004:00023d40       ___svml_feature_flag       0060bd40     svml_dispmt:svml_d_feature_flag_.obj
 0004:00023d60       _PARTMEM_mp_LUNITP         0060bd60     part_data_f:partmem.obj
 0004:00023ef0       _PARTMEM_mp_FLRES          0060bef0     part_data_f:partmem.obj
 0004:00023f20       _PARTMEM_mp_CONCP          0060bf20     part_data_f:partmem.obj
 0004:00023f50       _PARTMEM_mp_RBUFFR         0060bf50     part_data_f:partmem.obj
 0004:00023f78       _PARTMEM_mp_ELT_DIMS       0060bf78     part_data_f:partmem.obj
 0004:00023fa8       _PARTMEM_mp_ELT_BYTES      0060bfa8     part_data_f:partmem.obj
 0004:00023fd0       _PARTMEM_mp_ELT_TYPES      0060bfd0     part_data_f:partmem.obj
 0004:00023ff8       _PARTMEM_mp_ELT_NAMES      0060bff8     part_data_f:partmem.obj
 0004:00024020       _PARTMEM_mp_CONC2          0060c020     part_data_f:partmem.obj
 0004:00024048       _PARTMEM_mp_YPOL           0060c048     part_data_f:partmem.obj
 0004:00024070       _PARTMEM_mp_XPOL           0060c070     part_data_f:partmem.obj
 0004:000240a0       _PARTMEM_mp_AMAPSETT       0060c0a0     part_data_f:partmem.obj
 0004:00024100       _PARTMEM_mp_AMAP           0060c100     part_data_f:partmem.obj
 0004:00024148       _PARTMEM_mp_CHISPL         0060c148     part_data_f:partmem.obj
 0004:00024188       _PARTMEM_mp_CHISMP         0060c188     part_data_f:partmem.obj
 0004:000241c8       _PARTMEM_mp_ATRACK         0060c1c8     part_data_f:partmem.obj
 0004:00024208       _PARTMEM_mp_XYZTRK         0060c208     part_data_f:partmem.obj
 0004:00024238       _PARTMEM_mp_VSFACT         0060c238     part_data_f:partmem.obj
 0004:00024268       _PARTMEM_mp_VRTDSP         0060c268     part_data_f:partmem.obj
 0004:00024298       _PARTMEM_mp_TRACK          0060c298     part_data_f:partmem.obj
 0004:000242c8       _PARTMEM_mp_RBUFF          0060c2c8     part_data_f:partmem.obj
 0004:000242f8       _PARTMEM_mp_ATOTAL         0060c2f8     part_data_f:partmem.obj
 0004:00024328       _PARTMEM_mp_APEAK          0060c328     part_data_f:partmem.obj
 0004:00024358       _PARTMEM_mp_ADEPTH         0060c358     part_data_f:partmem.obj
 0004:00024388       _PARTMEM_mp_ACONUD         0060c388     part_data_f:partmem.obj
 0004:000243b8       _PARTMEM_mp_ZPART          0060c3b8     part_data_f:partmem.obj
 0004:000243e0       _PARTMEM_mp_ZA             0060c3e0     part_data_f:partmem.obj
 0004:00024408       _PARTMEM_mp_YPART0         0060c408     part_data_f:partmem.obj
 0004:00024430       _PARTMEM_mp_YPART          0060c430     part_data_f:partmem.obj
 0004:00024458       _PARTMEM_mp_YA0            0060c458     part_data_f:partmem.obj
 0004:00024480       _PARTMEM_mp_TMASUD         0060c480     part_data_f:partmem.obj
 0004:000244b0       _PARTMEM_mp_YA             0060c4b0     part_data_f:partmem.obj
 0004:000244d8       _PARTMEM_mp_XPART0         0060c4d8     part_data_f:partmem.obj
 0004:00024500       _PARTMEM_mp_XPART          0060c500     part_data_f:partmem.obj
 0004:00024528       _PARTMEM_mp_XA0            0060c528     part_data_f:partmem.obj
 0004:00024550       _PARTMEM_mp_XA             0060c550     part_data_f:partmem.obj
 0004:00024578       _PARTMEM_mp_TMASS          0060c578     part_data_f:partmem.obj
 0004:000245a0       _PARTMEM_mp_T0BUOY         0060c5a0     part_data_f:partmem.obj
 0004:000245c8       _PARTMEM_mp_FSTICK         0060c5c8     part_data_f:partmem.obj
 0004:000245f0       _PARTMEM_mp_DFACT          0060c5f0     part_data_f:partmem.obj
 0004:00024618       _PARTMEM_mp_ABUOY          0060c618     part_data_f:partmem.obj
 0004:00024640       _PARTMEM_mp_NOSYSS         0060c640     part_data_f:partmem.obj
 0004:00024668       _PARTMEM_mp_NBIN           0060c668     part_data_f:partmem.obj
 0004:000246a8       _PARTMEM_mp_NCELL          0060c6a8     part_data_f:partmem.obj
 0004:000246d8       _PARTMEM_mp_MCELL          0060c6d8     part_data_f:partmem.obj
 0004:00024708       _PARTMEM_mp_ISUB           0060c708     part_data_f:partmem.obj
 0004:00024730       _PARTMEM_mp_IBUFF          0060c730     part_data_f:partmem.obj
 0004:00024760       _PARTMEM_mp_IMASK          0060c760     part_data_f:partmem.obj
 0004:00024790       _PARTMEM_mp_IMAP           0060c790     part_data_f:partmem.obj
 0004:000247c0       _PARTMEM_mp_NWASTE         0060c7c0     part_data_f:partmem.obj
 0004:000247e8       _PARTMEM_mp_NSTAT          0060c7e8     part_data_f:partmem.obj
 0004:00024810       _PARTMEM_mp_NPLSTA         0060c810     part_data_f:partmem.obj
 0004:00024838       _PARTMEM_mp_NPART0         0060c838     part_data_f:partmem.obj
 0004:00024860       _PARTMEM_mp_NPART          0060c860     part_data_f:partmem.obj
 0004:00024888       _PARTMEM_mp_MWASTE         0060c888     part_data_f:partmem.obj
 0004:000248b0       _PARTMEM_mp_MSTAT          0060c8b0     part_data_f:partmem.obj
 0004:000248d8       _PARTMEM_mp_MPLSTA         0060c8d8     part_data_f:partmem.obj
 0004:00024900       _PARTMEM_mp_MPART0         0060c900     part_data_f:partmem.obj
 0004:00024928       _PARTMEM_mp_MPART          0060c928     part_data_f:partmem.obj
 0004:00024950       _PARTMEM_mp_KPART          0060c950     part_data_f:partmem.obj
 0004:00024978       _PARTMEM_mp_ISFILE         0060c978     part_data_f:partmem.obj
 0004:000249a0       _PARTMEM_mp_IPTIME         0060c9a0     part_data_f:partmem.obj
 0004:000249c8       _PARTMEM_mp_IHPLOT         0060c9c8     part_data_f:partmem.obj
 0004:000249f0       _PARTMEM_mp_FLOIL          0060c9f0     part_data_f:partmem.obj
 0004:00024a18       _PARTMEM_mp_SUBSUD         0060ca18     part_data_f:partmem.obj
 0004:00024a40       _PARTMEM_mp_CBUFF          0060ca40     part_data_f:partmem.obj
 0004:00024a68       _PARTMEM_mp_ACONC          0060ca68     part_data_f:partmem.obj
 0004:00024a98       _PARTMEM_mp_TMASSC         0060ca98     part_data_f:partmem.obj
 0004:00024ac8       _PARTMEM_mp_REM            0060cac8     part_data_f:partmem.obj
 0004:00024af0       _PARTMEM_mp_NCHECK         0060caf0     part_data_f:partmem.obj
 0004:00024b18       _PARTMEM_mp_ACF            0060cb18     part_data_f:partmem.obj
 0004:00024b40       _PARTMEM_mp_TMASSU         0060cb40     part_data_f:partmem.obj
 0004:00024b68       _PARTMEM_mp_T0CF           0060cb68     part_data_f:partmem.obj
 0004:00024b90       _PARTMEM_mp_PG             0060cb90     part_data_f:partmem.obj
 0004:00024bb8       _PARTMEM_mp_CONN           0060cbb8     part_data_f:partmem.obj
 0004:00024be0       _PARTMEM_mp_BNDS           0060cbe0     part_data_f:partmem.obj
 0004:00024c08       _PARTMEM_mp_DOMS           0060cc08     part_data_f:partmem.obj
 0004:00024c30       _PARTMEM_mp_WSETTL         0060cc30     part_data_f:partmem.obj
 0004:00024c58       _PARTMEM_mp_VSFOUR         0060cc58     part_data_f:partmem.obj
 0004:00024c98       _PARTMEM_mp_RHOPART        0060cc98     part_data_f:partmem.obj
 0004:00024cc8       _PARTMEM_mp_SPART          0060ccc8     part_data_f:partmem.obj
 0004:00024cf8       _PARTMEM_mp_WPARTINI       0060ccf8     part_data_f:partmem.obj
 0004:00024d28       _PARTMEM_mp_WPART          0060cd28     part_data_f:partmem.obj
 0004:00024d58       _PARTMEM_mp_IVTIME         0060cd58     part_data_f:partmem.obj
 0004:00024d80       _PARTMEM_mp_DECAYS         0060cd80     part_data_f:partmem.obj
 0004:00024da8       _PARTMEM_mp_DECAY          0060cda8     part_data_f:partmem.obj
 0004:00024dd8       _PARTMEM_mp_IDTIME         0060cdd8     part_data_f:partmem.obj
 0004:00024e00       _PARTMEM_mp_ISFUD          0060ce00     part_data_f:partmem.obj
 0004:00024e28       _PARTMEM_mp_NOSUD          0060ce28     part_data_f:partmem.obj
 0004:00024e50       _PARTMEM_mp_IFTIME         0060ce50     part_data_f:partmem.obj
 0004:00024e78       _PARTMEM_mp_FINUD          0060ce78     part_data_f:partmem.obj
 0004:00024ea0       _PARTMEM_mp_IFOPT          0060cea0     part_data_f:partmem.obj
 0004:00024ec8       _PARTMEM_mp_IUTIME         0060cec8     part_data_f:partmem.obj
 0004:00024ef0       _PARTMEM_mp_ISUBUD         0060cef0     part_data_f:partmem.obj
 0004:00024f18       _PARTMEM_mp_USCAL          0060cf18     part_data_f:partmem.obj
 0004:00024f40       _PARTMEM_mp_FTIME          0060cf40     part_data_f:partmem.obj
 0004:00024f70       _PARTMEM_mp_AMASSC         0060cf70     part_data_f:partmem.obj
 0004:00024fb0       _PARTMEM_mp_ICTIME         0060cfb0     part_data_f:partmem.obj
 0004:00024fe0       _PARTMEM_mp_ICTMAX         0060cfe0     part_data_f:partmem.obj
 0004:00025008       _PARTMEM_mp_STOCH          0060d008     part_data_f:partmem.obj
 0004:00025038       _PARTMEM_mp_NMCONR         0060d038     part_data_f:partmem.obj
 0004:00025060       _PARTMEM_mp_AMASSD         0060d060     part_data_f:partmem.obj
 0004:00025090       _PARTMEM_mp_NDPRT          0060d090     part_data_f:partmem.obj
 0004:000250b8       _PARTMEM_mp_WPARM          0060d0b8     part_data_f:partmem.obj
 0004:000250e0       _PARTMEM_mp_RADIUS         0060d0e0     part_data_f:partmem.obj
 0004:00025108       _PARTMEM_mp_IOPTRAD        0060d108     part_data_f:partmem.obj
 0004:00025130       _PARTMEM_mp_KWASTE         0060d130     part_data_f:partmem.obj
 0004:00025158       _PARTMEM_mp_ZWASTE         0060d158     part_data_f:partmem.obj
 0004:00025180       _PARTMEM_mp_YWASTE         0060d180     part_data_f:partmem.obj
 0004:000251a8       _PARTMEM_mp_XWASTE         0060d1a8     part_data_f:partmem.obj
 0004:000251d0       _PARTMEM_mp_IWTIME         0060d1d0     part_data_f:partmem.obj
 0004:000251f8       _PARTMEM_mp_NMDYER         0060d1f8     part_data_f:partmem.obj
 0004:00025220       _PARTMEM_mp_FIBOOM         0060d220     part_data_f:partmem.obj
 0004:00025248       _PARTMEM_mp_NROWSBOOM      0060d248     part_data_f:partmem.obj
 0004:00025270       _PARTMEM_mp_YPOLBOOM       0060d270     part_data_f:partmem.obj
 0004:000252a0       _PARTMEM_mp_XPOLBOOM       0060d2a0     part_data_f:partmem.obj
 0004:000252d0       _PARTMEM_mp_EFBOOM         0060d2d0     part_data_f:partmem.obj
 0004:00025300       _PARTMEM_mp_IBOOMSET       0060d300     part_data_f:partmem.obj
 0004:00025328       _PARTMEM_mp_NROWSDIS       0060d328     part_data_f:partmem.obj
 0004:00025350       _PARTMEM_mp_YPOLDIS        0060d350     part_data_f:partmem.obj
 0004:00025380       _PARTMEM_mp_XPOLDIS        0060d380     part_data_f:partmem.obj
 0004:000253b0       _PARTMEM_mp_FIDISP         0060d3b0     part_data_f:partmem.obj
 0004:000253d8       _PARTMEM_mp_EFDISP         0060d3d8     part_data_f:partmem.obj
 0004:00025408       _PARTMEM_mp_IDISSET        0060d408     part_data_f:partmem.obj
 0004:00025430       _PARTMEM_mp_RECOVR         0060d430     part_data_f:partmem.obj
 0004:00025458       _PARTMEM_mp_IPSET          0060d458     part_data_f:partmem.obj
 0004:00025480       _PARTMEM_mp_YSTAT          0060d480     part_data_f:partmem.obj
 0004:000254a8       _PARTMEM_mp_XSTAT          0060d4a8     part_data_f:partmem.obj
 0004:000254d0       _PARTMEM_mp_NMSTAT         0060d4d0     part_data_f:partmem.obj
 0004:000254f8       _PARTMEM_mp_CONST          0060d4f8     part_data_f:partmem.obj
 0004:00025520       _PARTMEM_mp_IWNDTM         0060d520     part_data_f:partmem.obj
 0004:00025548       _PARTMEM_mp_WDIR           0060d548     part_data_f:partmem.obj
 0004:00025570       _PARTMEM_mp_WVELO          0060d570     part_data_f:partmem.obj
 0004:00025598       _PARTMEM_mp_WDIRA          0060d598     part_data_f:partmem.obj
 0004:000255c0       _PARTMEM_mp_WVELOA         0060d5c0     part_data_f:partmem.obj
 0004:000255e8       _PARTMEM_mp_SUBST2         0060d5e8     part_data_f:partmem.obj
 0004:00025610       _PARTMEM_mp_SUBST          0060d610     part_data_f:partmem.obj
 0004:00025638       _PARTMEM_mp_MSTICK         0060d638     part_data_f:partmem.obj
 0004:00025660       _PARTMEM_mp_NPLOT          0060d660     part_data_f:partmem.obj
 0004:00025688       _PARTMEM_mp_MAPSUB         0060d688     part_data_f:partmem.obj
 0004:000256b0       _PARTMEM_mp_SUBSTI         0060d6b0     part_data_f:partmem.obj
 0004:000256d8       _PARTMEM_mp_LOCDEP         0060d6d8     part_data_f:partmem.obj
 0004:00025708       _PARTMEM_mp_ZLEVEL         0060d708     part_data_f:partmem.obj
 0004:00025730       _PARTMEM_mp_YB             0060d730     part_data_f:partmem.obj
 0004:00025758       _PARTMEM_mp_XB             0060d758     part_data_f:partmem.obj
 0004:00025780       _PARTMEM_mp_VOLUMEP        0060d780     part_data_f:partmem.obj
 0004:000257a8       _PARTMEM_mp_VOL2           0060d7a8     part_data_f:partmem.obj
 0004:000257d0       _PARTMEM_mp_VOL1           0060d7d0     part_data_f:partmem.obj
 0004:000257f8       _PARTMEM_mp_VELO           0060d7f8     part_data_f:partmem.obj
 0004:00025820       _PARTMEM_mp_TEMPER1        0060d820     part_data_f:partmem.obj
 0004:00025848       _PARTMEM_mp_TEMPER         0060d848     part_data_f:partmem.obj
 0004:00025870       _PARTMEM_mp_RHOWATC        0060d870     part_data_f:partmem.obj
 0004:00025898       _PARTMEM_mp_SALIN1         0060d898     part_data_f:partmem.obj
 0004:000258c0       _PARTMEM_mp_SALIN          0060d8c0     part_data_f:partmem.obj
 0004:000258e8       _PARTMEM_mp_TAU1           0060d8e8     part_data_f:partmem.obj
 0004:00025910       _PARTMEM_mp_TAU            0060d910     part_data_f:partmem.obj
 0004:00025938       _PARTMEM_mp_VDIFF1         0060d938     part_data_f:partmem.obj
 0004:00025960       _PARTMEM_mp_VDIFF          0060d960     part_data_f:partmem.obj
 0004:00025988       _PARTMEM_mp_NPLAY          0060d988     part_data_f:partmem.obj
 0004:000259b0       _PARTMEM_mp_IPNTP          0060d9b0     part_data_f:partmem.obj
 0004:000259d8       _PARTMEM_mp_FLOW1          0060d9d8     part_data_f:partmem.obj
 0004:00025a00       _PARTMEM_mp_FLOW           0060da00     part_data_f:partmem.obj
 0004:00025a28       _PARTMEM_mp_DY             0060da28     part_data_f:partmem.obj
 0004:00025a50       _PARTMEM_mp_DX             0060da50     part_data_f:partmem.obj
 0004:00025a78       _PARTMEM_mp_DPSP           0060da78     part_data_f:partmem.obj
 0004:00025aa0       _PARTMEM_mp_DEPTH          0060daa0     part_data_f:partmem.obj
 0004:00025ac8       _PARTMEM_mp_AREA           0060dac8     part_data_f:partmem.obj
 0004:00025af0       _PARTMEM_mp_ANGLE          0060daf0     part_data_f:partmem.obj
 0004:00025b18       _PARTMEM_mp_FLOWPNTP       0060db18     part_data_f:partmem.obj
 0004:00025b48       _PARTMEM_mp_CELLPNTP       0060db48     part_data_f:partmem.obj
 0004:00025b70       _PARTMEM_mp_TCKTOT         0060db70     part_data_f:partmem.obj
 0004:00025b98       _PARTMEM_mp_LGRID3         0060db98     part_data_f:partmem.obj
 0004:00025bc8       _PARTMEM_mp_LGRID2         0060dbc8     part_data_f:partmem.obj
 0004:00025bf8       _PARTMEM_mp_LGRID          0060dbf8     part_data_f:partmem.obj
 0004:00025c28       _PARTMEM_mp_LINEAR         0060dc28     part_data_f:partmem.obj
 0004:00025c60       _GLOBAL_POINTERS_mp_AMAPSETT 0060dc60     part_data_f:global_data.obj
 0004:00025cc0       _GLOBAL_POINTERS_mp_AMAP   0060dcc0     part_data_f:global_data.obj
 0004:00025d08       _GLOBAL_POINTERS_mp_VSFOUR 0060dd08     part_data_f:global_data.obj
 0004:00025d48       _GLOBAL_POINTERS_mp_CHISPL 0060dd48     part_data_f:global_data.obj
 0004:00025d88       _GLOBAL_POINTERS_mp_CHISMP 0060dd88     part_data_f:global_data.obj
 0004:00025dc8       _GLOBAL_POINTERS_mp_ATRACK 0060ddc8     part_data_f:global_data.obj
 0004:00025e08       _GLOBAL_POINTERS_mp_AMASSC 0060de08     part_data_f:global_data.obj
 0004:00025e48       _GLOBAL_POINTERS_mp_RHOPART 0060de48     part_data_f:global_data.obj
 0004:00025e78       _GLOBAL_POINTERS_mp_YPOLBOOM 0060de78     part_data_f:global_data.obj
 0004:00025ea8       _GLOBAL_POINTERS_mp_XPOLBOOM 0060dea8     part_data_f:global_data.obj
 0004:00025ed8       _GLOBAL_POINTERS_mp_EFBOOM 0060ded8     part_data_f:global_data.obj
 0004:00025f08       _GLOBAL_POINTERS_mp_YPOLDIS 0060df08     part_data_f:global_data.obj
 0004:00025f38       _GLOBAL_POINTERS_mp_XPOLDIS 0060df38     part_data_f:global_data.obj
 0004:00025f68       _GLOBAL_POINTERS_mp_EFDISP 0060df68     part_data_f:global_data.obj
 0004:00025f98       _GLOBAL_POINTERS_mp_XYZTRK 0060df98     part_data_f:global_data.obj
 0004:00025fc8       _GLOBAL_POINTERS_mp_SPART  0060dfc8     part_data_f:global_data.obj
 0004:00025ff8       _GLOBAL_POINTERS_mp_WPARTINI 0060dff8     part_data_f:global_data.obj
 0004:00026028       _GLOBAL_POINTERS_mp_WPART  0060e028     part_data_f:global_data.obj
 0004:00026058       _GLOBAL_POINTERS_mp_VSFACT 0060e058     part_data_f:global_data.obj
 0004:00026088       _GLOBAL_POINTERS_mp_VRTDSP 0060e088     part_data_f:global_data.obj
 0004:000260b8       _GLOBAL_POINTERS_mp_VISOWAT 0060e0b8     part_data_f:global_data.obj
 0004:000260e8       _GLOBAL_POINTERS_mp_VISO   0060e0e8     part_data_f:global_data.obj
 0004:00026118       _GLOBAL_POINTERS_mp_TRACK  0060e118     part_data_f:global_data.obj
 0004:00026148       _GLOBAL_POINTERS_mp_TOTFE  0060e148     part_data_f:global_data.obj
 0004:00026178       _GLOBAL_POINTERS_mp_TMASUD 0060e178     part_data_f:global_data.obj
 0004:000261a8       _GLOBAL_POINTERS_mp_TMASSC 0060e1a8     part_data_f:global_data.obj
 0004:000261d8       _GLOBAL_POINTERS_mp_STOCH  0060e1d8     part_data_f:global_data.obj
 0004:00026208       _GLOBAL_POINTERS_mp_RHOOILV 0060e208     part_data_f:global_data.obj
 0004:00026238       _GLOBAL_POINTERS_mp_RBUFF  0060e238     part_data_f:global_data.obj
 0004:00026268       _GLOBAL_POINTERS_mp_QENTR  0060e268     part_data_f:global_data.obj
 0004:00026298       _GLOBAL_POINTERS_mp_LOCDEP 0060e298     part_data_f:global_data.obj
 0004:000262c8       _GLOBAL_POINTERS_mp_FWATOIL 0060e2c8     part_data_f:global_data.obj
 0004:000262f8       _GLOBAL_POINTERS_mp_FTIME  0060e2f8     part_data_f:global_data.obj
 0004:00026328       _GLOBAL_POINTERS_mp_FRACTE 0060e328     part_data_f:global_data.obj
 0004:00026358       _GLOBAL_POINTERS_mp_FRACTD 0060e358     part_data_f:global_data.obj
 0004:00026388       _GLOBAL_POINTERS_mp_FLRES  0060e388     part_data_f:global_data.obj
 0004:000263b8       _GLOBAL_POINTERS_mp_DECAY  0060e3b8     part_data_f:global_data.obj
 0004:000263e8       _GLOBAL_POINTERS_mp_CONSTEV 0060e3e8     part_data_f:global_data.obj
 0004:00026418       _GLOBAL_POINTERS_mp_CONC2  0060e418     part_data_f:global_data.obj
 0004:00026448       _GLOBAL_POINTERS_mp_CONC   0060e448     part_data_f:global_data.obj
 0004:00026478       _GLOBAL_POINTERS_mp_CDELV  0060e478     part_data_f:global_data.obj
 0004:000264a8       _GLOBAL_POINTERS_mp_C2     0060e4a8     part_data_f:global_data.obj
 0004:000264d8       _GLOBAL_POINTERS_mp_ATOTAL 0060e4d8     part_data_f:global_data.obj
 0004:00026508       _GLOBAL_POINTERS_mp_APEAK  0060e508     part_data_f:global_data.obj
 0004:00026538       _GLOBAL_POINTERS_mp_AMASSD 0060e538     part_data_f:global_data.obj
 0004:00026568       _GLOBAL_POINTERS_mp_ADEPTH 0060e568     part_data_f:global_data.obj
 0004:00026598       _GLOBAL_POINTERS_mp_ACONUD 0060e598     part_data_f:global_data.obj
 0004:000265c8       _GLOBAL_POINTERS_mp_ACONC  0060e5c8     part_data_f:global_data.obj
 0004:000265f8       _GLOBAL_POINTERS_mp_RHOWATC 0060e5f8     part_data_f:global_data.obj
 0004:00026620       _GLOBAL_POINTERS_mp_ZWASTE 0060e620     part_data_f:global_data.obj
 0004:00026648       _GLOBAL_POINTERS_mp_ZPART  0060e648     part_data_f:global_data.obj
 0004:00026670       _GLOBAL_POINTERS_mp_ZLEVEL 0060e670     part_data_f:global_data.obj
 0004:00026698       _GLOBAL_POINTERS_mp_ZA     0060e698     part_data_f:global_data.obj
 0004:000266c0       _GLOBAL_POINTERS_mp_YWASTE 0060e6c0     part_data_f:global_data.obj
 0004:000266e8       _GLOBAL_POINTERS_mp_YSTAT  0060e6e8     part_data_f:global_data.obj
 0004:00026710       _GLOBAL_POINTERS_mp_YPOL   0060e710     part_data_f:global_data.obj
 0004:00026738       _GLOBAL_POINTERS_mp_YPART0 0060e738     part_data_f:global_data.obj
 0004:00026760       _GLOBAL_POINTERS_mp_YPART  0060e760     part_data_f:global_data.obj
 0004:00026788       _GLOBAL_POINTERS_mp_YB     0060e788     part_data_f:global_data.obj
 0004:000267b0       _GLOBAL_POINTERS_mp_YA0    0060e7b0     part_data_f:global_data.obj
 0004:000267d8       _GLOBAL_POINTERS_mp_YA     0060e7d8     part_data_f:global_data.obj
 0004:00026800       _GLOBAL_POINTERS_mp_XWASTE 0060e800     part_data_f:global_data.obj
 0004:00026828       _GLOBAL_POINTERS_mp_XSTAT  0060e828     part_data_f:global_data.obj
 0004:00026850       _GLOBAL_POINTERS_mp_XPOL   0060e850     part_data_f:global_data.obj
 0004:00026878       _GLOBAL_POINTERS_mp_XPART0 0060e878     part_data_f:global_data.obj
 0004:000268a0       _GLOBAL_POINTERS_mp_XPART  0060e8a0     part_data_f:global_data.obj
 0004:000268c8       _GLOBAL_POINTERS_mp_XB     0060e8c8     part_data_f:global_data.obj
 0004:000268f0       _GLOBAL_POINTERS_mp_XA0    0060e8f0     part_data_f:global_data.obj
 0004:00026918       _GLOBAL_POINTERS_mp_XA     0060e918     part_data_f:global_data.obj
 0004:00026940       _GLOBAL_POINTERS_mp_WVELOA 0060e940     part_data_f:global_data.obj
 0004:00026968       _GLOBAL_POINTERS_mp_WSETTL 0060e968     part_data_f:global_data.obj
 0004:00026990       _GLOBAL_POINTERS_mp_WPARM  0060e990     part_data_f:global_data.obj
 0004:000269b8       _GLOBAL_POINTERS_mp_WEVAP  0060e9b8     part_data_f:global_data.obj
 0004:000269e0       _GLOBAL_POINTERS_mp_WINDOW 0060e9e0     part_data_f:global_data.obj
 0004:00026a08       _GLOBAL_POINTERS_mp_WDIRA  0060ea08     part_data_f:global_data.obj
 0004:00026a30       _GLOBAL_POINTERS_mp_VOLUME 0060ea30     part_data_f:global_data.obj
 0004:00026a58       _GLOBAL_POINTERS_mp_VOLFRACW 0060ea58     part_data_f:global_data.obj
 0004:00026a80       _GLOBAL_POINTERS_mp_VOL2   0060ea80     part_data_f:global_data.obj
 0004:00026aa8       _GLOBAL_POINTERS_mp_VOL1   0060eaa8     part_data_f:global_data.obj
 0004:00026ad0       _GLOBAL_POINTERS_mp_VELO   0060ead0     part_data_f:global_data.obj
 0004:00026af8       _GLOBAL_POINTERS_mp_VDIFF  0060eaf8     part_data_f:global_data.obj
 0004:00026b20       _GLOBAL_POINTERS_mp_USCAL  0060eb20     part_data_f:global_data.obj
 0004:00026b48       _GLOBAL_POINTERS_mp_TMASSU 0060eb48     part_data_f:global_data.obj
 0004:00026b70       _GLOBAL_POINTERS_mp_TMASS  0060eb70     part_data_f:global_data.obj
 0004:00026b98       _GLOBAL_POINTERS_mp_TCKTOT 0060eb98     part_data_f:global_data.obj
 0004:00026bc0       _GLOBAL_POINTERS_mp_T0CF   0060ebc0     part_data_f:global_data.obj
 0004:00026be8       _GLOBAL_POINTERS_mp_T0BUOY 0060ebe8     part_data_f:global_data.obj
 0004:00026c10       _GLOBAL_POINTERS_mp_REM    0060ec10     part_data_f:global_data.obj
 0004:00026c38       _GLOBAL_POINTERS_mp_RECOVR 0060ec38     part_data_f:global_data.obj
 0004:00026c60       _GLOBAL_POINTERS_mp_RBUFFR 0060ec60     part_data_f:global_data.obj
 0004:00026c88       _GLOBAL_POINTERS_mp_RADIUS 0060ec88     part_data_f:global_data.obj
 0004:00026cb0       _GLOBAL_POINTERS_mp_FSTICK 0060ecb0     part_data_f:global_data.obj
 0004:00026cd8       _GLOBAL_POINTERS_mp_FLOW1  0060ecd8     part_data_f:global_data.obj
 0004:00026d00       _GLOBAL_POINTERS_mp_FLOW   0060ed00     part_data_f:global_data.obj
 0004:00026d28       _GLOBAL_POINTERS_mp_DY     0060ed28     part_data_f:global_data.obj
 0004:00026d50       _GLOBAL_POINTERS_mp_DX     0060ed50     part_data_f:global_data.obj
 0004:00026d78       _GLOBAL_POINTERS_mp_DRAND  0060ed78     part_data_f:global_data.obj
 0004:00026da0       _GLOBAL_POINTERS_mp_DPS    0060eda0     part_data_f:global_data.obj
 0004:00026dc8       _GLOBAL_POINTERS_mp_DFACT  0060edc8     part_data_f:global_data.obj
 0004:00026df0       _GLOBAL_POINTERS_mp_DEPTH  0060edf0     part_data_f:global_data.obj
 0004:00026e18       _GLOBAL_POINTERS_mp_DECAYS 0060ee18     part_data_f:global_data.obj
 0004:00026e40       _GLOBAL_POINTERS_mp_CONST  0060ee40     part_data_f:global_data.obj
 0004:00026e68       _GLOBAL_POINTERS_mp_AREA   0060ee68     part_data_f:global_data.obj
 0004:00026e90       _GLOBAL_POINTERS_mp_ANGLE  0060ee90     part_data_f:global_data.obj
 0004:00026eb8       _GLOBAL_POINTERS_mp_ACF    0060eeb8     part_data_f:global_data.obj
 0004:00026ee0       _GLOBAL_POINTERS_mp_ABUOY  0060eee0     part_data_f:global_data.obj
 0004:00026f08       _GLOBAL_POINTERS_mp_NBIN   0060ef08     part_data_f:global_data.obj
 0004:00026f48       _GLOBAL_POINTERS_mp_NCELL  0060ef48     part_data_f:global_data.obj
 0004:00026f78       _GLOBAL_POINTERS_mp_MCELL  0060ef78     part_data_f:global_data.obj
 0004:00026fa8       _GLOBAL_POINTERS_mp_LGRID3 0060efa8     part_data_f:global_data.obj
 0004:00026fd8       _GLOBAL_POINTERS_mp_LGRID2 0060efd8     part_data_f:global_data.obj
 0004:00027008       _GLOBAL_POINTERS_mp_LGRID  0060f008     part_data_f:global_data.obj
 0004:00027038       _GLOBAL_POINTERS_mp_IMASK  0060f038     part_data_f:global_data.obj
 0004:00027068       _GLOBAL_POINTERS_mp_IMAP   0060f068     part_data_f:global_data.obj
 0004:00027098       _GLOBAL_POINTERS_mp_ICTIME 0060f098     part_data_f:global_data.obj
 0004:000270c8       _GLOBAL_POINTERS_mp_IBUFF  0060f0c8     part_data_f:global_data.obj
 0004:000270f8       _GLOBAL_POINTERS_mp_ELT_DIMS 0060f0f8     part_data_f:global_data.obj
 0004:00027128       _GLOBAL_POINTERS_mp_NROWSBOOM 0060f128     part_data_f:global_data.obj
 0004:00027150       _GLOBAL_POINTERS_mp_IBOOMSET 0060f150     part_data_f:global_data.obj
 0004:00027178       _GLOBAL_POINTERS_mp_NROWSDIS 0060f178     part_data_f:global_data.obj
 0004:000271a0       _GLOBAL_POINTERS_mp_IDISSET 0060f1a0     part_data_f:global_data.obj
 0004:000271c8       _GLOBAL_POINTERS_mp_FLOWPNT 0060f1c8     part_data_f:global_data.obj
 0004:000271f0       _GLOBAL_POINTERS_mp_CELLPNT 0060f1f0     part_data_f:global_data.obj
 0004:00027218       _GLOBAL_POINTERS_mp_STOIL  0060f218     part_data_f:global_data.obj
 0004:00027240       _GLOBAL_POINTERS_mp_NWASTE 0060f240     part_data_f:global_data.obj
 0004:00027268       _GLOBAL_POINTERS_mp_NSTAT  0060f268     part_data_f:global_data.obj
 0004:00027290       _GLOBAL_POINTERS_mp_NPLSTA 0060f290     part_data_f:global_data.obj
 0004:000272b8       _GLOBAL_POINTERS_mp_NPLOT  0060f2b8     part_data_f:global_data.obj
 0004:000272e0       _GLOBAL_POINTERS_mp_NPLAY  0060f2e0     part_data_f:global_data.obj
 0004:00027308       _GLOBAL_POINTERS_mp_NPART0 0060f308     part_data_f:global_data.obj
 0004:00027330       _GLOBAL_POINTERS_mp_NPART  0060f330     part_data_f:global_data.obj
 0004:00027358       _GLOBAL_POINTERS_mp_NOSYS  0060f358     part_data_f:global_data.obj
 0004:00027380       _GLOBAL_POINTERS_mp_NOSUD  0060f380     part_data_f:global_data.obj
 0004:000273a8       _GLOBAL_POINTERS_mp_NDPRT  0060f3a8     part_data_f:global_data.obj
 0004:000273d0       _GLOBAL_POINTERS_mp_NCHECK 0060f3d0     part_data_f:global_data.obj
 0004:000273f8       _GLOBAL_POINTERS_mp_ELT_BYTES 0060f3f8     part_data_f:global_data.obj
 0004:00027420       _GLOBAL_POINTERS_mp_MWASTE 0060f420     part_data_f:global_data.obj
 0004:00027448       _GLOBAL_POINTERS_mp_MSTICK 0060f448     part_data_f:global_data.obj
 0004:00027470       _GLOBAL_POINTERS_mp_MSTAT  0060f470     part_data_f:global_data.obj
 0004:00027498       _GLOBAL_POINTERS_mp_MPLSTA 0060f498     part_data_f:global_data.obj
 0004:000274c0       _GLOBAL_POINTERS_mp_MPART0 0060f4c0     part_data_f:global_data.obj
 0004:000274e8       _GLOBAL_POINTERS_mp_MPART  0060f4e8     part_data_f:global_data.obj
 0004:00027510       _GLOBAL_POINTERS_mp_MAPSUB 0060f510     part_data_f:global_data.obj
 0004:00027538       _GLOBAL_POINTERS_mp_KWASTE 0060f538     part_data_f:global_data.obj
 0004:00027560       _GLOBAL_POINTERS_mp_KPART  0060f560     part_data_f:global_data.obj
 0004:00027588       _GLOBAL_POINTERS_mp_IWTIME 0060f588     part_data_f:global_data.obj
 0004:000275b0       _GLOBAL_POINTERS_mp_IWNDTM 0060f5b0     part_data_f:global_data.obj
 0004:000275d8       _GLOBAL_POINTERS_mp_IVTIME 0060f5d8     part_data_f:global_data.obj
 0004:00027600       _GLOBAL_POINTERS_mp_IUTIME 0060f600     part_data_f:global_data.obj
 0004:00027628       _GLOBAL_POINTERS_mp_ISUB   0060f628     part_data_f:global_data.obj
 0004:00027650       _GLOBAL_POINTERS_mp_ISFUD  0060f650     part_data_f:global_data.obj
 0004:00027678       _GLOBAL_POINTERS_mp_ISFILE 0060f678     part_data_f:global_data.obj
 0004:000276a0       _GLOBAL_POINTERS_mp_IPTIME 0060f6a0     part_data_f:global_data.obj
 0004:000276c8       _GLOBAL_POINTERS_mp_IPSET  0060f6c8     part_data_f:global_data.obj
 0004:000276f0       _GLOBAL_POINTERS_mp_IPNT   0060f6f0     part_data_f:global_data.obj
 0004:00027718       _GLOBAL_POINTERS_mp_IOPTRAD 0060f718     part_data_f:global_data.obj
 0004:00027740       _GLOBAL_POINTERS_mp_IHPLOT 0060f740     part_data_f:global_data.obj
 0004:00027768       _GLOBAL_POINTERS_mp_IFTIME 0060f768     part_data_f:global_data.obj
 0004:00027790       _GLOBAL_POINTERS_mp_IFOPT  0060f790     part_data_f:global_data.obj
 0004:000277b8       _GLOBAL_POINTERS_mp_IDTIME 0060f7b8     part_data_f:global_data.obj
 0004:000277e0       _GLOBAL_POINTERS_mp_ICTMAX 0060f7e0     part_data_f:global_data.obj
 0004:00027808       _GLOBAL_POINTERS_mp_FLOIL  0060f808     part_data_f:global_data.obj
 0004:00027830       _GLOBAL_POINTERS_mp_FIBOOM 0060f830     part_data_f:global_data.obj
 0004:00027858       _GLOBAL_POINTERS_mp_FIDISP 0060f858     part_data_f:global_data.obj
 0004:00027880       _GLOBAL_POINTERS_mp_FINUD  0060f880     part_data_f:global_data.obj
 0004:000278a8       _GLOBAL_POINTERS_mp_SUBSUD 0060f8a8     part_data_f:global_data.obj
 0004:000278d0       _GLOBAL_POINTERS_mp_SUBSTI 0060f8d0     part_data_f:global_data.obj
 0004:000278f8       _GLOBAL_POINTERS_mp_SUBST2 0060f8f8     part_data_f:global_data.obj
 0004:00027920       _GLOBAL_POINTERS_mp_SUBST  0060f920     part_data_f:global_data.obj
 0004:00027948       _GLOBAL_POINTERS_mp_NMSTAT 0060f948     part_data_f:global_data.obj
 0004:00027970       _GLOBAL_POINTERS_mp_NMDYER 0060f970     part_data_f:global_data.obj
 0004:00027998       _GLOBAL_POINTERS_mp_NMCONR 0060f998     part_data_f:global_data.obj
 0004:000279c0       _GLOBAL_POINTERS_mp_CBUFF  0060f9c0     part_data_f:global_data.obj
 0004:000279e8       _GLOBAL_POINTERS_mp_ELT_TYPES 0060f9e8     part_data_f:global_data.obj
 0004:00027a10       _GLOBAL_POINTERS_mp_ELT_NAMES 0060fa10     part_data_f:global_data.obj
 0004:00027a38       _GLOBAL_POINTERS_mp_TITLE  0060fa38     part_data_f:global_data.obj
 0004:00027a60       _GLOBAL_POINTERS_mp_LINEAR 0060fa60     part_data_f:global_data.obj
 0004:00027a88       _SPEC_FEAT_PAR_mp_PLFRAGRATE 0060fa88     part_data_f:global_data.obj
 0004:00027ab0       _SPEC_FEAT_PAR_mp_PLSIGMASIZE 0060fab0     part_data_f:global_data.obj
 0004:00027ad8       _SPEC_FEAT_PAR_mp_PLMUSIZE 0060fad8     part_data_f:global_data.obj
 0004:00027b00       _SPEC_FEAT_PAR_mp_PLVARSIZE 0060fb00     part_data_f:global_data.obj
 0004:00027b28       _SPEC_FEAT_PAR_mp_PLMEANSIZE 0060fb28     part_data_f:global_data.obj
 0004:00027b50       _SPEC_FEAT_PAR_mp_PLSHAPEFACTOR 0060fb50     part_data_f:global_data.obj
 0004:00027b78       _SPEC_FEAT_PAR_mp_PLDENSITY 0060fb78     part_data_f:global_data.obj
 0004:00027ba0       _SPEC_FEAT_PAR_mp_PLPARSET 0060fba0     part_data_f:global_data.obj
 0004:00027be0       _FILEINFO_mp_LUNIT         0060fbe0     part_data_f:file_info.obj
 0004:00036188       _TIMESPACE_DATA_mp_MDIA    0061e188     part_io_f:meteo1.obj
 0004:000422c0       _M_SFERIC_mp_ANGLAT        0062a2c0     part_io_f:m_sferic.obj
 0004:000422c8       _M_SFERIC_mp_JGLOBE        0062a2c8     part_io_f:m_sferic.obj
 0004:000422cc       _M_SFERIC_mp_JSFERTEK      0062a2cc     part_io_f:m_sferic.obj
 0004:000422d0       _M_SFERIC_mp_JSFERIC       0062a2d0     part_io_f:m_sferic.obj
 0004:00043860       __qw32used                 0062b860     ifconsol:for_m_console.obj
 0004:00043c30       __commode                  0062bc30     MSVCRT:xncommod.obj
 0004:00043c34       __dowildcard               0062bc34     MSVCRT:wildcard.obj
 0004:00043c38       __newmode                  0062bc38     MSVCRT:_newmode.obj
 0004:00043c3c       __fmode                    0062bc3c     MSVCRT:xtxtmode.obj
 0004:00045ca0       _ALLOC_MOD_mp_LUNREP       0062dca0     <common>
 0004:00045ca4       _ALLOC_MOD_mp_NUMBER       0062dca4     <common>
 0004:00045ca8       _ALLOC_MOD_mp_ACCU         0062dca8     <common>
 0004:00045cac       _ALLOC_MOD_mp_LUNMEM       0062dcac     <common>
 0004:00045cb0       _SPEC_FEAT_PAR_mp_VERTICAL_BOUNCE 0062dcb0     <common>
 0004:00045cb4       _SPEC_FEAT_PAR_mp_WRITE_RESTART_FILE 0062dcb4     <common>
 0004:00045cb8       _SPEC_FEAT_PAR_mp_MAX_RESTART_AGE 0062dcb8     <common>
 0004:00045cbc       _SPEC_FEAT_PAR_mp_PLDEBUG  0062dcbc     <common>
 0004:00045cc0       _PARTMEM_mp_TITLE          0062dcc0     <common>
 0004:00045d60       _PARTMEM_mp_ALONE          0062dd60     <common>
 0004:00045d64       _PARTMEM_mp_ITRAKC         0062dd64     <common>
 0004:00045d68       _PARTMEM_mp_ITRAKI         0062dd68     <common>
 0004:00045d6c       _PARTMEM_mp_NPWNDN         0062dd6c     <common>
 0004:00045d70       _PARTMEM_mp_NPWNDW         0062dd70     <common>
 0004:00045d74       _PARTMEM_mp_NSTEP          0062dd74     <common>
 0004:00045d78       _PARTMEM_mp_DEFANG         0062dd78     <common>
 0004:00045d7c       _PARTMEM_mp_PTLAY          0062dd7c     <common>
 0004:00045d80       _PARTMEM_mp_ACCRJV         0062dd80     <common>
 0004:00045d84       _PARTMEM_mp_OIL            0062dd84     <common>
 0004:00045d88       _PARTMEM_mp_OIL2DH         0062dd88     <common>
 0004:00045d8c       _PARTMEM_mp_OIL3D          0062dd8c     <common>
 0004:00045d90       _PARTMEM_mp_LTRACK         0062dd90     <common>
 0004:00045d94       _PARTMEM_mp_ACOMP          0062dd94     <common>
 0004:00045d98       _PARTMEM_mp_FOUT           0062dd98     <common>
 0004:00045d9c       _PARTMEM_mp_BUFSIZE        0062dd9c     <common>
 0004:00045da0       _PARTMEM_mp_NOSUB_MAX      0062dda0     <common>
 0004:00045da4       _PARTMEM_mp_NMAXP          0062dda4     <common>
 0004:00045da8       _PARTMEM_mp_MMAXP          0062dda8     <common>
 0004:00045dac       _PARTMEM_mp_MNMAX2         0062ddac     <common>
 0004:00045db0       _PARTMEM_mp_LAYT           0062ddb0     <common>
 0004:00045db4       _PARTMEM_mp_MNMAXK         0062ddb4     <common>
 0004:00045db8       _PARTMEM_mp_NFLOW          0062ddb8     <common>
 0004:00045dbc       _PARTMEM_mp_NOSEGLP        0062ddbc     <common>
 0004:00045dc0       _PARTMEM_mp_NOSEGP         0062ddc0     <common>
 0004:00045dc4       _PARTMEM_mp_NOQP           0062ddc4     <common>
 0004:00045dc8       _PARTMEM_mp_IHDEL          0062ddc8     <common>
 0004:00045dcc       _PARTMEM_mp_MODTYP         0062ddcc     <common>
 0004:00045dd0       _PARTMEM_mp_NOTRAK         0062ddd0     <common>
 0004:00045dd4       _PARTMEM_mp_LSETTL         0062ddd4     <common>
 0004:00045dd8       _PARTMEM_mp_NOLAYP         0062ddd8     <common>
 0004:00045ddc       _PARTMEM_mp_NOSLAY         0062dddc     <common>
 0004:00045de0       _PARTMEM_mp_IDELT          0062dde0     <common>
 0004:00045de4       _PARTMEM_mp_IPC            0062dde4     <common>
 0004:00045de8       _PARTMEM_mp_LCORR          0062dde8     <common>
 0004:00045dec       _PARTMEM_mp_IOPTDV         0062ddec     <common>
 0004:00045df0       _PARTMEM_mp_ALPHA          0062ddf0     <common>
 0004:00045df4       _PARTMEM_mp_CDISP          0062ddf4     <common>
 0004:00045df8       _PARTMEM_mp_DMINIM         0062ddf8     <common>
 0004:00045dfc       _PARTMEM_mp_LDIFFZ         0062ddfc     <common>
 0004:00045e00       _PARTMEM_mp_NOSUBS         0062de00     <common>
 0004:00045e04       _PARTMEM_mp_NOSUBC         0062de04     <common>
 0004:00045e08       _PARTMEM_mp_NFRACT         0062de08     <common>
 0004:00045e0c       _PARTMEM_mp_PBLAY          0062de0c     <common>
 0004:00045e10       _PARTMEM_mp_ITRACK         0062de10     <common>
 0004:00045e14       _PARTMEM_mp_NTRACK         0062de14     <common>
 0004:00045e18       _PARTMEM_mp_NSTICK         0062de18     <common>
 0004:00045e1c       _PARTMEM_mp_NOPART         0062de1c     <common>
 0004:00045e20       _PARTMEM_mp_NOPART_RES     0062de20     <common>
 0004:00045e24       _PARTMEM_mp_NPMAX          0062de24     <common>
 0004:00045e28       _PARTMEM_mp_NPOLMAX        0062de28     <common>
 0004:00045e2c       _PARTMEM_mp_ROUGH          0062de2c     <common>
 0004:00045e30       _PARTMEM_mp_DRAND          0062de30     <common>
 0004:00045e3c       _PARTMEM_mp_SPAWND         0062de3c     <common>
 0004:00045e40       _PARTMEM_mp_NOWIND         0062de40     <common>
 0004:00045e44       _PARTMEM_mp_NOCONSP        0062de44     <common>
 0004:00045e48       _PARTMEM_mp_ITSTRTP        0062de48     <common>
 0004:00045e4c       _PARTMEM_mp_ITSTOPP        0062de4c     <common>
 0004:00045e50       _PARTMEM_mp_IDDTIM         0062de50     <common>
 0004:00045e54       _PARTMEM_mp_ICWSTA         0062de54     <common>
 0004:00045e58       _PARTMEM_mp_ICWSTO         0062de58     <common>
 0004:00045e5c       _PARTMEM_mp_ICWSTE         0062de5c     <common>
 0004:00045e60       _PARTMEM_mp_IHSTRTP        0062de60     <common>
 0004:00045e64       _PARTMEM_mp_IHSTOPP        0062de64     <common>
 0004:00045e68       _PARTMEM_mp_IHSTEPP        0062de68     <common>
 0004:00045e6c       _PARTMEM_mp_IYEAR          0062de6c     <common>
 0004:00045e70       _PARTMEM_mp_IMONTH         0062de70     <common>
 0004:00045e74       _PARTMEM_mp_IOFSET         0062de74     <common>
 0004:00045e78       _PARTMEM_mp_LDIFFH         0062de78     <common>
 0004:00045e7c       _PARTMEM_mp_RHOW           0062de7c     <common>
 0004:00045e80       _PARTMEM_mp_STICKDF        0062de80     <common>
 0004:00045e84       _PARTMEM_mp_OIL_OPT        0062de84     <common>
 0004:00045e88       _PARTMEM_mp_INI_OPT        0062de88     <common>
 0004:00045ea0       _PARTMEM_mp_INI_FILE       0062dea0     <common>
 0004:00045fa0       _PARTMEM_mp_IDP_FILE       0062dfa0     <common>
 0004:000460a0       _PARTMEM_mp_SIZE_FILE      0062e0a0     <common>
 0004:000461a0       _PARTMEM_mp_RES_FILE       0062e1a0     <common>
 0004:000462a0       _PARTMEM_mp_TYDISP         0062e2a0     <common>
 0004:000462a4       _PARTMEM_mp_NDISAPP        0062e2a4     <common>
 0004:000462a8       _PARTMEM_mp_TYBOOM         0062e2a8     <common>
 0004:000462ac       _PARTMEM_mp_NBOOMINT       0062e2ac     <common>
 0004:000462b0       _PARTMEM_mp_NOSTA          0062e2b0     <common>
 0004:000462b4       _PARTMEM_mp_IPTSET         0062e2b4     <common>
 0004:000462b8       _PARTMEM_mp_NODYE          0062e2b8     <common>
 0004:000462bc       _PARTMEM_mp_NOCONT         0062e2bc     <common>
 0004:000462c0       _PARTMEM_mp_NOUDEF         0062e2c0     <common>
 0004:000462c4       _PARTMEM_mp_IDTSET         0062e2c4     <common>
 0004:000462c8       _PARTMEM_mp_ANFAC          0062e2c8     <common>
 0004:000462cc       _PARTMEM_mp_IRFAC          0062e2cc     <common>
 0004:000462d0       _PARTMEM_mp_NROWSMAX       0062e2d0     <common>
 0004:000462d4       _PARTMEM_mp_IVTSET         0062e2d4     <common>
 0004:000462d8       _PARTMEM_mp_CHEZY          0062e2d8     <common>
 0004:000462dc       _PARTMEM_mp_TAUCS          0062e2dc     <common>
 0004:000462e0       _PARTMEM_mp_TAUCE          0062e2e0     <common>
 0004:000462e4       _PARTMEM_mp_CALTAU         0062e2e4     <common>
 0004:000462e8       _PARTMEM_mp_NBMAX          0062e2e8     <common>
 0004:000462ec       _PARTMEM_mp_NDOMS          0062e2ec     <common>
 0004:000462f0       _PARTMEM_mp_NBNDS          0062e2f0     <common>
 0004:000462f4       _PARTMEM_mp_NCONN          0062e2f4     <common>
 0004:000462f8       _PARTMEM_mp_NPGRID         0062e2f8     <common>
 0004:000462fc       _NORMAL_MOD_mp_NB          0062e2fc     <common>
 0004:00046300       _M_SFERIC_mp_DG2RD         0062e300     <common>
 0004:00046320       _PUTGET_MOD_mp_UINDEX      0062e320     <common>
 0004:0004635c       _PUTGET_MOD_mp_CODING      0062e35c     <common>
 0004:00046360       _PUTGET_MOD_mp_ELMNDM      0062e360     <common>
 0004:00046380       _PUTGET_MOD_mp_USRORD      0062e380     <common>
 0004:000463a8       _PUTGET_MOD_mp_IGR         0062e3a8     <common>
 0004:000463c0       _PUTGET_MOD_mp_DATNAM      0062e3c0     <common>
 0004:000464c0       _PUTGET_MOD_mp_DATLEN      0062e4c0     <common>
 0004:000464e0       _PUTGET_MOD_mp_DEFNAM      0062e4e0     <common>
 0004:000465e0       _PUTGET_MOD_mp_DEFLEN      0062e5e0     <common>
 0004:000465e4       _PUTGET_MOD_mp_ACCESS      0062e5e4     <common>
 0004:000465e8       _PUTGET_MOD_mp_JNEF        0062e5e8     <common>
 0004:000465ec       _PUTGET_MOD_mp_INEF        0062e5ec     <common>
 0004:000465f0       _PUTGET_MOD_mp_BUFLEN      0062e5f0     <common>
 0004:00046600       _PUTGET_MOD_mp_ELMDIM      0062e600     <common>
 0004:00046620       _PUTGET_MOD_mp_ELMDAS      0062e620     <common>
 0004:00046660       _PUTGET_MOD_mp_ELMANT      0062e660     <common>
 0004:00046670       _PUTGET_MOD_mp_ELMQTA      0062e670     <common>
 0004:00046680       _PUTGET_MOD_mp_ELMTAP      0062e680     <common>
 0004:000466a0       _PUTGET_MOD_mp_ERRSTR      0062e6a0     <common>
 0004:00046aa0       _PUTGET_MOD_mp_IERROR      0062eaa0     <common>
 0004:00046aa4       _PUTGET_MOD_mp_LELMNR      0062eaa4     <common>
 0004:00046aa8       _PUTGET_MOD_mp_NNEF        0062eaa8     <common>
 0004:00046aac       _TIMESPACE_DATA_mp_IDOM    0062eaac     <common>
 0004:00046ab0       _TIMESPACE_READ_mp_PI      0062eab0     <common>
 0004:00046ab8       _TIMESPACE_READ_mp_R2D     0062eab8     <common>
 0004:00046ac0       _TIMESPACE_TRIANGLE_mp_NUMTRI 0062eac0     <common>
 0004:00046ac8       _TIMESPACE_READ_mp_D2R     0062eac8     <common>
 0004:00046ad0       _M_ITDATE_mp_REFDAT        0062ead0     <common>
 0004:00046ad8       _M_ITDATE_mp_ITDATE        0062ead8     <common>
 0004:00046adc       _M_ITDATE_mp_IYEAR0        0062eadc     <common>
 0004:00046ae0       _M_ITDATE_mp_IMONTH0       0062eae0     <common>
 0004:00046ae4       _M_ITDATE_mp_IDAY0         0062eae4     <common>
 0004:00046ae8       _M_ITDATE_mp_JUL0          0062eae8     <common>
 0004:00046b00       _PART10_MOD_mp_PART10_kmpc_tree_reduct_lock_0 0062eb00     <common>
 0004:00046b20       _PARTVS_kmpc_tree_reduct_lock_0 0062eb20     <common>
 0004:00046b40       _RD_TOKEN_mp_PUSH          0062eb40     <common>
 0004:00046b60       _RD_TOKEN_mp_CDUMMY        0062eb60     <common>
 0004:00046c60       _RD_TOKEN_mp_TYPE          0062ec60     <common>
 0004:00046c64       _RD_TOKEN_mp_RDUMMY        0062ec64     <common>
 0004:00046c68       _RD_TOKEN_mp_IDUMMY        0062ec68     <common>
 0004:00046c6c       _RD_TOKEN_mp_NPOS          0062ec6c     <common>
 0004:00046c70       _RD_TOKEN_mp_IPOSR         0062ec70     <common>
 0004:00046c74       _RD_TOKEN_mp_CCHAR         0062ec74     <common>
 0004:00046c80       _RD_TOKEN_mp_LCH           0062ec80     <common>
 0004:00047280       _RD_TOKEN_mp_ILUN          0062f280     <common>
 0004:00047298       _RD_TOKEN_mp_LUNUT         0062f298     <common>
 0004:000472a0       _TIMERS_mp_COUNT           0062f2a0     <common>
 0004:000472a8       _TIMERS_mp_RATE            0062f2a8     <common>
 0004:000472b0       _TIMERS_mp_NOHMAX          0062f2b0     <common>
 0004:000472b4       _TIMERS_mp_HANDINC         0062f2b4     <common>
 0004:000472b8       _TIMERS_mp_NOHANDL         0062f2b8     <common>
 0004:000472bc       _TIMERS_mp_NOSHNDL         0062f2bc     <common>
 0004:000472c0       _TIMERS_mp_PREVHND         0062f2c0     <common>
 0004:000472c4       _TIMERS_mp_TIMON           0062f2c4     <common>
 0004:000472c8       _TIMERS_mp_DLEVEL          0062f2c8     <common>
 0004:000472cc       _TIMERS_mp_MAXLVL          0062f2cc     <common>
 0004:000472e0       _for__aio_lub_table        0062f2e0     <common>
 0004:000474e0       _for__aio_global_mutex     0062f4e0     <common>
 0004:000474f8       _message_catalog           0062f4f8     <common>
 0004:000474fc       _for__l_argc               0062f4fc     <common>
 0004:00047500       _for__a_argv               0062f500     <common>
 0004:00047504       _for__l_excpt_info         0062f504     <common>
 0004:00047508       ___native_startup_lock     0062f508     <common>
 0004:0004750c       ___native_startup_state    0062f50c     <common>
 0004:00047510       ___onexitend               0062f510     <common>
 0004:00047514       ___onexitbegin             0062f514     <common>
 0004:00047518       ___dyn_tls_init_callback   0062f518     <common>
 0004:00047520       _array_retrieve_ptrs       0062f520     <common>
 0004:00047d20       _def_fds                   0062fd20     <common>
 0004:00047d24       _cap_nefis_files           0062fd24     <common>
 0004:00047d28       _daf_fds                   0062fd28     <common>
 0004:00047d2c       _nr_nefis_files            0062fd2c     <common>
 0004:00047d30       _retrieve_var              0062fd30     <common>
 0004:00047d34       _dat_fds                   0062fd34     <common>
 0004:00047d38       _incr_nefis_files          0062fd38     <common>
 0004:00047d40       _nefis                     0062fd40     <common>
 0004:01fddd40       _grp_buf                   025c5d40     <common>
 0004:01fdddc0       _dat_buf                   025c5dc0     <common>
 0004:01fde780       _elm_buf                   025c6780     <common>
 0004:01fde838       _nefis_errno               025c6838     <common>
 0004:01fde83c       _nefis_flush               025c683c     <common>
 0004:01fde840       _nefis_errcnt              025c6840     <common>
 0004:01fde860       _error_text                025c6860     <common>

 entry point at        0001:0019a221

 Static symbols

 0001:0004a2c0       _reentrancy_cleanup        0044b2c0 f   libifcoremt:for_reentrancy.obj
 0001:0004a350       _kill_resource             0044b350 f   libifcoremt:for_reentrancy.obj
 0001:0004a354       _kill_resource.            0044b354 f   libifcoremt:for_reentrancy.obj
 0001:0004a380       _kill_resource_recurschk   0044b380 f   libifcoremt:for_reentrancy.obj
 0001:0004a384       _kill_resource_recurschk.  0044b384 f   libifcoremt:for_reentrancy.obj
 0001:0004a5e0       _create_threadstor_key     0044b5e0 f   libifcoremt:for_reentrancy.obj
 0001:0004aa30       _reentrancy_init           0044ba30 f   libifcoremt:for_reentrancy.obj
 0001:0004aad0       _init_resource_recurschk   0044bad0 f   libifcoremt:for_reentrancy.obj
 0001:0004aad4       _init_resource_recurschk.  0044bad4 f   libifcoremt:for_reentrancy.obj
 0001:0004aaf0       _init_resource             0044baf0 f   libifcoremt:for_reentrancy.obj
 0001:0004aaf4       _init_resource.            0044baf4 f   libifcoremt:for_reentrancy.obj
 0001:00052360       _SetRecType                00453360 f   libifcoremt:for_open.obj
 0001:0005f7a0       _array_copy_in             004607a0 f   libifcoremt:for_contig_array.obj
 0001:000621f0       _array_copy_out            004631f0 f   libifcoremt:for_contig_array.obj
 0001:00069950       _wseq_complex              0046a950 f   libifcoremt:for_wseq_lis.obj
 0001:0006e300       _for__read_ufseq           0046f300 f   libifcoremt:for_rseq.obj
 0001:00073000       _write_UFSEQD_record_to_file 00474000 f   libifcoremt:for_wseq.obj
 0001:000731e0       _for__tell                 004741e0 f   libifcoremt:for_wseq.obj
 0001:000731e0       _for__tell                 004741e0 f   libifcoremt:for_wseq.obj
 0001:000731e0       _for__tell                 004741e0 f   libifcoremt:for_wseq.obj
 0001:00073230       _for__lseek                00474230 f   libifcoremt:for_wseq.obj
 0001:00073230       _for__lseek                00474230 f   libifcoremt:for_wseq.obj
 0001:00073230       _for__lseek                00474230 f   libifcoremt:for_wseq.obj
 0001:00073230       _for__lseek                00474230 f   libifcoremt:for_wseq.obj
 0001:00073280       _for__finish_direct_write  00474280 f   libifcoremt:for_wseq.obj
 0001:00079c80       _for__ignore_space         0047ac80 f   libifcoremt:for_rseq_lis.obj
 0001:00079f80       _rs_cvt_2step              0047af80 f   libifcoremt:for_rseq_lis.obj
 0001:0007a2e0       _rs_find_field             0047b2e0 f   libifcoremt:for_rseq_lis.obj
 0001:0007a660       _rs_get_field              0047b660 f   libifcoremt:for_rseq_lis.obj
 0001:0007cdc0       _enter_cr_and_find_lub     0047ddc0 f   libifcoremt:for_lub_mgt.obj
 0001:0007e530       _release_lun..0            0047f530 f   libifcoremt:for_lub_mgt.obj
 0001:0007f490       _find_min_lun              00480490 f   libifcoremt:for_lub_mgt.obj
 0001:0007f4d0       _process_existing_lub      004804d0 f   libifcoremt:for_lub_mgt.obj
 0001:00080230       _for_setup_mxcsr.A         00481230 f   libifcoremt:for_init.obj
 0001:00080320       _for_setup_mxcsr.H         00481320 f   libifcoremt:for_init.obj
 0001:000803f0       _for_setup_mxcsr.J         004813f0 f   libifcoremt:for_init.obj
 0001:000805a0       _for_setup_mxcsr           004815a0 f   libifcoremt:for_init.obj
 0001:00080700       _for__console_control_handler 00481700 f   libifcoremt:for_init.obj
 0001:00081640       _for_fpe_service..0        00482640 f   libifcoremt:for_init.obj
 0001:00083d00       _get_message..4            00484d00 f   libifcoremt:for_diags_intel.obj
 0001:00083f60       _for__get_msg..0           00484f60 f   libifcoremt:for_diags_intel.obj
 0001:00084450       _get_message..1            00485450 f   libifcoremt:for_diags_intel.obj
 0001:00084650       _get_message               00485650 f   libifcoremt:for_diags_intel.obj
 0001:000848a0       _get_message..3            004858a0 f   libifcoremt:for_diags_intel.obj
 0001:00084aa0       _get_message..0            00485aa0 f   libifcoremt:for_diags_intel.obj
 0001:00084ca0       _get_message..2            00485ca0 f   libifcoremt:for_diags_intel.obj
 0001:00084ea0       _for__dump_msg_buff        00485ea0 f   libifcoremt:for_diags_intel.obj
 0001:00085100       _redirect_stderr           00486100 f   libifcoremt:for_diags_intel.obj
 0001:00085160       _for__icaf_abort           00486160 f   libifcoremt:for_diags_intel.obj
 0001:00088bb0       _for__prompt_user          00489bb0 f   libifcoremt:for_nt_open_proc.obj
 0001:00091d40       _emit_comp_fmt             00492d40 f   libifcoremt:for_fmt_comp.obj
 0001:00098c70       _tbk__dump_context         00499c70 f   libifcoremt:tbk_traceback.obj
 0001:00099060       _tbk_stack_trace_impl      0049a060 f   libifcoremt:tbk_traceback.obj
 0001:0009ef60       _NaN_2008                  0049ff60 f   libifcoremt:cvt_cvtas_x.obj
 0001:0009efc0       _sign_to_print_for_zero    0049ffc0 f   libifcoremt:cvt_cvtas_x.obj
 0001:0009f0a0       _Infinity_2008             004a00a0 f   libifcoremt:cvt_cvtas_x.obj
 0001:0009f0a0       _Infinity_2008             004a00a0 f   libifcoremt:cvt_cvtas_x.obj
 0001:0009f0a0       _Infinity_2008             004a00a0 f   libifcoremt:cvt_cvtas_x.obj
 0001:000bb0d0       ___intel_cpu_features_init_body 004bc0d0 f   libirc:cpu_feature_disp.obj
 0001:000bb640       _stackwalk_cb              004bc640 f   libirc:tbk_display.obj
 0001:000bde10       _tbk__fetch_pc             004bee10 f   libirc:tbk_backtrace.obj
 0001:000be730       ___sti____libirc_tmp       004bf730 f   libirc:fast_mem_ops.obj
 0001:000bed60       ___svml_atan2_dispatch_table_init 004bfd60 f   svml_dispmt:svml_d_atan2_iface_la.obj
 0001:000beda0       ___svml_atan2_mask_dispatch_table_init 004bfda0 f   svml_dispmt:svml_d_atan2_maskiface_la.obj
 0001:000bede0       ___svml_roundf4_dispatch_table_init 004bfde0 f   svml_dispmt:svml_s_roundf4_iface_la.obj
 0001:001013d0       _TIMESPACE_DATA_mp_BEWVUF..0 005023d0 f   part_io_f:meteo1.obj
 0001:00149f30       _M_ALLOC_mp_REALLOCREAL2..0 0054af30 f   part_io_f:malloc.obj
 0001:0014ac40       _M_ALLOC_mp_REALLOCREAL2..1 0054bc40 f   part_io_f:malloc.obj
 0001:0014b9e0       _M_ALLOC_mp_REALLOCDOUBLE2..0 0054c9e0 f   part_io_f:malloc.obj
 0001:0014c6f0       _M_ALLOC_mp_REALLOCDOUBLE2..1 0054d6f0 f   part_io_f:malloc.obj
 0001:0014d490       _M_ALLOC_mp_REALLOCINT2..0 0054e490 f   part_io_f:malloc.obj
 0001:0014e1a0       _M_ALLOC_mp_REALLOCINT2..1 0054f1a0 f   part_io_f:malloc.obj
 0001:0014ef50       _M_ALLOC_mp_REALLOCCHARACTER2..0 0054ff50 f   part_io_f:malloc.obj
 0001:0014f760       _M_ALLOC_mp_REALLOCCHARACTER2..1 00550760 f   part_io_f:malloc.obj
 0001:00150030       _M_ALLOC_mp_REALLOCREAL3..0 00551030 f   part_io_f:malloc.obj
 0001:00151280       _M_ALLOC_mp_REALLOCREAL3..1 00552280 f   part_io_f:malloc.obj
 0001:001841d0       _ri_find_field             005851d0 f   libifcoremt:for_rint_lis.obj
 0001:001845e0       _ri_get_field              005855e0 f   libifcoremt:for_rint_lis.obj
 0001:00189500       @__atan@4                  0058a500 f   libmmt:atan_gen.obj
 0001:0018c020       ___svml_irem4_dispatch_table_init 0058d020 f   svml_dispmt:svml_i_rem4_iface_la.obj
 0001:0018c060       ___svml_fmod2_dispatch_table_init 0058d060 f   svml_dispmt:svml_d_fmod2_iface_la.obj
 0001:0018c0a0       ___svml_sincos2_dispatch_table_init 0058d0a0 f   svml_dispmt:svml_d_sincos2_iface_la.obj
 0001:0018c0d0       ___svml_feature_flag_init_preserved 0058d0d0 f   svml_dispmt:svml_d_sincos2_iface_la.obj
 0001:0018c0d0       ___svml_feature_flag_init_preserved 0058d0d0 f   svml_dispmt:svml_d_sincos2_iface_la.obj
 0001:0018c0d0       ___svml_feature_flag_init_preserved 0058d0d0 f   svml_dispmt:svml_d_sincos2_iface_la.obj
 0001:0018c0d0       ___svml_feature_flag_init_preserved 0058d0d0 f   svml_dispmt:svml_d_sincos2_iface_la.obj
 0001:0018c0d0       ___svml_feature_flag_init_preserved 0058d0d0 f   svml_dispmt:svml_d_sincos2_iface_la.obj
 0001:0018c0d0       ___svml_feature_flag_init_preserved 0058d0d0 f   svml_dispmt:svml_d_sincos2_iface_la.obj
 0001:0018c0d0       ___svml_feature_flag_init_preserved 0058d0d0 f   svml_dispmt:svml_d_sincos2_iface_la.obj
 0001:0018c0f0       ___svml_cos2_dispatch_table_init 0058d0f0 f   svml_dispmt:svml_d_cos2_iface_la.obj
 0001:0018e710       ___svml_srl                0058f710 f   svml_dispmt:svml_d_dtrig_.obj
 0001:0018e740       ___svml_sll                0058f740 f   svml_dispmt:svml_d_dtrig_.obj
 0001:0018f9a2       .B1.8                      005909a2     libifcoremt:for_main.obj
 0001:0018fb60       _F_Copy_text               00590b60 f   * CIL library *:* CIL module *
 0001:0018fbf0       _strFcpy                   00590bf0 f   * CIL library *:* CIL module *
 0001:0018fc50       _f2c_strlen                00590c50 f   * CIL library *:* CIL module *
 0001:001949d0       _FileSeek                  005959d0 f   * CIL library *:* CIL module *
 0001:00198610       _HS_hash_key               00599610 f   * CIL library *:* CIL module *
 0001:00199360       _RT_retrieve_struc         0059a360 f   * CIL library *:* CIL module *
 0001:00199590       _Tree                      0059a590 f   * CIL library *:* CIL module *
 0001:00199be0       _RT_retrieve_file          0059abe0 f   * CIL library *:* CIL module *
 0001:00199fb8       _pre_c_init                0059afb8 f   MSVCRT:crtexe.obj
 0001:0019a071       _pre_cpp_init              0059b071 f   MSVCRT:crtexe.obj
 0001:0019a0bc       ___tmainCRTStartup         0059b0bc f   MSVCRT:crtexe.obj
 0001:0019a230       $$000000                   0059b230     MSVCRT:chkstk.obj
 0001:0019a3c0       $$000000                   0059b3c0     MSVCRT:lldiv.obj
 0001:0019a480       $$000000                   0059b480     MSVCRT:llmul.obj
 0001:0019a4c0       $$000000                   0059b4c0     MSVCRT:llrem.obj
 0001:0019a620       $$000000                   0059b620     MSVCRT:ulldiv.obj
 0001:0019aba0       $$000000                   0059bba0     MSVCRT:sehprolg4.obj
 0003:000002f8       _pcppinit                  0059d2f8     MSVCRT:crtexe.obj
 0003:0000030c       _pcinit                    0059d30c     MSVCRT:crtexe.obj
 0003:00000310       _pinit                     0059d310     MSVCRT:atonexit.obj
 0003:00000314       _pinit                     0059d314     MSVCRT:crtexe.obj
 0003:00000340       __NLITPACK_0.0.1           0059d340     main.obj
 0003:00000344       __NLITPACK_1.0.1           0059d344     main.obj
 0003:00000348       __STRLITPACK_6.0.1         0059d348     main.obj
 0003:00000358       __STRLITPACK_7.0.1         0059d358     main.obj
 0003:00000368       __STRLITPACK_8.0.1         0059d368     main.obj
 0003:00000370       __STRLITPACK_9.0.1         0059d370     main.obj
 0003:00000378       _2il0floatpacket.0         0059d378     main.obj
 0003:00000380       _2il0floatpacket.1         0059d380     main.obj
 0003:00000388       _2il0floatpacket.2         0059d388     main.obj
 0003:00000390       _2il0floatpacket.3         0059d390     main.obj
 0003:00000398       _2il0floatpacket.4         0059d398     main.obj
 0003:000003a0       _2il0floatpacket.5         0059d3a0     main.obj
 0003:000003a8       __STRLITPACK_5             0059d3a8     main.obj
 0003:000003b4       __STRLITPACK_2             0059d3b4     main.obj
 0003:000003b8       __STRLITPACK_1             0059d3b8     main.obj
 0003:000003c0       __STRLITPACK_0             0059d3c0     main.obj
 0003:000003d0       __STRLITPACK_2             0059d3d0     part_kernel_f:dlmain.obj
 0003:000003e0       __NLITPACK_2.0.2           0059d3e0     part_kernel_f:delpar.obj
 0003:000003e4       __NLITPACK_1.0.2           0059d3e4     part_kernel_f:delpar.obj
 0003:000003e8       __NLITPACK_0.0.2           0059d3e8     part_kernel_f:delpar.obj
 0003:000003ec       __STRLITPACK_153.0.2       0059d3ec     part_kernel_f:delpar.obj
 0003:000003f4       __STRLITPACK_154.0.2       0059d3f4     part_kernel_f:delpar.obj
 0003:000003fc       __STRLITPACK_155.0.2       0059d3fc     part_kernel_f:delpar.obj
 0003:00000404       __STRLITPACK_156.0.2       0059d404     part_kernel_f:delpar.obj
 0003:0000040c       __STRLITPACK_157.0.2       0059d40c     part_kernel_f:delpar.obj
 0003:00000414       __STRLITPACK_158.0.2       0059d414     part_kernel_f:delpar.obj
 0003:0000041c       __STRLITPACK_159.0.2       0059d41c     part_kernel_f:delpar.obj
 0003:00000424       __NLITPACK_4.0.2           0059d424     part_kernel_f:delpar.obj
 0003:00000428       __NLITPACK_3.0.2           0059d428     part_kernel_f:delpar.obj
 0003:0000042c       __STRLITPACK_160.0.2       0059d42c     part_kernel_f:delpar.obj
 0003:00000434       __STRLITPACK_161.0.2       0059d434     part_kernel_f:delpar.obj
 0003:0000043c       __STRLITPACK_162.0.2       0059d43c     part_kernel_f:delpar.obj
 0003:00000444       __STRLITPACK_163.0.2       0059d444     part_kernel_f:delpar.obj
 0003:0000044c       __STRLITPACK_164.0.2       0059d44c     part_kernel_f:delpar.obj
 0003:00000454       __STRLITPACK_165.0.2       0059d454     part_kernel_f:delpar.obj
 0003:0000045c       __STRLITPACK_166.0.2       0059d45c     part_kernel_f:delpar.obj
 0003:00000464       __STRLITPACK_167.0.2       0059d464     part_kernel_f:delpar.obj
 0003:0000046c       __STRLITPACK_168.0.2       0059d46c     part_kernel_f:delpar.obj
 0003:00000474       __STRLITPACK_169.0.2       0059d474     part_kernel_f:delpar.obj
 0003:0000047c       __STRLITPACK_170.0.2       0059d47c     part_kernel_f:delpar.obj
 0003:00000484       __STRLITPACK_171.0.2       0059d484     part_kernel_f:delpar.obj
 0003:0000048c       __STRLITPACK_195.0.2       0059d48c     part_kernel_f:delpar.obj
 0003:00000494       __STRLITPACK_196.0.2       0059d494     part_kernel_f:delpar.obj
 0003:0000049c       __STRLITPACK_197.0.2       0059d49c     part_kernel_f:delpar.obj
 0003:000004a4       __STRLITPACK_198.0.2       0059d4a4     part_kernel_f:delpar.obj
 0003:000004ac       __STRLITPACK_199.0.2       0059d4ac     part_kernel_f:delpar.obj
 0003:000004b4       __STRLITPACK_200.0.2       0059d4b4     part_kernel_f:delpar.obj
 0003:000004bc       __STRLITPACK_201.0.2       0059d4bc     part_kernel_f:delpar.obj
 0003:000004c4       __STRLITPACK_202.0.2       0059d4c4     part_kernel_f:delpar.obj
 0003:000004cc       __STRLITPACK_203.0.2       0059d4cc     part_kernel_f:delpar.obj
 0003:000004d4       __STRLITPACK_204.0.2       0059d4d4     part_kernel_f:delpar.obj
 0003:000004dc       __STRLITPACK_205.0.2       0059d4dc     part_kernel_f:delpar.obj
 0003:000004e4       __STRLITPACK_206.0.2       0059d4e4     part_kernel_f:delpar.obj
 0003:000004ec       __STRLITPACK_207.0.2       0059d4ec     part_kernel_f:delpar.obj
 0003:000004f4       __STRLITPACK_208.0.2       0059d4f4     part_kernel_f:delpar.obj
 0003:000004fc       __STRLITPACK_209.0.2       0059d4fc     part_kernel_f:delpar.obj
 0003:00000504       __STRLITPACK_210.0.2       0059d504     part_kernel_f:delpar.obj
 0003:0000050c       __STRLITPACK_211.0.2       0059d50c     part_kernel_f:delpar.obj
 0003:00000514       __STRLITPACK_212.0.2       0059d514     part_kernel_f:delpar.obj
 0003:0000051c       __STRLITPACK_213.0.2       0059d51c     part_kernel_f:delpar.obj
 0003:00000524       __STRLITPACK_214.0.2       0059d524     part_kernel_f:delpar.obj
 0003:0000052c       __STRLITPACK_215.0.2       0059d52c     part_kernel_f:delpar.obj
 0003:00000534       __STRLITPACK_216.0.2       0059d534     part_kernel_f:delpar.obj
 0003:0000053c       __STRLITPACK_217.0.2       0059d53c     part_kernel_f:delpar.obj
 0003:00000544       __STRLITPACK_218.0.2       0059d544     part_kernel_f:delpar.obj
 0003:0000054c       __STRLITPACK_219.0.2       0059d54c     part_kernel_f:delpar.obj
 0003:00000554       __STRLITPACK_220.0.2       0059d554     part_kernel_f:delpar.obj
 0003:0000055c       __STRLITPACK_221.0.2       0059d55c     part_kernel_f:delpar.obj
 0003:00000564       __STRLITPACK_222.0.2       0059d564     part_kernel_f:delpar.obj
 0003:0000056c       __STRLITPACK_223.0.2       0059d56c     part_kernel_f:delpar.obj
 0003:00000574       __STRLITPACK_251.0.2       0059d574     part_kernel_f:delpar.obj
 0003:0000057c       __STRLITPACK_252.0.2       0059d57c     part_kernel_f:delpar.obj
 0003:00000584       __STRLITPACK_253.0.2       0059d584     part_kernel_f:delpar.obj
 0003:0000058c       __STRLITPACK_254.0.2       0059d58c     part_kernel_f:delpar.obj
 0003:00000594       __STRLITPACK_255.0.2       0059d594     part_kernel_f:delpar.obj
 0003:0000059c       __STRLITPACK_256.0.2       0059d59c     part_kernel_f:delpar.obj
 0003:000005a4       __STRLITPACK_257.0.2       0059d5a4     part_kernel_f:delpar.obj
 0003:000005ac       __STRLITPACK_258.0.2       0059d5ac     part_kernel_f:delpar.obj
 0003:000005b4       __STRLITPACK_259.0.2       0059d5b4     part_kernel_f:delpar.obj
 0003:000005bc       __STRLITPACK_260.0.2       0059d5bc     part_kernel_f:delpar.obj
 0003:000005c4       __STRLITPACK_261.0.2       0059d5c4     part_kernel_f:delpar.obj
 0003:000005cc       __STRLITPACK_262.0.2       0059d5cc     part_kernel_f:delpar.obj
 0003:000005d4       __STRLITPACK_263.0.2       0059d5d4     part_kernel_f:delpar.obj
 0003:000005dc       __STRLITPACK_264.0.2       0059d5dc     part_kernel_f:delpar.obj
 0003:000005e4       __STRLITPACK_265.0.2       0059d5e4     part_kernel_f:delpar.obj
 0003:000005ec       __STRLITPACK_266.0.2       0059d5ec     part_kernel_f:delpar.obj
 0003:000005f4       __STRLITPACK_276.0.2       0059d5f4     part_kernel_f:delpar.obj
 0003:000005fc       __STRLITPACK_277.0.2       0059d5fc     part_kernel_f:delpar.obj
 0003:00000604       __STRLITPACK_278.0.2       0059d604     part_kernel_f:delpar.obj
 0003:0000060c       __STRLITPACK_279.0.2       0059d60c     part_kernel_f:delpar.obj
 0003:00000614       __STRLITPACK_280.0.2       0059d614     part_kernel_f:delpar.obj
 0003:0000061c       __STRLITPACK_267.0.2       0059d61c     part_kernel_f:delpar.obj
 0003:00000624       __STRLITPACK_268.0.2       0059d624     part_kernel_f:delpar.obj
 0003:0000062c       __STRLITPACK_269.0.2       0059d62c     part_kernel_f:delpar.obj
 0003:00000634       __STRLITPACK_270.0.2       0059d634     part_kernel_f:delpar.obj
 0003:0000063c       __STRLITPACK_271.0.2       0059d63c     part_kernel_f:delpar.obj
 0003:00000644       __STRLITPACK_272.0.2       0059d644     part_kernel_f:delpar.obj
 0003:0000064c       __STRLITPACK_273.0.2       0059d64c     part_kernel_f:delpar.obj
 0003:00000654       __STRLITPACK_274.0.2       0059d654     part_kernel_f:delpar.obj
 0003:0000065c       __STRLITPACK_275.0.2       0059d65c     part_kernel_f:delpar.obj
 0003:00000664       __STRLITPACK_250.0.2       0059d664     part_kernel_f:delpar.obj
 0003:0000066c       __STRLITPACK_225.0.2       0059d66c     part_kernel_f:delpar.obj
 0003:00000674       __STRLITPACK_226.0.2       0059d674     part_kernel_f:delpar.obj
 0003:0000067c       __STRLITPACK_227.0.2       0059d67c     part_kernel_f:delpar.obj
 0003:00000684       __STRLITPACK_228.0.2       0059d684     part_kernel_f:delpar.obj
 0003:0000068c       __STRLITPACK_229.0.2       0059d68c     part_kernel_f:delpar.obj
 0003:00000694       __STRLITPACK_230.0.2       0059d694     part_kernel_f:delpar.obj
 0003:0000069c       __STRLITPACK_231.0.2       0059d69c     part_kernel_f:delpar.obj
 0003:000006a4       __STRLITPACK_232.0.2       0059d6a4     part_kernel_f:delpar.obj
 0003:000006ac       __STRLITPACK_233.0.2       0059d6ac     part_kernel_f:delpar.obj
 0003:000006b4       __STRLITPACK_234.0.2       0059d6b4     part_kernel_f:delpar.obj
 0003:000006bc       __STRLITPACK_235.0.2       0059d6bc     part_kernel_f:delpar.obj
 0003:000006c4       __STRLITPACK_236.0.2       0059d6c4     part_kernel_f:delpar.obj
 0003:000006cc       __STRLITPACK_237.0.2       0059d6cc     part_kernel_f:delpar.obj
 0003:000006d4       __STRLITPACK_247.0.2       0059d6d4     part_kernel_f:delpar.obj
 0003:000006dc       __STRLITPACK_248.0.2       0059d6dc     part_kernel_f:delpar.obj
 0003:000006e4       __STRLITPACK_249.0.2       0059d6e4     part_kernel_f:delpar.obj
 0003:000006ec       __STRLITPACK_238.0.2       0059d6ec     part_kernel_f:delpar.obj
 0003:000006f4       __STRLITPACK_239.0.2       0059d6f4     part_kernel_f:delpar.obj
 0003:000006fc       __STRLITPACK_240.0.2       0059d6fc     part_kernel_f:delpar.obj
 0003:00000704       __STRLITPACK_241.0.2       0059d704     part_kernel_f:delpar.obj
 0003:0000070c       __STRLITPACK_242.0.2       0059d70c     part_kernel_f:delpar.obj
 0003:00000714       __STRLITPACK_243.0.2       0059d714     part_kernel_f:delpar.obj
 0003:0000071c       __STRLITPACK_244.0.2       0059d71c     part_kernel_f:delpar.obj
 0003:00000724       __STRLITPACK_245.0.2       0059d724     part_kernel_f:delpar.obj
 0003:0000072c       __STRLITPACK_246.0.2       0059d72c     part_kernel_f:delpar.obj
 0003:00000734       __STRLITPACK_224.0.2       0059d734     part_kernel_f:delpar.obj
 0003:0000073c       __STRLITPACK_187.0.2       0059d73c     part_kernel_f:delpar.obj
 0003:00000750       __STRLITPACK_188.0.2       0059d750     part_kernel_f:delpar.obj
 0003:00000758       __STRLITPACK_189.0.2       0059d758     part_kernel_f:delpar.obj
 0003:0000075c       __STRLITPACK_190.0.2       0059d75c     part_kernel_f:delpar.obj
 0003:00000764       __STRLITPACK_191.0.2       0059d764     part_kernel_f:delpar.obj
 0003:00000768       __STRLITPACK_192.0.2       0059d768     part_kernel_f:delpar.obj
 0003:00000770       __STRLITPACK_193.0.2       0059d770     part_kernel_f:delpar.obj
 0003:00000778       __STRLITPACK_194.0.2       0059d778     part_kernel_f:delpar.obj
 0003:00000780       __STRLITPACK_172.0.2       0059d780     part_kernel_f:delpar.obj
 0003:00000788       __STRLITPACK_173.0.2       0059d788     part_kernel_f:delpar.obj
 0003:00000790       __STRLITPACK_174.0.2       0059d790     part_kernel_f:delpar.obj
 0003:00000798       __STRLITPACK_175.0.2       0059d798     part_kernel_f:delpar.obj
 0003:000007a0       __STRLITPACK_176.0.2       0059d7a0     part_kernel_f:delpar.obj
 0003:000007a8       __STRLITPACK_177.0.2       0059d7a8     part_kernel_f:delpar.obj
 0003:000007b0       __STRLITPACK_178.0.2       0059d7b0     part_kernel_f:delpar.obj
 0003:000007b8       __STRLITPACK_179.0.2       0059d7b8     part_kernel_f:delpar.obj
 0003:000007c0       __STRLITPACK_180.0.2       0059d7c0     part_kernel_f:delpar.obj
 0003:000007c8       __STRLITPACK_181.0.2       0059d7c8     part_kernel_f:delpar.obj
 0003:000007d0       __STRLITPACK_182.0.2       0059d7d0     part_kernel_f:delpar.obj
 0003:000007d8       __STRLITPACK_183.0.2       0059d7d8     part_kernel_f:delpar.obj
 0003:000007e0       __STRLITPACK_184.0.2       0059d7e0     part_kernel_f:delpar.obj
 0003:000007e8       __STRLITPACK_185.0.2       0059d7e8     part_kernel_f:delpar.obj
 0003:000007f0       __STRLITPACK_186.0.2       0059d7f0     part_kernel_f:delpar.obj
 0003:00000800       __STRLITPACK_121           0059d800     part_kernel_f:delpar.obj
 0003:00000860       __STRLITPACK_100           0059d860     part_kernel_f:delpar.obj
 0003:000008b0       _2il0floatpacket.20        0059d8b0     part_kernel_f:delpar.obj
 0003:000008c0       _2il0floatpacket.21        0059d8c0     part_kernel_f:delpar.obj
 0003:000008c8       _2il0floatpacket.22        0059d8c8     part_kernel_f:delpar.obj
 0003:000008d0       _2il0floatpacket.23        0059d8d0     part_kernel_f:delpar.obj
 0003:000008d8       _2il0floatpacket.24        0059d8d8     part_kernel_f:delpar.obj
 0003:000008e0       _2il0floatpacket.25        0059d8e0     part_kernel_f:delpar.obj
 0003:000008e8       _2il0floatpacket.26        0059d8e8     part_kernel_f:delpar.obj
 0003:000008f0       _2il0floatpacket.18        0059d8f0     part_kernel_f:delpar.obj
 0003:000008f4       _2il0floatpacket.19        0059d8f4     part_kernel_f:delpar.obj
 0003:000008f8       _2il0floatpacket.27        0059d8f8     part_kernel_f:delpar.obj
 0003:000008fc       __STRLITPACK_150           0059d8fc     part_kernel_f:delpar.obj
 0003:00000904       __STRLITPACK_145           0059d904     part_kernel_f:delpar.obj
 0003:00000908       __STRLITPACK_144           0059d908     part_kernel_f:delpar.obj
 0003:00000928       __STRLITPACK_142           0059d928     part_kernel_f:delpar.obj
 0003:00000958       __STRLITPACK_138           0059d958     part_kernel_f:delpar.obj
 0003:00000960       __STRLITPACK_137           0059d960     part_kernel_f:delpar.obj
 0003:00000964       __STRLITPACK_135           0059d964     part_kernel_f:delpar.obj
 0003:00000988       __STRLITPACK_120           0059d988     part_kernel_f:delpar.obj
 0003:00000998       __STRLITPACK_108           0059d998     part_kernel_f:delpar.obj
 0003:0000099c       __STRLITPACK_106           0059d99c     part_kernel_f:delpar.obj
 0003:000009c0       __STRLITPACK_103           0059d9c0     part_kernel_f:delpar.obj
 0003:000009d8       __STRLITPACK_102           0059d9d8     part_kernel_f:delpar.obj
 0003:000009f0       __STRLITPACK_96            0059d9f0     part_kernel_f:delpar.obj
 0003:00000a10       __STRLITPACK_92            0059da10     part_kernel_f:delpar.obj
 0003:00000a30       __STRLITPACK_91            0059da30     part_kernel_f:delpar.obj
 0003:00000a34       __STRLITPACK_90            0059da34     part_kernel_f:delpar.obj
 0003:00000a40       __STRLITPACK_111           0059da40     part_kernel_f:delpar.obj
 0003:00000a44       __STRLITPACK_109           0059da44     part_kernel_f:delpar.obj
 0003:00000a74       __STRLITPACK_116           0059da74     part_kernel_f:delpar.obj
 0003:00000a78       __STRLITPACK_114           0059da78     part_kernel_f:delpar.obj
 0003:00000a9c       __STRLITPACK_112           0059da9c     part_kernel_f:delpar.obj
 0003:00000ad0       __STRLITPACK_119           0059dad0     part_kernel_f:delpar.obj
 0003:00000ad4       __STRLITPACK_117           0059dad4     part_kernel_f:delpar.obj
 0003:00000b04       __STRLITPACK_132           0059db04     part_kernel_f:delpar.obj
 0003:00000b0c       __STRLITPACK_131           0059db0c     part_kernel_f:delpar.obj
 0003:00000b18       __STRLITPACK_127           0059db18     part_kernel_f:delpar.obj
 0003:00000b24       __STRLITPACK_133           0059db24     part_kernel_f:delpar.obj
 0003:00000b60       _2il0floatpacket.4         0059db60     part_kernel_f:part01.obj
 0003:00000b70       _2il0floatpacket.0         0059db70     part_kernel_f:part01.obj
 0003:00000b74       _2il0floatpacket.1         0059db74     part_kernel_f:part01.obj
 0003:00000b78       _2il0floatpacket.2         0059db78     part_kernel_f:part01.obj
 0003:00000b7c       _2il0floatpacket.3         0059db7c     part_kernel_f:part01.obj
 0003:00000b80       __STRLITPACK_0             0059db80     part_kernel_f:part01.obj
 0003:00000b90       __STRLITPACK_7.0.1         0059db90     part_kernel_f:plotgr.obj
 0003:00000b98       _2il0floatpacket.0         0059db98     part_kernel_f:plotgr.obj
 0003:00000b9c       _2il0floatpacket.1         0059db9c     part_kernel_f:plotgr.obj
 0003:00000ba0       _2il0floatpacket.2         0059dba0     part_kernel_f:plotgr.obj
 0003:00000ba4       __STRLITPACK_6             0059dba4     part_kernel_f:plotgr.obj
 0003:00000bac       __STRLITPACK_1             0059dbac     part_kernel_f:plotgr.obj
 0003:00000bb0       __STRLITPACK_0             0059dbb0     part_kernel_f:plotgr.obj
 0003:00000bb4       __STRLITPACK_32.0.1        0059dbb4     part_kernel_f:part08.obj
 0003:00000bbc       __STRLITPACK_33.0.1        0059dbbc     part_kernel_f:part08.obj
 0003:00000bc4       __STRLITPACK_34.0.1        0059dbc4     part_kernel_f:part08.obj
 0003:00000bcc       __STRLITPACK_35.0.1        0059dbcc     part_kernel_f:part08.obj
 0003:00000bd4       __STRLITPACK_36.0.1        0059dbd4     part_kernel_f:part08.obj
 0003:00000bdc       __STRLITPACK_37.0.1        0059dbdc     part_kernel_f:part08.obj
 0003:00000be4       __STRLITPACK_38.0.1        0059dbe4     part_kernel_f:part08.obj
 0003:00000bec       __STRLITPACK_39.0.1        0059dbec     part_kernel_f:part08.obj
 0003:00000bf4       __STRLITPACK_40.0.1        0059dbf4     part_kernel_f:part08.obj
 0003:00000bfc       __STRLITPACK_41.0.1        0059dbfc     part_kernel_f:part08.obj
 0003:00000c04       __STRLITPACK_42.0.1        0059dc04     part_kernel_f:part08.obj
 0003:00000c0c       __STRLITPACK_43.0.1        0059dc0c     part_kernel_f:part08.obj
 0003:00000c14       __STRLITPACK_44.0.1        0059dc14     part_kernel_f:part08.obj
 0003:00000c1c       __STRLITPACK_45.0.1        0059dc1c     part_kernel_f:part08.obj
 0003:00000c24       __STRLITPACK_46.0.1        0059dc24     part_kernel_f:part08.obj
 0003:00000c2c       __STRLITPACK_47.0.1        0059dc2c     part_kernel_f:part08.obj
 0003:00000c34       __STRLITPACK_48.0.1        0059dc34     part_kernel_f:part08.obj
 0003:00000c3c       __STRLITPACK_49.0.1        0059dc3c     part_kernel_f:part08.obj
 0003:00000c44       __STRLITPACK_50.0.1        0059dc44     part_kernel_f:part08.obj
 0003:00000c4c       __STRLITPACK_51.0.1        0059dc4c     part_kernel_f:part08.obj
 0003:00000c54       _2il0floatpacket.0         0059dc54     part_kernel_f:part08.obj
 0003:00000c58       __STRLITPACK_25            0059dc58     part_kernel_f:part08.obj
 0003:00000c8c       __STRLITPACK_24            0059dc8c     part_kernel_f:part08.obj
 0003:00000ca4       __STRLITPACK_23            0059dca4     part_kernel_f:part08.obj
 0003:00000cc8       __STRLITPACK_17            0059dcc8     part_kernel_f:part08.obj
 0003:00000cfc       __STRLITPACK_16            0059dcfc     part_kernel_f:part08.obj
 0003:00000d14       __STRLITPACK_15            0059dd14     part_kernel_f:part08.obj
 0003:00000d40       __STRLITPACK_11            0059dd40     part_kernel_f:part08.obj
 0003:00000d60       __STRLITPACK_7             0059dd60     part_kernel_f:part08.obj
 0003:00000d80       __STRLITPACK_31            0059dd80     part_kernel_f:part08.obj
 0003:00000d88       __STRLITPACK_10.0.1        0059dd88     part_kernel_f:part06.obj
 0003:00000d90       __STRLITPACK_11.0.1        0059dd90     part_kernel_f:part06.obj
 0003:00000d98       __STRLITPACK_12.0.1        0059dd98     part_kernel_f:part06.obj
 0003:00000da0       __STRLITPACK_13.0.1        0059dda0     part_kernel_f:part06.obj
 0003:00000da8       __STRLITPACK_14.0.1        0059dda8     part_kernel_f:part06.obj
 0003:00000db0       __STRLITPACK_15.0.1        0059ddb0     part_kernel_f:part06.obj
 0003:00000db8       __STRLITPACK_16.0.1        0059ddb8     part_kernel_f:part06.obj
 0003:00000dc0       __STRLITPACK_9             0059ddc0     part_kernel_f:part06.obj
 0003:00000dd0       _2il0floatpacket.2         0059ddd0     part_kernel_f:part03.obj
 0003:00000de0       _2il0floatpacket.0         0059dde0     part_kernel_f:part03.obj
 0003:00000de4       _2il0floatpacket.1         0059dde4     part_kernel_f:part03.obj
 0003:00000de8       __STRLITPACK_0             0059dde8     part_kernel_f:part03.obj
 0003:00000e04       __STRLITPACK_1             0059de04     part_kernel_f:part03.obj
 0003:00000e10       __STRLITPACK_17.0.1        0059de10     part_kernel_f:part15.obj
 0003:00000e18       __STRLITPACK_18.0.1        0059de18     part_kernel_f:part15.obj
 0003:00000e20       __STRLITPACK_19.0.1        0059de20     part_kernel_f:part15.obj
 0003:00000e28       __STRLITPACK_20.0.1        0059de28     part_kernel_f:part15.obj
 0003:00000e30       __NLITPACK_0.0.1           0059de30     part_kernel_f:part15.obj
 0003:00000e34       __STRLITPACK_21.0.1        0059de34     part_kernel_f:part15.obj
 0003:00000e3c       __STRLITPACK_22.0.1        0059de3c     part_kernel_f:part15.obj
 0003:00000e44       __STRLITPACK_23.0.1        0059de44     part_kernel_f:part15.obj
 0003:00000e4c       __STRLITPACK_24.0.1        0059de4c     part_kernel_f:part15.obj
 0003:00000e54       __STRLITPACK_25.0.1        0059de54     part_kernel_f:part15.obj
 0003:00000e5c       __STRLITPACK_26.0.1        0059de5c     part_kernel_f:part15.obj
 0003:00000e70       _2il0floatpacket.8         0059de70     part_kernel_f:part15.obj
 0003:00000e80       _2il0floatpacket.9         0059de80     part_kernel_f:part15.obj
 0003:00000e90       _2il0floatpacket.10        0059de90     part_kernel_f:part15.obj
 0003:00000ea0       _2il0floatpacket.11        0059dea0     part_kernel_f:part15.obj
 0003:00000eb0       _2il0floatpacket.12        0059deb0     part_kernel_f:part15.obj
 0003:00000ec0       _2il0floatpacket.13        0059dec0     part_kernel_f:part15.obj
 0003:00000ed0       _2il0floatpacket.14        0059ded0     part_kernel_f:part15.obj
 0003:00000ee0       _2il0floatpacket.15        0059dee0     part_kernel_f:part15.obj
 0003:00000ef0       _2il0floatpacket.16        0059def0     part_kernel_f:part15.obj
 0003:00000f00       _2il0floatpacket.17        0059df00     part_kernel_f:part15.obj
 0003:00000f10       _2il0floatpacket.21        0059df10     part_kernel_f:part15.obj
 0003:00000f20       _2il0floatpacket.22        0059df20     part_kernel_f:part15.obj
 0003:00000f30       _2il0floatpacket.23        0059df30     part_kernel_f:part15.obj
 0003:00000f40       _2il0floatpacket.24        0059df40     part_kernel_f:part15.obj
 0003:00000f50       _2il0floatpacket.0         0059df50     part_kernel_f:part15.obj
 0003:00000f58       _2il0floatpacket.4         0059df58     part_kernel_f:part15.obj
 0003:00000f60       _2il0floatpacket.5         0059df60     part_kernel_f:part15.obj
 0003:00000f68       _2il0floatpacket.6         0059df68     part_kernel_f:part15.obj
 0003:00000f70       _2il0floatpacket.7         0059df70     part_kernel_f:part15.obj
 0003:00000f78       _2il0floatpacket.1         0059df78     part_kernel_f:part15.obj
 0003:00000f7c       _2il0floatpacket.2         0059df7c     part_kernel_f:part15.obj
 0003:00000f80       _2il0floatpacket.3         0059df80     part_kernel_f:part15.obj
 0003:00000f84       _2il0floatpacket.18        0059df84     part_kernel_f:part15.obj
 0003:00000f88       _2il0floatpacket.19        0059df88     part_kernel_f:part15.obj
 0003:00000f8c       _2il0floatpacket.20        0059df8c     part_kernel_f:part15.obj
 0003:00000f90       __STRLITPACK_16            0059df90     part_kernel_f:part15.obj
 0003:00000f98       __STRLITPACK_15            0059df98     part_kernel_f:part15.obj
 0003:00000fa0       __STRLITPACK_14            0059dfa0     part_kernel_f:part15.obj
 0003:00000fa8       __STRLITPACK_12            0059dfa8     part_kernel_f:part15.obj
 0003:00000fc8       __STRLITPACK_10            0059dfc8     part_kernel_f:part15.obj
 0003:00000fe8       __STRLITPACK_3             0059dfe8     part_kernel_f:part15.obj
 0003:0000100c       __STRLITPACK_2             0059e00c     part_kernel_f:part15.obj
 0003:00001018       __STRLITPACK_1             0059e018     part_kernel_f:part15.obj
 0003:0000103c       __STRLITPACK_0             0059e03c     part_kernel_f:part15.obj
 0003:00001050       __STRLITPACK_214.0.2       0059e050     part_kernel_f:oildsp.obj
 0003:00001058       __STRLITPACK_215.0.2       0059e058     part_kernel_f:oildsp.obj
 0003:00001060       __STRLITPACK_216.0.2       0059e060     part_kernel_f:oildsp.obj
 0003:00001070       __STRLITPACK_217.0.2       0059e070     part_kernel_f:oildsp.obj
 0003:00001078       __STRLITPACK_218.0.2       0059e078     part_kernel_f:oildsp.obj
 0003:00001080       __STRLITPACK_219.0.2       0059e080     part_kernel_f:oildsp.obj
 0003:00001088       __STRLITPACK_220.0.2       0059e088     part_kernel_f:oildsp.obj
 0003:00001090       __STRLITPACK_221.0.2       0059e090     part_kernel_f:oildsp.obj
 0003:00001098       __STRLITPACK_222.0.2       0059e098     part_kernel_f:oildsp.obj
 0003:000010a0       __STRLITPACK_223.0.2       0059e0a0     part_kernel_f:oildsp.obj
 0003:000010a8       __STRLITPACK_224.0.2       0059e0a8     part_kernel_f:oildsp.obj
 0003:000010b0       __STRLITPACK_225.0.2       0059e0b0     part_kernel_f:oildsp.obj
 0003:000010b8       __STRLITPACK_226.0.2       0059e0b8     part_kernel_f:oildsp.obj
 0003:000010bc       __STRLITPACK_255.0.2       0059e0bc     part_kernel_f:oildsp.obj
 0003:000010c0       __STRLITPACK_256.0.2       0059e0c0     part_kernel_f:oildsp.obj
 0003:000010c8       __STRLITPACK_257.0.2       0059e0c8     part_kernel_f:oildsp.obj
 0003:000010d0       __STRLITPACK_258.0.2       0059e0d0     part_kernel_f:oildsp.obj
 0003:000010d8       __STRLITPACK_259.0.2       0059e0d8     part_kernel_f:oildsp.obj
 0003:000010e0       __STRLITPACK_260.0.2       0059e0e0     part_kernel_f:oildsp.obj
 0003:000010e8       __STRLITPACK_261.0.2       0059e0e8     part_kernel_f:oildsp.obj
 0003:000010f0       __STRLITPACK_262.0.2       0059e0f0     part_kernel_f:oildsp.obj
 0003:000010f8       __STRLITPACK_263.0.2       0059e0f8     part_kernel_f:oildsp.obj
 0003:00001100       __STRLITPACK_264.0.2       0059e100     part_kernel_f:oildsp.obj
 0003:00001108       __STRLITPACK_265.0.2       0059e108     part_kernel_f:oildsp.obj
 0003:00001110       __STRLITPACK_278.0.2       0059e110     part_kernel_f:oildsp.obj
 0003:00001118       __STRLITPACK_279.0.2       0059e118     part_kernel_f:oildsp.obj
 0003:00001120       __STRLITPACK_280.0.2       0059e120     part_kernel_f:oildsp.obj
 0003:00001128       __STRLITPACK_281.0.2       0059e128     part_kernel_f:oildsp.obj
 0003:00001130       __STRLITPACK_282.0.2       0059e130     part_kernel_f:oildsp.obj
 0003:00001138       __STRLITPACK_283.0.2       0059e138     part_kernel_f:oildsp.obj
 0003:00001140       __STRLITPACK_284.0.2       0059e140     part_kernel_f:oildsp.obj
 0003:00001148       __STRLITPACK_285.0.2       0059e148     part_kernel_f:oildsp.obj
 0003:00001150       __STRLITPACK_286.0.2       0059e150     part_kernel_f:oildsp.obj
 0003:00001158       __STRLITPACK_287.0.2       0059e158     part_kernel_f:oildsp.obj
 0003:00001160       __STRLITPACK_288.0.2       0059e160     part_kernel_f:oildsp.obj
 0003:00001168       __STRLITPACK_289.0.2       0059e168     part_kernel_f:oildsp.obj
 0003:00001170       __STRLITPACK_290.0.2       0059e170     part_kernel_f:oildsp.obj
 0003:00001178       __STRLITPACK_291.0.2       0059e178     part_kernel_f:oildsp.obj
 0003:00001180       __STRLITPACK_292.0.2       0059e180     part_kernel_f:oildsp.obj
 0003:00001188       __STRLITPACK_293.0.2       0059e188     part_kernel_f:oildsp.obj
 0003:00001190       __STRLITPACK_294.0.2       0059e190     part_kernel_f:oildsp.obj
 0003:00001198       __STRLITPACK_295.0.2       0059e198     part_kernel_f:oildsp.obj
 0003:000011a0       __STRLITPACK_296.0.2       0059e1a0     part_kernel_f:oildsp.obj
 0003:000011a8       __STRLITPACK_297.0.2       0059e1a8     part_kernel_f:oildsp.obj
 0003:000011b0       __STRLITPACK_298.0.2       0059e1b0     part_kernel_f:oildsp.obj
 0003:000011b8       __NLITPACK_0.0.2           0059e1b8     part_kernel_f:oildsp.obj
 0003:000011bc       __STRLITPACK_299.0.2       0059e1bc     part_kernel_f:oildsp.obj
 0003:000011c4       __STRLITPACK_300.0.2       0059e1c4     part_kernel_f:oildsp.obj
 0003:000011cc       __STRLITPACK_301.0.2       0059e1cc     part_kernel_f:oildsp.obj
 0003:000011d0       __STRLITPACK_271.0.2       0059e1d0     part_kernel_f:oildsp.obj
 0003:000011d8       __STRLITPACK_272.0.2       0059e1d8     part_kernel_f:oildsp.obj
 0003:000011e0       __STRLITPACK_273.0.2       0059e1e0     part_kernel_f:oildsp.obj
 0003:000011e8       __STRLITPACK_274.0.2       0059e1e8     part_kernel_f:oildsp.obj
 0003:000011f0       __STRLITPACK_275.0.2       0059e1f0     part_kernel_f:oildsp.obj
 0003:000011f8       __STRLITPACK_276.0.2       0059e1f8     part_kernel_f:oildsp.obj
 0003:00001200       __STRLITPACK_277.0.2       0059e200     part_kernel_f:oildsp.obj
 0003:00001208       __STRLITPACK_266.0.2       0059e208     part_kernel_f:oildsp.obj
 0003:00001210       __STRLITPACK_267.0.2       0059e210     part_kernel_f:oildsp.obj
 0003:00001218       __STRLITPACK_268.0.2       0059e218     part_kernel_f:oildsp.obj
 0003:00001220       __STRLITPACK_269.0.2       0059e220     part_kernel_f:oildsp.obj
 0003:00001228       __STRLITPACK_270.0.2       0059e228     part_kernel_f:oildsp.obj
 0003:00001230       __STRLITPACK_227.0.2       0059e230     part_kernel_f:oildsp.obj
 0003:00001238       __STRLITPACK_228.0.2       0059e238     part_kernel_f:oildsp.obj
 0003:00001240       __STRLITPACK_229.0.2       0059e240     part_kernel_f:oildsp.obj
 0003:00001248       __STRLITPACK_230.0.2       0059e248     part_kernel_f:oildsp.obj
 0003:00001250       __STRLITPACK_231.0.2       0059e250     part_kernel_f:oildsp.obj
 0003:00001258       __STRLITPACK_232.0.2       0059e258     part_kernel_f:oildsp.obj
 0003:00001260       __STRLITPACK_233.0.2       0059e260     part_kernel_f:oildsp.obj
 0003:00001268       __STRLITPACK_234.0.2       0059e268     part_kernel_f:oildsp.obj
 0003:00001270       __STRLITPACK_235.0.2       0059e270     part_kernel_f:oildsp.obj
 0003:00001278       __STRLITPACK_236.0.2       0059e278     part_kernel_f:oildsp.obj
 0003:00001280       __STRLITPACK_237.0.2       0059e280     part_kernel_f:oildsp.obj
 0003:00001288       __STRLITPACK_238.0.2       0059e288     part_kernel_f:oildsp.obj
 0003:00001290       __STRLITPACK_239.0.2       0059e290     part_kernel_f:oildsp.obj
 0003:00001298       __STRLITPACK_240.0.2       0059e298     part_kernel_f:oildsp.obj
 0003:000012a0       __STRLITPACK_241.0.2       0059e2a0     part_kernel_f:oildsp.obj
 0003:000012a8       __STRLITPACK_242.0.2       0059e2a8     part_kernel_f:oildsp.obj
 0003:000012b0       __STRLITPACK_243.0.2       0059e2b0     part_kernel_f:oildsp.obj
 0003:000012b8       __STRLITPACK_244.0.2       0059e2b8     part_kernel_f:oildsp.obj
 0003:000012c0       __STRLITPACK_245.0.2       0059e2c0     part_kernel_f:oildsp.obj
 0003:000012c8       __STRLITPACK_246.0.2       0059e2c8     part_kernel_f:oildsp.obj
 0003:000012d0       __STRLITPACK_247.0.2       0059e2d0     part_kernel_f:oildsp.obj
 0003:000012d8       __STRLITPACK_248.0.2       0059e2d8     part_kernel_f:oildsp.obj
 0003:000012e0       __STRLITPACK_249.0.2       0059e2e0     part_kernel_f:oildsp.obj
 0003:000012e8       __STRLITPACK_250.0.2       0059e2e8     part_kernel_f:oildsp.obj
 0003:000012f0       __STRLITPACK_251.0.2       0059e2f0     part_kernel_f:oildsp.obj
 0003:000012f8       __STRLITPACK_252.0.2       0059e2f8     part_kernel_f:oildsp.obj
 0003:00001300       __STRLITPACK_253.0.2       0059e300     part_kernel_f:oildsp.obj
 0003:00001308       __STRLITPACK_254.0.2       0059e308     part_kernel_f:oildsp.obj
 0003:00001310       __STRLITPACK_302.0.2       0059e310     part_kernel_f:oildsp.obj
 0003:00001318       __STRLITPACK_303.0.2       0059e318     part_kernel_f:oildsp.obj
 0003:00001320       __STRLITPACK_305.0.2       0059e320     part_kernel_f:oildsp.obj
 0003:00001328       __STRLITPACK_306.0.2       0059e328     part_kernel_f:oildsp.obj
 0003:00001330       __STRLITPACK_307.0.2       0059e330     part_kernel_f:oildsp.obj
 0003:00001338       __STRLITPACK_308.0.2       0059e338     part_kernel_f:oildsp.obj
 0003:00001340       __STRLITPACK_309.0.2       0059e340     part_kernel_f:oildsp.obj
 0003:00001348       __STRLITPACK_310.0.2       0059e348     part_kernel_f:oildsp.obj
 0003:00001350       __STRLITPACK_311.0.2       0059e350     part_kernel_f:oildsp.obj
 0003:00001358       __STRLITPACK_312.0.2       0059e358     part_kernel_f:oildsp.obj
 0003:0000135c       __STRLITPACK_313.0.2       0059e35c     part_kernel_f:oildsp.obj
 0003:00001364       __STRLITPACK_314.0.2       0059e364     part_kernel_f:oildsp.obj
 0003:0000136c       __STRLITPACK_315.0.2       0059e36c     part_kernel_f:oildsp.obj
 0003:00001374       __STRLITPACK_316.0.2       0059e374     part_kernel_f:oildsp.obj
 0003:0000137c       __STRLITPACK_317.0.2       0059e37c     part_kernel_f:oildsp.obj
 0003:00001384       __STRLITPACK_318.0.2       0059e384     part_kernel_f:oildsp.obj
 0003:0000138c       __STRLITPACK_319.0.2       0059e38c     part_kernel_f:oildsp.obj
 0003:00001394       __STRLITPACK_320.0.2       0059e394     part_kernel_f:oildsp.obj
 0003:0000139c       __STRLITPACK_321.0.2       0059e39c     part_kernel_f:oildsp.obj
 0003:000013a4       __STRLITPACK_322.0.2       0059e3a4     part_kernel_f:oildsp.obj
 0003:000013ac       __STRLITPACK_323.0.2       0059e3ac     part_kernel_f:oildsp.obj
 0003:000013b4       __STRLITPACK_324.0.2       0059e3b4     part_kernel_f:oildsp.obj
 0003:000013bc       __STRLITPACK_325.0.2       0059e3bc     part_kernel_f:oildsp.obj
 0003:000013c4       __STRLITPACK_326.0.2       0059e3c4     part_kernel_f:oildsp.obj
 0003:000013cc       __STRLITPACK_327.0.2       0059e3cc     part_kernel_f:oildsp.obj
 0003:000013d4       __STRLITPACK_328.0.2       0059e3d4     part_kernel_f:oildsp.obj
 0003:000013dc       __STRLITPACK_329.0.2       0059e3dc     part_kernel_f:oildsp.obj
 0003:000013e4       __STRLITPACK_330.0.2       0059e3e4     part_kernel_f:oildsp.obj
 0003:000013ec       __STRLITPACK_343.0.2       0059e3ec     part_kernel_f:oildsp.obj
 0003:000013f4       __STRLITPACK_344.0.2       0059e3f4     part_kernel_f:oildsp.obj
 0003:000013fc       __STRLITPACK_345.0.2       0059e3fc     part_kernel_f:oildsp.obj
 0003:00001404       __STRLITPACK_346.0.2       0059e404     part_kernel_f:oildsp.obj
 0003:0000140c       __STRLITPACK_347.0.2       0059e40c     part_kernel_f:oildsp.obj
 0003:00001414       __STRLITPACK_348.0.2       0059e414     part_kernel_f:oildsp.obj
 0003:0000141c       __STRLITPACK_349.0.2       0059e41c     part_kernel_f:oildsp.obj
 0003:00001424       __STRLITPACK_350.0.2       0059e424     part_kernel_f:oildsp.obj
 0003:0000142c       __STRLITPACK_351.0.2       0059e42c     part_kernel_f:oildsp.obj
 0003:00001434       __STRLITPACK_304.0.2       0059e434     part_kernel_f:oildsp.obj
 0003:0000143c       __STRLITPACK_331.0.2       0059e43c     part_kernel_f:oildsp.obj
 0003:00001444       __STRLITPACK_332.0.2       0059e444     part_kernel_f:oildsp.obj
 0003:0000144c       __STRLITPACK_333.0.2       0059e44c     part_kernel_f:oildsp.obj
 0003:00001454       __STRLITPACK_334.0.2       0059e454     part_kernel_f:oildsp.obj
 0003:0000145c       __STRLITPACK_335.0.2       0059e45c     part_kernel_f:oildsp.obj
 0003:00001464       __STRLITPACK_336.0.2       0059e464     part_kernel_f:oildsp.obj
 0003:0000146c       __STRLITPACK_337.0.2       0059e46c     part_kernel_f:oildsp.obj
 0003:00001474       __STRLITPACK_338.0.2       0059e474     part_kernel_f:oildsp.obj
 0003:0000147c       __STRLITPACK_339.0.2       0059e47c     part_kernel_f:oildsp.obj
 0003:00001484       __STRLITPACK_340.0.2       0059e484     part_kernel_f:oildsp.obj
 0003:0000148c       __STRLITPACK_341.0.2       0059e48c     part_kernel_f:oildsp.obj
 0003:00001494       __STRLITPACK_342.0.2       0059e494     part_kernel_f:oildsp.obj
 0003:000014a0       _2il0floatpacket.40        0059e4a0     part_kernel_f:oildsp.obj
 0003:000014b0       _2il0floatpacket.7         0059e4b0     part_kernel_f:oildsp.obj
 0003:000014b8       _2il0floatpacket.8         0059e4b8     part_kernel_f:oildsp.obj
 0003:000014c0       _2il0floatpacket.9         0059e4c0     part_kernel_f:oildsp.obj
 0003:000014c8       _2il0floatpacket.13        0059e4c8     part_kernel_f:oildsp.obj
 0003:000014d0       _2il0floatpacket.24        0059e4d0     part_kernel_f:oildsp.obj
 0003:000014d8       _2il0floatpacket.25        0059e4d8     part_kernel_f:oildsp.obj
 0003:000014e0       _2il0floatpacket.26        0059e4e0     part_kernel_f:oildsp.obj
 0003:000014e8       _2il0floatpacket.42        0059e4e8     part_kernel_f:oildsp.obj
 0003:000014f0       _2il0floatpacket.0         0059e4f0     part_kernel_f:oildsp.obj
 0003:000014f4       _2il0floatpacket.1         0059e4f4     part_kernel_f:oildsp.obj
 0003:000014f8       _2il0floatpacket.2         0059e4f8     part_kernel_f:oildsp.obj
 0003:000014fc       _2il0floatpacket.3         0059e4fc     part_kernel_f:oildsp.obj
 0003:00001500       _2il0floatpacket.4         0059e500     part_kernel_f:oildsp.obj
 0003:00001504       _2il0floatpacket.5         0059e504     part_kernel_f:oildsp.obj
 0003:00001508       _2il0floatpacket.6         0059e508     part_kernel_f:oildsp.obj
 0003:0000150c       _2il0floatpacket.10        0059e50c     part_kernel_f:oildsp.obj
 0003:00001510       _2il0floatpacket.11        0059e510     part_kernel_f:oildsp.obj
 0003:00001514       _2il0floatpacket.12        0059e514     part_kernel_f:oildsp.obj
 0003:00001518       _2il0floatpacket.14        0059e518     part_kernel_f:oildsp.obj
 0003:0000151c       _2il0floatpacket.15        0059e51c     part_kernel_f:oildsp.obj
 0003:00001520       _2il0floatpacket.16        0059e520     part_kernel_f:oildsp.obj
 0003:00001524       _2il0floatpacket.17        0059e524     part_kernel_f:oildsp.obj
 0003:00001528       _2il0floatpacket.18        0059e528     part_kernel_f:oildsp.obj
 0003:0000152c       _2il0floatpacket.19        0059e52c     part_kernel_f:oildsp.obj
 0003:00001530       _2il0floatpacket.20        0059e530     part_kernel_f:oildsp.obj
 0003:00001534       _2il0floatpacket.21        0059e534     part_kernel_f:oildsp.obj
 0003:00001538       _2il0floatpacket.22        0059e538     part_kernel_f:oildsp.obj
 0003:0000153c       _2il0floatpacket.23        0059e53c     part_kernel_f:oildsp.obj
 0003:00001540       _2il0floatpacket.27        0059e540     part_kernel_f:oildsp.obj
 0003:00001544       _2il0floatpacket.28        0059e544     part_kernel_f:oildsp.obj
 0003:00001548       _2il0floatpacket.29        0059e548     part_kernel_f:oildsp.obj
 0003:0000154c       _2il0floatpacket.30        0059e54c     part_kernel_f:oildsp.obj
 0003:00001550       _2il0floatpacket.31        0059e550     part_kernel_f:oildsp.obj
 0003:00001554       _2il0floatpacket.32        0059e554     part_kernel_f:oildsp.obj
 0003:00001558       _2il0floatpacket.33        0059e558     part_kernel_f:oildsp.obj
 0003:0000155c       _2il0floatpacket.34        0059e55c     part_kernel_f:oildsp.obj
 0003:00001560       _2il0floatpacket.35        0059e560     part_kernel_f:oildsp.obj
 0003:00001564       _2il0floatpacket.36        0059e564     part_kernel_f:oildsp.obj
 0003:00001568       _2il0floatpacket.37        0059e568     part_kernel_f:oildsp.obj
 0003:0000156c       _2il0floatpacket.38        0059e56c     part_kernel_f:oildsp.obj
 0003:00001570       _2il0floatpacket.39        0059e570     part_kernel_f:oildsp.obj
 0003:00001574       _2il0floatpacket.41        0059e574     part_kernel_f:oildsp.obj
 0003:00001578       __STRLITPACK_213           0059e578     part_kernel_f:oildsp.obj
 0003:00001580       __STRLITPACK_212           0059e580     part_kernel_f:oildsp.obj
 0003:00001588       __STRLITPACK_211           0059e588     part_kernel_f:oildsp.obj
 0003:00001590       __STRLITPACK_210           0059e590     part_kernel_f:oildsp.obj
 0003:00001598       __STRLITPACK_209           0059e598     part_kernel_f:oildsp.obj
 0003:000015a0       __STRLITPACK_208           0059e5a0     part_kernel_f:oildsp.obj
 0003:000015a4       __STRLITPACK_207           0059e5a4     part_kernel_f:oildsp.obj
 0003:000015a8       __STRLITPACK_206           0059e5a8     part_kernel_f:oildsp.obj
 0003:000015b0       __STRLITPACK_205           0059e5b0     part_kernel_f:oildsp.obj
 0003:000015b8       __STRLITPACK_204           0059e5b8     part_kernel_f:oildsp.obj
 0003:000015c0       __STRLITPACK_203           0059e5c0     part_kernel_f:oildsp.obj
 0003:000015c8       __STRLITPACK_202           0059e5c8     part_kernel_f:oildsp.obj
 0003:000015d0       __STRLITPACK_201           0059e5d0     part_kernel_f:oildsp.obj
 0003:000015d8       __STRLITPACK_200           0059e5d8     part_kernel_f:oildsp.obj
 0003:000015e0       __STRLITPACK_199           0059e5e0     part_kernel_f:oildsp.obj
 0003:000015e8       __STRLITPACK_198           0059e5e8     part_kernel_f:oildsp.obj
 0003:000015f0       __STRLITPACK_197           0059e5f0     part_kernel_f:oildsp.obj
 0003:000015f8       __STRLITPACK_196           0059e5f8     part_kernel_f:oildsp.obj
 0003:00001600       __STRLITPACK_195           0059e600     part_kernel_f:oildsp.obj
 0003:00001608       __STRLITPACK_194           0059e608     part_kernel_f:oildsp.obj
 0003:00001610       __STRLITPACK_193           0059e610     part_kernel_f:oildsp.obj
 0003:00001618       __STRLITPACK_192           0059e618     part_kernel_f:oildsp.obj
 0003:00001620       __STRLITPACK_188           0059e620     part_kernel_f:oildsp.obj
 0003:00001628       __STRLITPACK_178           0059e628     part_kernel_f:oildsp.obj
 0003:00001640       __STRLITPACK_177           0059e640     part_kernel_f:oildsp.obj
 0003:00001658       __STRLITPACK_176           0059e658     part_kernel_f:oildsp.obj
 0003:00001670       __STRLITPACK_175           0059e670     part_kernel_f:oildsp.obj
 0003:00001688       __STRLITPACK_174           0059e688     part_kernel_f:oildsp.obj
 0003:000016a0       __STRLITPACK_173           0059e6a0     part_kernel_f:oildsp.obj
 0003:000016b8       __STRLITPACK_172           0059e6b8     part_kernel_f:oildsp.obj
 0003:000016d8       __STRLITPACK_171           0059e6d8     part_kernel_f:oildsp.obj
 0003:000016f8       __STRLITPACK_170           0059e6f8     part_kernel_f:oildsp.obj
 0003:00001718       __STRLITPACK_104           0059e718     part_kernel_f:oildsp.obj
 0003:00001724       __STRLITPACK_103           0059e724     part_kernel_f:oildsp.obj
 0003:00001734       __STRLITPACK_102           0059e734     part_kernel_f:oildsp.obj
 0003:00001740       __STRLITPACK_98            0059e740     part_kernel_f:oildsp.obj
 0003:0000174c       __STRLITPACK_97            0059e74c     part_kernel_f:oildsp.obj
 0003:0000175c       __STRLITPACK_96            0059e75c     part_kernel_f:oildsp.obj
 0003:0000176c       __STRLITPACK_80            0059e76c     part_kernel_f:oildsp.obj
 0003:00001798       __STRLITPACK_76            0059e798     part_kernel_f:oildsp.obj
 0003:000017a4       __STRLITPACK_75            0059e7a4     part_kernel_f:oildsp.obj
 0003:000017b4       __STRLITPACK_74            0059e7b4     part_kernel_f:oildsp.obj
 0003:000017c0       __STRLITPACK_70            0059e7c0     part_kernel_f:oildsp.obj
 0003:000017cc       __STRLITPACK_69            0059e7cc     part_kernel_f:oildsp.obj
 0003:000017dc       __STRLITPACK_68            0059e7dc     part_kernel_f:oildsp.obj
 0003:000017ec       __STRLITPACK_66            0059e7ec     part_kernel_f:oildsp.obj
 0003:00001818       __STRLITPACK_64            0059e818     part_kernel_f:oildsp.obj
 0003:0000183c       __STRLITPACK_62            0059e83c     part_kernel_f:oildsp.obj
 0003:00001868       __STRLITPACK_60            0059e868     part_kernel_f:oildsp.obj
 0003:0000188c       __STRLITPACK_58            0059e88c     part_kernel_f:oildsp.obj
 0003:000018a8       __STRLITPACK_56            0059e8a8     part_kernel_f:oildsp.obj
 0003:000018c4       __STRLITPACK_54            0059e8c4     part_kernel_f:oildsp.obj
 0003:000018f0       __STRLITPACK_52            0059e8f0     part_kernel_f:oildsp.obj
 0003:0000191c       __STRLITPACK_50            0059e91c     part_kernel_f:oildsp.obj
 0003:0000194c       __STRLITPACK_48            0059e94c     part_kernel_f:oildsp.obj
 0003:0000197c       __STRLITPACK_87            0059e97c     part_kernel_f:oildsp.obj
 0003:00001988       __STRLITPACK_86            0059e988     part_kernel_f:oildsp.obj
 0003:000019a0       __STRLITPACK_84            0059e9a0     part_kernel_f:oildsp.obj
 0003:000019d0       __STRLITPACK_82            0059e9d0     part_kernel_f:oildsp.obj
 0003:000019fc       __STRLITPACK_93            0059e9fc     part_kernel_f:oildsp.obj
 0003:00001a08       __STRLITPACK_92            0059ea08     part_kernel_f:oildsp.obj
 0003:00001a20       __STRLITPACK_90            0059ea20     part_kernel_f:oildsp.obj
 0003:00001a50       __STRLITPACK_164           0059ea50     part_kernel_f:oildsp.obj
 0003:00001a70       __STRLITPACK_160           0059ea70     part_kernel_f:oildsp.obj
 0003:00001a94       __STRLITPACK_156           0059ea94     part_kernel_f:oildsp.obj
 0003:00001aa4       __STRLITPACK_152           0059eaa4     part_kernel_f:oildsp.obj
 0003:00001abc       __STRLITPACK_148           0059eabc     part_kernel_f:oildsp.obj
 0003:00001ad4       __STRLITPACK_144           0059ead4     part_kernel_f:oildsp.obj
 0003:00001ae4       __STRLITPACK_140           0059eae4     part_kernel_f:oildsp.obj
 0003:00001af4       __STRLITPACK_135           0059eaf4     part_kernel_f:oildsp.obj
 0003:00001b14       __STRLITPACK_134           0059eb14     part_kernel_f:oildsp.obj
 0003:00001b18       __STRLITPACK_129           0059eb18     part_kernel_f:oildsp.obj
 0003:00001b38       __STRLITPACK_128           0059eb38     part_kernel_f:oildsp.obj
 0003:00001b3c       __STRLITPACK_123           0059eb3c     part_kernel_f:oildsp.obj
 0003:00001b5c       __STRLITPACK_122           0059eb5c     part_kernel_f:oildsp.obj
 0003:00001b60       __STRLITPACK_117           0059eb60     part_kernel_f:oildsp.obj
 0003:00001b80       __STRLITPACK_116           0059eb80     part_kernel_f:oildsp.obj
 0003:00001b88       __STRLITPACK_111           0059eb88     part_kernel_f:oildsp.obj
 0003:00001ba4       __STRLITPACK_110           0059eba4     part_kernel_f:oildsp.obj
 0003:00001bb8       __STRLITPACK_42            0059ebb8     part_kernel_f:oildsp.obj
 0003:00001bd4       __STRLITPACK_37            0059ebd4     part_kernel_f:oildsp.obj
 0003:00001be0       __STRLITPACK_36            0059ebe0     part_kernel_f:oildsp.obj
 0003:00001be8       __STRLITPACK_35            0059ebe8     part_kernel_f:oildsp.obj
 0003:00001c08       __STRLITPACK_40            0059ec08     part_kernel_f:oildsp.obj
 0003:00001c30       __STRLITPACK_229.0.2       0059ec30     part_kernel_f:partwq.obj
 0003:00001c38       __STRLITPACK_230.0.2       0059ec38     part_kernel_f:partwq.obj
 0003:00001c40       __STRLITPACK_231.0.2       0059ec40     part_kernel_f:partwq.obj
 0003:00001c48       __STRLITPACK_232.0.2       0059ec48     part_kernel_f:partwq.obj
 0003:00001c50       __NLITPACK_0.0.2           0059ec50     part_kernel_f:partwq.obj
 0003:00001c54       __STRLITPACK_236.0.2       0059ec54     part_kernel_f:partwq.obj
 0003:00001c5c       __STRLITPACK_238.0.2       0059ec5c     part_kernel_f:partwq.obj
 0003:00001c64       __STRLITPACK_239.0.2       0059ec64     part_kernel_f:partwq.obj
 0003:00001c6c       __STRLITPACK_240.0.2       0059ec6c     part_kernel_f:partwq.obj
 0003:00001c74       __STRLITPACK_241.0.2       0059ec74     part_kernel_f:partwq.obj
 0003:00001c7c       __STRLITPACK_242.0.2       0059ec7c     part_kernel_f:partwq.obj
 0003:00001c84       __STRLITPACK_243.0.2       0059ec84     part_kernel_f:partwq.obj
 0003:00001c8c       __STRLITPACK_244.0.2       0059ec8c     part_kernel_f:partwq.obj
 0003:00001c94       __STRLITPACK_248.0.2       0059ec94     part_kernel_f:partwq.obj
 0003:00001c9c       __STRLITPACK_249.0.2       0059ec9c     part_kernel_f:partwq.obj
 0003:00001ca4       __STRLITPACK_250.0.2       0059eca4     part_kernel_f:partwq.obj
 0003:00001cac       __STRLITPACK_251.0.2       0059ecac     part_kernel_f:partwq.obj
 0003:00001cb4       __STRLITPACK_252.0.2       0059ecb4     part_kernel_f:partwq.obj
 0003:00001cbc       __STRLITPACK_253.0.2       0059ecbc     part_kernel_f:partwq.obj
 0003:00001cc4       __STRLITPACK_254.0.2       0059ecc4     part_kernel_f:partwq.obj
 0003:00001ccc       __STRLITPACK_255.0.2       0059eccc     part_kernel_f:partwq.obj
 0003:00001cd4       __STRLITPACK_256.0.2       0059ecd4     part_kernel_f:partwq.obj
 0003:00001cdc       __STRLITPACK_257.0.2       0059ecdc     part_kernel_f:partwq.obj
 0003:00001ce4       __STRLITPACK_258.0.2       0059ece4     part_kernel_f:partwq.obj
 0003:00001cec       __STRLITPACK_259.0.2       0059ecec     part_kernel_f:partwq.obj
 0003:00001cf4       __STRLITPACK_260.0.2       0059ecf4     part_kernel_f:partwq.obj
 0003:00001cfc       __STRLITPACK_261.0.2       0059ecfc     part_kernel_f:partwq.obj
 0003:00001d04       __STRLITPACK_262.0.2       0059ed04     part_kernel_f:partwq.obj
 0003:00001d0c       __STRLITPACK_263.0.2       0059ed0c     part_kernel_f:partwq.obj
 0003:00001d14       __STRLITPACK_264.0.2       0059ed14     part_kernel_f:partwq.obj
 0003:00001d1c       __STRLITPACK_265.0.2       0059ed1c     part_kernel_f:partwq.obj
 0003:00001d24       __STRLITPACK_266.0.2       0059ed24     part_kernel_f:partwq.obj
 0003:00001d2c       __STRLITPACK_267.0.2       0059ed2c     part_kernel_f:partwq.obj
 0003:00001d34       __STRLITPACK_268.0.2       0059ed34     part_kernel_f:partwq.obj
 0003:00001d3c       __STRLITPACK_269.0.2       0059ed3c     part_kernel_f:partwq.obj
 0003:00001d44       __STRLITPACK_270.0.2       0059ed44     part_kernel_f:partwq.obj
 0003:00001d4c       __STRLITPACK_271.0.2       0059ed4c     part_kernel_f:partwq.obj
 0003:00001d54       __STRLITPACK_272.0.2       0059ed54     part_kernel_f:partwq.obj
 0003:00001d5c       __STRLITPACK_273.0.2       0059ed5c     part_kernel_f:partwq.obj
 0003:00001d64       __STRLITPACK_274.0.2       0059ed64     part_kernel_f:partwq.obj
 0003:00001d6c       __STRLITPACK_275.0.2       0059ed6c     part_kernel_f:partwq.obj
 0003:00001d74       __STRLITPACK_276.0.2       0059ed74     part_kernel_f:partwq.obj
 0003:00001d7c       __STRLITPACK_277.0.2       0059ed7c     part_kernel_f:partwq.obj
 0003:00001d84       __STRLITPACK_278.0.2       0059ed84     part_kernel_f:partwq.obj
 0003:00001d8c       __STRLITPACK_279.0.2       0059ed8c     part_kernel_f:partwq.obj
 0003:00001d94       __STRLITPACK_280.0.2       0059ed94     part_kernel_f:partwq.obj
 0003:00001d9c       __STRLITPACK_281.0.2       0059ed9c     part_kernel_f:partwq.obj
 0003:00001da4       __STRLITPACK_282.0.2       0059eda4     part_kernel_f:partwq.obj
 0003:00001dac       __STRLITPACK_283.0.2       0059edac     part_kernel_f:partwq.obj
 0003:00001db4       __STRLITPACK_284.0.2       0059edb4     part_kernel_f:partwq.obj
 0003:00001dbc       __STRLITPACK_285.0.2       0059edbc     part_kernel_f:partwq.obj
 0003:00001dc4       __STRLITPACK_286.0.2       0059edc4     part_kernel_f:partwq.obj
 0003:00001dcc       __STRLITPACK_287.0.2       0059edcc     part_kernel_f:partwq.obj
 0003:00001dd4       __STRLITPACK_288.0.2       0059edd4     part_kernel_f:partwq.obj
 0003:00001ddc       __STRLITPACK_289.0.2       0059eddc     part_kernel_f:partwq.obj
 0003:00001de4       __STRLITPACK_290.0.2       0059ede4     part_kernel_f:partwq.obj
 0003:00001dec       __STRLITPACK_291.0.2       0059edec     part_kernel_f:partwq.obj
 0003:00001df4       __STRLITPACK_292.0.2       0059edf4     part_kernel_f:partwq.obj
 0003:00001dfc       __STRLITPACK_296.0.2       0059edfc     part_kernel_f:partwq.obj
 0003:00001e04       __STRLITPACK_297.0.2       0059ee04     part_kernel_f:partwq.obj
 0003:00001e0c       __STRLITPACK_301.0.2       0059ee0c     part_kernel_f:partwq.obj
 0003:00001e14       __STRLITPACK_302.0.2       0059ee14     part_kernel_f:partwq.obj
 0003:00001e1c       __STRLITPACK_303.0.2       0059ee1c     part_kernel_f:partwq.obj
 0003:00001e24       __STRLITPACK_304.0.2       0059ee24     part_kernel_f:partwq.obj
 0003:00001e2c       __STRLITPACK_305.0.2       0059ee2c     part_kernel_f:partwq.obj
 0003:00001e34       __STRLITPACK_306.0.2       0059ee34     part_kernel_f:partwq.obj
 0003:00001e3c       __STRLITPACK_307.0.2       0059ee3c     part_kernel_f:partwq.obj
 0003:00001e44       __STRLITPACK_308.0.2       0059ee44     part_kernel_f:partwq.obj
 0003:00001e4c       __STRLITPACK_309.0.2       0059ee4c     part_kernel_f:partwq.obj
 0003:00001e54       __STRLITPACK_310.0.2       0059ee54     part_kernel_f:partwq.obj
 0003:00001e5c       __STRLITPACK_311.0.2       0059ee5c     part_kernel_f:partwq.obj
 0003:00001e64       __STRLITPACK_312.0.2       0059ee64     part_kernel_f:partwq.obj
 0003:00001e6c       __STRLITPACK_313.0.2       0059ee6c     part_kernel_f:partwq.obj
 0003:00001e74       __STRLITPACK_314.0.2       0059ee74     part_kernel_f:partwq.obj
 0003:00001e7c       __STRLITPACK_315.0.2       0059ee7c     part_kernel_f:partwq.obj
 0003:00001e84       __STRLITPACK_316.0.2       0059ee84     part_kernel_f:partwq.obj
 0003:00001e8c       __STRLITPACK_317.0.2       0059ee8c     part_kernel_f:partwq.obj
 0003:00001e94       __STRLITPACK_318.0.2       0059ee94     part_kernel_f:partwq.obj
 0003:00001e9c       __STRLITPACK_319.0.2       0059ee9c     part_kernel_f:partwq.obj
 0003:00001ea4       __STRLITPACK_320.0.2       0059eea4     part_kernel_f:partwq.obj
 0003:00001eac       __STRLITPACK_321.0.2       0059eeac     part_kernel_f:partwq.obj
 0003:00001eb4       __STRLITPACK_322.0.2       0059eeb4     part_kernel_f:partwq.obj
 0003:00001ebc       __STRLITPACK_323.0.2       0059eebc     part_kernel_f:partwq.obj
 0003:00001ec4       __STRLITPACK_324.0.2       0059eec4     part_kernel_f:partwq.obj
 0003:00001ecc       __STRLITPACK_325.0.2       0059eecc     part_kernel_f:partwq.obj
 0003:00001ed4       __STRLITPACK_326.0.2       0059eed4     part_kernel_f:partwq.obj
 0003:00001edc       __STRLITPACK_327.0.2       0059eedc     part_kernel_f:partwq.obj
 0003:00001ee4       __STRLITPACK_328.0.2       0059eee4     part_kernel_f:partwq.obj
 0003:00001eec       __STRLITPACK_329.0.2       0059eeec     part_kernel_f:partwq.obj
 0003:00001ef4       __STRLITPACK_330.0.2       0059eef4     part_kernel_f:partwq.obj
 0003:00001efc       __STRLITPACK_331.0.2       0059eefc     part_kernel_f:partwq.obj
 0003:00001f04       __STRLITPACK_332.0.2       0059ef04     part_kernel_f:partwq.obj
 0003:00001f0c       __STRLITPACK_333.0.2       0059ef0c     part_kernel_f:partwq.obj
 0003:00001f14       __STRLITPACK_334.0.2       0059ef14     part_kernel_f:partwq.obj
 0003:00001f1c       __STRLITPACK_335.0.2       0059ef1c     part_kernel_f:partwq.obj
 0003:00001f24       __STRLITPACK_336.0.2       0059ef24     part_kernel_f:partwq.obj
 0003:00001f2c       __STRLITPACK_337.0.2       0059ef2c     part_kernel_f:partwq.obj
 0003:00001f34       __STRLITPACK_338.0.2       0059ef34     part_kernel_f:partwq.obj
 0003:00001f3c       __STRLITPACK_339.0.2       0059ef3c     part_kernel_f:partwq.obj
 0003:00001f44       __STRLITPACK_340.0.2       0059ef44     part_kernel_f:partwq.obj
 0003:00001f4c       __STRLITPACK_341.0.2       0059ef4c     part_kernel_f:partwq.obj
 0003:00001f54       __STRLITPACK_342.0.2       0059ef54     part_kernel_f:partwq.obj
 0003:00001f5c       __STRLITPACK_343.0.2       0059ef5c     part_kernel_f:partwq.obj
 0003:00001f64       __STRLITPACK_344.0.2       0059ef64     part_kernel_f:partwq.obj
 0003:00001f6c       __STRLITPACK_345.0.2       0059ef6c     part_kernel_f:partwq.obj
 0003:00001f74       __STRLITPACK_346.0.2       0059ef74     part_kernel_f:partwq.obj
 0003:00001f7c       __STRLITPACK_347.0.2       0059ef7c     part_kernel_f:partwq.obj
 0003:00001f84       __STRLITPACK_348.0.2       0059ef84     part_kernel_f:partwq.obj
 0003:00001f8c       __STRLITPACK_349.0.2       0059ef8c     part_kernel_f:partwq.obj
 0003:00001f94       __STRLITPACK_350.0.2       0059ef94     part_kernel_f:partwq.obj
 0003:00001f9c       __STRLITPACK_351.0.2       0059ef9c     part_kernel_f:partwq.obj
 0003:00001fa4       __STRLITPACK_352.0.2       0059efa4     part_kernel_f:partwq.obj
 0003:00001fac       __STRLITPACK_353.0.2       0059efac     part_kernel_f:partwq.obj
 0003:00001fb4       __STRLITPACK_354.0.2       0059efb4     part_kernel_f:partwq.obj
 0003:00001fbc       __STRLITPACK_355.0.2       0059efbc     part_kernel_f:partwq.obj
 0003:00001fc4       __STRLITPACK_356.0.2       0059efc4     part_kernel_f:partwq.obj
 0003:00001fcc       __STRLITPACK_357.0.2       0059efcc     part_kernel_f:partwq.obj
 0003:00001fd4       __STRLITPACK_358.0.2       0059efd4     part_kernel_f:partwq.obj
 0003:00001fdc       __STRLITPACK_359.0.2       0059efdc     part_kernel_f:partwq.obj
 0003:00001fe4       __STRLITPACK_360.0.2       0059efe4     part_kernel_f:partwq.obj
 0003:00001fec       __STRLITPACK_361.0.2       0059efec     part_kernel_f:partwq.obj
 0003:00001ff4       __STRLITPACK_362.0.2       0059eff4     part_kernel_f:partwq.obj
 0003:00001ffc       __STRLITPACK_363.0.2       0059effc     part_kernel_f:partwq.obj
 0003:00002004       __STRLITPACK_364.0.2       0059f004     part_kernel_f:partwq.obj
 0003:0000200c       __STRLITPACK_365.0.2       0059f00c     part_kernel_f:partwq.obj
 0003:00002014       __STRLITPACK_366.0.2       0059f014     part_kernel_f:partwq.obj
 0003:0000201c       __STRLITPACK_367.0.2       0059f01c     part_kernel_f:partwq.obj
 0003:00002024       __STRLITPACK_368.0.2       0059f024     part_kernel_f:partwq.obj
 0003:0000202c       __STRLITPACK_369.0.2       0059f02c     part_kernel_f:partwq.obj
 0003:00002034       __STRLITPACK_370.0.2       0059f034     part_kernel_f:partwq.obj
 0003:0000203c       __STRLITPACK_371.0.2       0059f03c     part_kernel_f:partwq.obj
 0003:00002044       __STRLITPACK_372.0.2       0059f044     part_kernel_f:partwq.obj
 0003:0000204c       __STRLITPACK_373.0.2       0059f04c     part_kernel_f:partwq.obj
 0003:00002054       __STRLITPACK_374.0.2       0059f054     part_kernel_f:partwq.obj
 0003:0000205c       __STRLITPACK_375.0.2       0059f05c     part_kernel_f:partwq.obj
 0003:00002064       __STRLITPACK_376.0.2       0059f064     part_kernel_f:partwq.obj
 0003:0000206c       __STRLITPACK_377.0.2       0059f06c     part_kernel_f:partwq.obj
 0003:00002074       __STRLITPACK_378.0.2       0059f074     part_kernel_f:partwq.obj
 0003:0000207c       __STRLITPACK_379.0.2       0059f07c     part_kernel_f:partwq.obj
 0003:00002084       __STRLITPACK_380.0.2       0059f084     part_kernel_f:partwq.obj
 0003:0000208c       __STRLITPACK_381.0.2       0059f08c     part_kernel_f:partwq.obj
 0003:00002094       __STRLITPACK_382.0.2       0059f094     part_kernel_f:partwq.obj
 0003:0000209c       __STRLITPACK_383.0.2       0059f09c     part_kernel_f:partwq.obj
 0003:000020a4       __STRLITPACK_384.0.2       0059f0a4     part_kernel_f:partwq.obj
 0003:000020ac       __STRLITPACK_385.0.2       0059f0ac     part_kernel_f:partwq.obj
 0003:000020b4       __STRLITPACK_386.0.2       0059f0b4     part_kernel_f:partwq.obj
 0003:000020bc       __STRLITPACK_388.0.2       0059f0bc     part_kernel_f:partwq.obj
 0003:000020c4       __STRLITPACK_389.0.2       0059f0c4     part_kernel_f:partwq.obj
 0003:000020cc       __STRLITPACK_390.0.2       0059f0cc     part_kernel_f:partwq.obj
 0003:000020d4       __STRLITPACK_391.0.2       0059f0d4     part_kernel_f:partwq.obj
 0003:000020dc       __STRLITPACK_298.0.2       0059f0dc     part_kernel_f:partwq.obj
 0003:000020e4       __STRLITPACK_299.0.2       0059f0e4     part_kernel_f:partwq.obj
 0003:000020ec       __STRLITPACK_300.0.2       0059f0ec     part_kernel_f:partwq.obj
 0003:000020f4       __STRLITPACK_293.0.2       0059f0f4     part_kernel_f:partwq.obj
 0003:000020fc       __STRLITPACK_294.0.2       0059f0fc     part_kernel_f:partwq.obj
 0003:00002104       __STRLITPACK_295.0.2       0059f104     part_kernel_f:partwq.obj
 0003:0000210c       __STRLITPACK_245.0.2       0059f10c     part_kernel_f:partwq.obj
 0003:00002114       __STRLITPACK_246.0.2       0059f114     part_kernel_f:partwq.obj
 0003:0000211c       __STRLITPACK_247.0.2       0059f11c     part_kernel_f:partwq.obj
 0003:00002124       __STRLITPACK_237.0.2       0059f124     part_kernel_f:partwq.obj
 0003:0000212c       __STRLITPACK_233.0.2       0059f12c     part_kernel_f:partwq.obj
 0003:00002134       __STRLITPACK_234.0.2       0059f134     part_kernel_f:partwq.obj
 0003:0000213c       __STRLITPACK_235.0.2       0059f13c     part_kernel_f:partwq.obj
 0003:00002144       __STRLITPACK_228.0.2       0059f144     part_kernel_f:partwq.obj
 0003:0000214c       __STRLITPACK_225.0.2       0059f14c     part_kernel_f:partwq.obj
 0003:00002154       __STRLITPACK_226.0.2       0059f154     part_kernel_f:partwq.obj
 0003:0000215c       __STRLITPACK_227.0.2       0059f15c     part_kernel_f:partwq.obj
 0003:00002164       __STRLITPACK_387.0.2       0059f164     part_kernel_f:partwq.obj
 0003:00002170       _2il0floatpacket.19        0059f170     part_kernel_f:partwq.obj
 0003:00002180       _2il0floatpacket.20        0059f180     part_kernel_f:partwq.obj
 0003:00002190       _2il0floatpacket.12        0059f190     part_kernel_f:partwq.obj
 0003:00002198       _2il0floatpacket.13        0059f198     part_kernel_f:partwq.obj
 0003:000021a0       _2il0floatpacket.14        0059f1a0     part_kernel_f:partwq.obj
 0003:000021a8       _2il0floatpacket.0         0059f1a8     part_kernel_f:partwq.obj
 0003:000021ac       _2il0floatpacket.1         0059f1ac     part_kernel_f:partwq.obj
 0003:000021b0       _2il0floatpacket.2         0059f1b0     part_kernel_f:partwq.obj
 0003:000021b4       _2il0floatpacket.3         0059f1b4     part_kernel_f:partwq.obj
 0003:000021b8       _2il0floatpacket.4         0059f1b8     part_kernel_f:partwq.obj
 0003:000021bc       _2il0floatpacket.5         0059f1bc     part_kernel_f:partwq.obj
 0003:000021c0       _2il0floatpacket.6         0059f1c0     part_kernel_f:partwq.obj
 0003:000021c4       _2il0floatpacket.7         0059f1c4     part_kernel_f:partwq.obj
 0003:000021c8       _2il0floatpacket.8         0059f1c8     part_kernel_f:partwq.obj
 0003:000021cc       _2il0floatpacket.9         0059f1cc     part_kernel_f:partwq.obj
 0003:000021d0       _2il0floatpacket.10        0059f1d0     part_kernel_f:partwq.obj
 0003:000021d4       _2il0floatpacket.11        0059f1d4     part_kernel_f:partwq.obj
 0003:000021d8       _2il0floatpacket.15        0059f1d8     part_kernel_f:partwq.obj
 0003:000021dc       _2il0floatpacket.16        0059f1dc     part_kernel_f:partwq.obj
 0003:000021e0       _2il0floatpacket.17        0059f1e0     part_kernel_f:partwq.obj
 0003:000021e4       _2il0floatpacket.18        0059f1e4     part_kernel_f:partwq.obj
 0003:000021e8       _2il0floatpacket.21        0059f1e8     part_kernel_f:partwq.obj
 0003:000021ec       __STRLITPACK_223           0059f1ec     part_kernel_f:partwq.obj
 0003:000021f4       __STRLITPACK_218           0059f1f4     part_kernel_f:partwq.obj
 0003:00002200       __STRLITPACK_217           0059f200     part_kernel_f:partwq.obj
 0003:00002230       __STRLITPACK_214           0059f230     part_kernel_f:partwq.obj
 0003:0000223c       __STRLITPACK_213           0059f23c     part_kernel_f:partwq.obj
 0003:0000226c       __STRLITPACK_207           0059f26c     part_kernel_f:partwq.obj
 0003:00002270       __STRLITPACK_203           0059f270     part_kernel_f:partwq.obj
 0003:0000229c       __STRLITPACK_200           0059f29c     part_kernel_f:partwq.obj
 0003:000022a8       __STRLITPACK_199           0059f2a8     part_kernel_f:partwq.obj
 0003:000022b4       __STRLITPACK_197           0059f2b4     part_kernel_f:partwq.obj
 0003:000022c0       __STRLITPACK_189           0059f2c0     part_kernel_f:partwq.obj
 0003:000022e4       __STRLITPACK_187           0059f2e4     part_kernel_f:partwq.obj
 0003:00002308       __STRLITPACK_184           0059f308     part_kernel_f:partwq.obj
 0003:00002318       __STRLITPACK_183           0059f318     part_kernel_f:partwq.obj
 0003:00002334       __STRLITPACK_181           0059f334     part_kernel_f:partwq.obj
 0003:00002338       __STRLITPACK_178           0059f338     part_kernel_f:partwq.obj
 0003:00002354       __STRLITPACK_177           0059f354     part_kernel_f:partwq.obj
 0003:0000235c       __STRLITPACK_174           0059f35c     part_kernel_f:partwq.obj
 0003:00002378       __STRLITPACK_173           0059f378     part_kernel_f:partwq.obj
 0003:00002380       __STRLITPACK_170           0059f380     part_kernel_f:partwq.obj
 0003:0000239c       __STRLITPACK_169           0059f39c     part_kernel_f:partwq.obj
 0003:000023a4       __STRLITPACK_166           0059f3a4     part_kernel_f:partwq.obj
 0003:000023c0       __STRLITPACK_165           0059f3c0     part_kernel_f:partwq.obj
 0003:000023c4       __STRLITPACK_162           0059f3c4     part_kernel_f:partwq.obj
 0003:000023e0       __STRLITPACK_161           0059f3e0     part_kernel_f:partwq.obj
 0003:000023e4       __STRLITPACK_158           0059f3e4     part_kernel_f:partwq.obj
 0003:00002400       __STRLITPACK_157           0059f400     part_kernel_f:partwq.obj
 0003:00002408       __STRLITPACK_155           0059f408     part_kernel_f:partwq.obj
 0003:00002434       __STRLITPACK_153           0059f434     part_kernel_f:partwq.obj
 0003:00002460       __STRLITPACK_151           0059f460     part_kernel_f:partwq.obj
 0003:0000247c       __STRLITPACK_148           0059f47c     part_kernel_f:partwq.obj
 0003:00002498       __STRLITPACK_147           0059f498     part_kernel_f:partwq.obj
 0003:0000249c       __STRLITPACK_144           0059f49c     part_kernel_f:partwq.obj
 0003:000024b8       __STRLITPACK_143           0059f4b8     part_kernel_f:partwq.obj
 0003:000024c0       __STRLITPACK_140           0059f4c0     part_kernel_f:partwq.obj
 0003:000024dc       __STRLITPACK_139           0059f4dc     part_kernel_f:partwq.obj
 0003:000024e4       __STRLITPACK_136           0059f4e4     part_kernel_f:partwq.obj
 0003:00002518       __STRLITPACK_135           0059f518     part_kernel_f:partwq.obj
 0003:00002520       __STRLITPACK_132           0059f520     part_kernel_f:partwq.obj
 0003:00002540       __STRLITPACK_131           0059f540     part_kernel_f:partwq.obj
 0003:00002544       __STRLITPACK_129           0059f544     part_kernel_f:partwq.obj
 0003:00002570       __STRLITPACK_127           0059f570     part_kernel_f:partwq.obj
 0003:0000258c       __STRLITPACK_125           0059f58c     part_kernel_f:partwq.obj
 0003:000025b8       __STRLITPACK_123           0059f5b8     part_kernel_f:partwq.obj
 0003:000025e4       __STRLITPACK_117           0059f5e4     part_kernel_f:partwq.obj
 0003:000025fc       __STRLITPACK_114           0059f5fc     part_kernel_f:partwq.obj
 0003:00002614       __STRLITPACK_113           0059f614     part_kernel_f:partwq.obj
 0003:00002618       __STRLITPACK_110           0059f618     part_kernel_f:partwq.obj
 0003:00002630       __STRLITPACK_109           0059f630     part_kernel_f:partwq.obj
 0003:00002638       __STRLITPACK_107           0059f638     part_kernel_f:partwq.obj
 0003:00002650       __STRLITPACK_105           0059f650     part_kernel_f:partwq.obj
 0003:00002668       __STRLITPACK_103           0059f668     part_kernel_f:partwq.obj
 0003:00002680       __STRLITPACK_101           0059f680     part_kernel_f:partwq.obj
 0003:00002698       __STRLITPACK_98            0059f698     part_kernel_f:partwq.obj
 0003:000026b8       __STRLITPACK_97            0059f6b8     part_kernel_f:partwq.obj
 0003:000026bc       __STRLITPACK_94            0059f6bc     part_kernel_f:partwq.obj
 0003:000026dc       __STRLITPACK_93            0059f6dc     part_kernel_f:partwq.obj
 0003:000026e0       __STRLITPACK_90            0059f6e0     part_kernel_f:partwq.obj
 0003:00002700       __STRLITPACK_89            0059f700     part_kernel_f:partwq.obj
 0003:00002704       __STRLITPACK_86            0059f704     part_kernel_f:partwq.obj
 0003:00002724       __STRLITPACK_85            0059f724     part_kernel_f:partwq.obj
 0003:00002728       __STRLITPACK_82            0059f728     part_kernel_f:partwq.obj
 0003:00002748       __STRLITPACK_81            0059f748     part_kernel_f:partwq.obj
 0003:0000274c       __STRLITPACK_78            0059f74c     part_kernel_f:partwq.obj
 0003:00002768       __STRLITPACK_77            0059f768     part_kernel_f:partwq.obj
 0003:00002770       __STRLITPACK_74            0059f770     part_kernel_f:partwq.obj
 0003:0000278c       __STRLITPACK_73            0059f78c     part_kernel_f:partwq.obj
 0003:00002794       __STRLITPACK_70            0059f794     part_kernel_f:partwq.obj
 0003:000027b0       __STRLITPACK_69            0059f7b0     part_kernel_f:partwq.obj
 0003:000027bc       __STRLITPACK_67            0059f7bc     part_kernel_f:partwq.obj
 0003:000027c0       __STRLITPACK_64            0059f7c0     part_kernel_f:partwq.obj
 0003:000027d0       __STRLITPACK_63            0059f7d0     part_kernel_f:partwq.obj
 0003:000027dc       __STRLITPACK_61            0059f7dc     part_kernel_f:partwq.obj
 0003:000027f0       __STRLITPACK_58            0059f7f0     part_kernel_f:partwq.obj
 0003:0000280c       __STRLITPACK_57            0059f80c     part_kernel_f:partwq.obj
 0003:00002814       __STRLITPACK_54            0059f814     part_kernel_f:partwq.obj
 0003:00002830       __STRLITPACK_53            0059f830     part_kernel_f:partwq.obj
 0003:00002838       __STRLITPACK_50            0059f838     part_kernel_f:partwq.obj
 0003:00002854       __STRLITPACK_49            0059f854     part_kernel_f:partwq.obj
 0003:0000285c       __STRLITPACK_46            0059f85c     part_kernel_f:partwq.obj
 0003:0000286c       __STRLITPACK_45            0059f86c     part_kernel_f:partwq.obj
 0003:00002878       __STRLITPACK_43            0059f878     part_kernel_f:partwq.obj
 0003:0000288c       __STRLITPACK_40            0059f88c     part_kernel_f:partwq.obj
 0003:000028a8       __STRLITPACK_39            0059f8a8     part_kernel_f:partwq.obj
 0003:000028b0       __STRLITPACK_36            0059f8b0     part_kernel_f:partwq.obj
 0003:000028cc       __STRLITPACK_35            0059f8cc     part_kernel_f:partwq.obj
 0003:000028d4       __STRLITPACK_32            0059f8d4     part_kernel_f:partwq.obj
 0003:000028f0       __STRLITPACK_31            0059f8f0     part_kernel_f:partwq.obj
 0003:000028f8       __STRLITPACK_29            0059f8f8     part_kernel_f:partwq.obj
 0003:00002924       __STRLITPACK_27            0059f924     part_kernel_f:partwq.obj
 0003:00002954       __STRLITPACK_23            0059f954     part_kernel_f:partwq.obj
 0003:00002978       __STRLITPACK_120           0059f978     part_kernel_f:partwq.obj
 0003:00002990       __STRLITPACK_119           0059f990     part_kernel_f:partwq.obj
 0003:000029a0       __STRLITPACK_195           0059f9a0     part_kernel_f:partwq.obj
 0003:000029d0       __STRLITPACK_193           0059f9d0     part_kernel_f:partwq.obj
 0003:00002a00       __STRLITPACK_191           0059fa00     part_kernel_f:partwq.obj
 0003:00002a30       __STRLITPACK_205           0059fa30     part_kernel_f:partwq.obj
 0003:00002a5c       __STRLITPACK_210           0059fa5c     part_kernel_f:partwq.obj
 0003:00002a70       __STRLITPACK_209           0059fa70     part_kernel_f:partwq.obj
 0003:00002a7c       __STRLITPACK_221           0059fa7c     part_kernel_f:partwq.obj
 0003:00002ab0       __STRLITPACK_18.0.2        0059fab0     part_kernel_f:part09.obj
 0003:00002ab4       __STRLITPACK_19.0.2        0059fab4     part_kernel_f:part09.obj
 0003:00002abc       __STRLITPACK_20.0.2        0059fabc     part_kernel_f:part09.obj
 0003:00002ac4       __STRLITPACK_21.0.2        0059fac4     part_kernel_f:part09.obj
 0003:00002acc       __STRLITPACK_22.0.2        0059facc     part_kernel_f:part09.obj
 0003:00002ad4       __STRLITPACK_23.0.2        0059fad4     part_kernel_f:part09.obj
 0003:00002adc       __STRLITPACK_24.0.2        0059fadc     part_kernel_f:part09.obj
 0003:00002ae4       __STRLITPACK_25.0.2        0059fae4     part_kernel_f:part09.obj
 0003:00002aec       __STRLITPACK_26.0.2        0059faec     part_kernel_f:part09.obj
 0003:00002af4       __STRLITPACK_27.0.2        0059faf4     part_kernel_f:part09.obj
 0003:00002afc       __STRLITPACK_28.0.2        0059fafc     part_kernel_f:part09.obj
 0003:00002b04       __STRLITPACK_29.0.2        0059fb04     part_kernel_f:part09.obj
 0003:00002b08       _2il0floatpacket.0         0059fb08     part_kernel_f:part09.obj
 0003:00002b0c       _2il0floatpacket.1         0059fb0c     part_kernel_f:part09.obj
 0003:00002b10       __STRLITPACK_17            0059fb10     part_kernel_f:part09.obj
 0003:00002b18       __STRLITPACK_11            0059fb18     part_kernel_f:part09.obj
 0003:00002b30       __STRLITPACK_9             0059fb30     part_kernel_f:part09.obj
 0003:00002b38       __STRLITPACK_8             0059fb38     part_kernel_f:part09.obj
 0003:00002b58       __STRLITPACK_7             0059fb58     part_kernel_f:part09.obj
 0003:00002b80       __STRLITPACK_16.0.2        0059fb80     part_kernel_f:part14.obj
 0003:00002b88       __STRLITPACK_17.0.2        0059fb88     part_kernel_f:part14.obj
 0003:00002b8c       __STRLITPACK_18.0.2        0059fb8c     part_kernel_f:part14.obj
 0003:00002b94       __STRLITPACK_19.0.2        0059fb94     part_kernel_f:part14.obj
 0003:00002b9c       __STRLITPACK_20.0.2        0059fb9c     part_kernel_f:part14.obj
 0003:00002ba4       __STRLITPACK_21.0.2        0059fba4     part_kernel_f:part14.obj
 0003:00002bac       __STRLITPACK_22.0.2        0059fbac     part_kernel_f:part14.obj
 0003:00002bb4       __STRLITPACK_23.0.2        0059fbb4     part_kernel_f:part14.obj
 0003:00002bbc       __STRLITPACK_24.0.2        0059fbbc     part_kernel_f:part14.obj
 0003:00002bc4       __STRLITPACK_25.0.2        0059fbc4     part_kernel_f:part14.obj
 0003:00002bcc       __STRLITPACK_26.0.2        0059fbcc     part_kernel_f:part14.obj
 0003:00002be0       _2il0floatpacket.6         0059fbe0     part_kernel_f:part14.obj
 0003:00002bf0       _2il0floatpacket.0         0059fbf0     part_kernel_f:part14.obj
 0003:00002bf8       _2il0floatpacket.1         0059fbf8     part_kernel_f:part14.obj
 0003:00002c00       _2il0floatpacket.4         0059fc00     part_kernel_f:part14.obj
 0003:00002c08       _2il0floatpacket.2         0059fc08     part_kernel_f:part14.obj
 0003:00002c0c       _2il0floatpacket.3         0059fc0c     part_kernel_f:part14.obj
 0003:00002c10       _2il0floatpacket.5         0059fc10     part_kernel_f:part14.obj
 0003:00002c14       __STRLITPACK_15            0059fc14     part_kernel_f:part14.obj
 0003:00002c1c       __STRLITPACK_9             0059fc1c     part_kernel_f:part14.obj
 0003:00002c48       __STRLITPACK_14            0059fc48     part_kernel_f:part14.obj
 0003:00002c68       __STRLITPACK_13            0059fc68     part_kernel_f:part14.obj
 0003:00002c80       __STRLITPACK_11.0.2        0059fc80     part_kernel_f:partur.obj
 0003:00002c88       __STRLITPACK_12.0.2        0059fc88     part_kernel_f:partur.obj
 0003:00002c90       __STRLITPACK_13.0.2        0059fc90     part_kernel_f:partur.obj
 0003:00002c98       __STRLITPACK_14.0.2        0059fc98     part_kernel_f:partur.obj
 0003:00002ca0       __STRLITPACK_15.0.2        0059fca0     part_kernel_f:partur.obj
 0003:00002ca8       __STRLITPACK_16.0.2        0059fca8     part_kernel_f:partur.obj
 0003:00002cb0       __STRLITPACK_17.0.2        0059fcb0     part_kernel_f:partur.obj
 0003:00002cb8       __STRLITPACK_18.0.2        0059fcb8     part_kernel_f:partur.obj
 0003:00002cc0       __STRLITPACK_19.0.2        0059fcc0     part_kernel_f:partur.obj
 0003:00002cc8       __STRLITPACK_20.0.2        0059fcc8     part_kernel_f:partur.obj
 0003:00002cd0       __STRLITPACK_21.0.2        0059fcd0     part_kernel_f:partur.obj
 0003:00002cd8       __STRLITPACK_22.0.2        0059fcd8     part_kernel_f:partur.obj
 0003:00002ce0       __STRLITPACK_10            0059fce0     part_kernel_f:partur.obj
 0003:00002cf0       __STRLITPACK_31.0.2        0059fcf0     part_kernel_f:part21.obj
 0003:00002cf8       __STRLITPACK_32.0.2        0059fcf8     part_kernel_f:part21.obj
 0003:00002d00       __STRLITPACK_33.0.2        0059fd00     part_kernel_f:part21.obj
 0003:00002d08       __STRLITPACK_34.0.2        0059fd08     part_kernel_f:part21.obj
 0003:00002d10       __STRLITPACK_35.0.2        0059fd10     part_kernel_f:part21.obj
 0003:00002d18       __STRLITPACK_36.0.2        0059fd18     part_kernel_f:part21.obj
 0003:00002d20       __STRLITPACK_37.0.2        0059fd20     part_kernel_f:part21.obj
 0003:00002d28       __STRLITPACK_38.0.2        0059fd28     part_kernel_f:part21.obj
 0003:00002d30       __STRLITPACK_39.0.2        0059fd30     part_kernel_f:part21.obj
 0003:00002d38       __STRLITPACK_40.0.2        0059fd38     part_kernel_f:part21.obj
 0003:00002d40       __STRLITPACK_41.0.2        0059fd40     part_kernel_f:part21.obj
 0003:00002d48       __NLITPACK_0.0.2           0059fd48     part_kernel_f:part21.obj
 0003:00002d4c       __STRLITPACK_42.0.2        0059fd4c     part_kernel_f:part21.obj
 0003:00002d50       __STRLITPACK_43.0.2        0059fd50     part_kernel_f:part21.obj
 0003:00002d58       __STRLITPACK_44.0.2        0059fd58     part_kernel_f:part21.obj
 0003:00002d60       __STRLITPACK_45.0.2        0059fd60     part_kernel_f:part21.obj
 0003:00002d68       __STRLITPACK_46.0.2        0059fd68     part_kernel_f:part21.obj
 0003:00002d6c       __STRLITPACK_47.0.2        0059fd6c     part_kernel_f:part21.obj
 0003:00002d74       __STRLITPACK_48.0.2        0059fd74     part_kernel_f:part21.obj
 0003:00002d7c       __STRLITPACK_49.0.2        0059fd7c     part_kernel_f:part21.obj
 0003:00002d84       __STRLITPACK_50.0.2        0059fd84     part_kernel_f:part21.obj
 0003:00002d90       _2il0floatpacket.0         0059fd90     part_kernel_f:part21.obj
 0003:00002da0       _2il0floatpacket.1         0059fda0     part_kernel_f:part21.obj
 0003:00002da4       __STRLITPACK_30            0059fda4     part_kernel_f:part21.obj
 0003:00002dac       __STRLITPACK_25            0059fdac     part_kernel_f:part21.obj
 0003:00002de0       __STRLITPACK_24            0059fde0     part_kernel_f:part21.obj
 0003:00002df8       __STRLITPACK_18            0059fdf8     part_kernel_f:part21.obj
 0003:00002e1c       __STRLITPACK_17            0059fe1c     part_kernel_f:part21.obj
 0003:00002e24       __STRLITPACK_16            0059fe24     part_kernel_f:part21.obj
 0003:00002e2c       __STRLITPACK_14            0059fe2c     part_kernel_f:part21.obj
 0003:00002e38       __STRLITPACK_12            0059fe38     part_kernel_f:part21.obj
 0003:00002e5c       __STRLITPACK_8             0059fe5c     part_kernel_f:part21.obj
 0003:00002e80       __STRLITPACK_16.0.1        0059fe80     part_kernel_f:partvs.obj
 0003:00002e84       __STRLITPACK_17.0.1        0059fe84     part_kernel_f:partvs.obj
 0003:00002e8c       __STRLITPACK_18.0.1        0059fe8c     part_kernel_f:partvs.obj
 0003:00002e94       __STRLITPACK_19.0.1        0059fe94     part_kernel_f:partvs.obj
 0003:00002e9c       __STRLITPACK_20.0.1        0059fe9c     part_kernel_f:partvs.obj
 0003:00002ea4       __STRLITPACK_12.0.1        0059fea4     part_kernel_f:partvs.obj
 0003:00002eac       __STRLITPACK_13.0.1        0059feac     part_kernel_f:partvs.obj
 0003:00002eb4       __STRLITPACK_14.0.1        0059feb4     part_kernel_f:partvs.obj
 0003:00002ebc       __STRLITPACK_15.0.1        0059febc     part_kernel_f:partvs.obj
 0003:00002ed0       _2il0floatpacket.12        0059fed0     part_kernel_f:partvs.obj
 0003:00002ee0       _2il0floatpacket.13        0059fee0     part_kernel_f:partvs.obj
 0003:00002ef0       _2il0floatpacket.9         0059fef0     part_kernel_f:partvs.obj
 0003:00002ef8       _2il0floatpacket.10        0059fef8     part_kernel_f:partvs.obj
 0003:00002f00       _2il0floatpacket.2         0059ff00     part_kernel_f:partvs.obj
 0003:00002f04       _2il0floatpacket.3         0059ff04     part_kernel_f:partvs.obj
 0003:00002f08       _2il0floatpacket.4         0059ff08     part_kernel_f:partvs.obj
 0003:00002f0c       _2il0floatpacket.5         0059ff0c     part_kernel_f:partvs.obj
 0003:00002f10       _2il0floatpacket.6         0059ff10     part_kernel_f:partvs.obj
 0003:00002f14       _2il0floatpacket.7         0059ff14     part_kernel_f:partvs.obj
 0003:00002f18       _2il0floatpacket.8         0059ff18     part_kernel_f:partvs.obj
 0003:00002f1c       _2il0floatpacket.11        0059ff1c     part_kernel_f:partvs.obj
 0003:00002f20       __STRLITPACK_11            0059ff20     part_kernel_f:partvs.obj
 0003:00002f28       __STRLITPACK_8             0059ff28     part_kernel_f:partvs.obj
 0003:00002f34       __STRLITPACK_7             0059ff34     part_kernel_f:partvs.obj
 0003:00002f3c       __STRLITPACK_6             0059ff3c     part_kernel_f:partvs.obj
 0003:00002f60       __STRLITPACK_0             0059ff60     part_kernel_f:part17.obj
 0003:00002f70       __STRLITPACK_190.0.2       0059ff70     part_kernel_f:part10.obj
 0003:00002f78       __STRLITPACK_192.0.2       0059ff78     part_kernel_f:part10.obj
 0003:00002f80       __STRLITPACK_194.0.2       0059ff80     part_kernel_f:part10.obj
 0003:00002f88       __STRLITPACK_195.0.2       0059ff88     part_kernel_f:part10.obj
 0003:00002f90       __STRLITPACK_196.0.2       0059ff90     part_kernel_f:part10.obj
 0003:00002f98       __STRLITPACK_197.0.2       0059ff98     part_kernel_f:part10.obj
 0003:00002fa0       __STRLITPACK_199.0.2       0059ffa0     part_kernel_f:part10.obj
 0003:00002fa8       __STRLITPACK_200.0.2       0059ffa8     part_kernel_f:part10.obj
 0003:00002fb0       __STRLITPACK_201.0.2       0059ffb0     part_kernel_f:part10.obj
 0003:00002fb8       __STRLITPACK_202.0.2       0059ffb8     part_kernel_f:part10.obj
 0003:00002fc0       __STRLITPACK_203.0.2       0059ffc0     part_kernel_f:part10.obj
 0003:00002fc8       __STRLITPACK_204.0.2       0059ffc8     part_kernel_f:part10.obj
 0003:00002fd0       __STRLITPACK_205.0.2       0059ffd0     part_kernel_f:part10.obj
 0003:00002fd8       __STRLITPACK_206.0.2       0059ffd8     part_kernel_f:part10.obj
 0003:00002fe0       __STRLITPACK_207.0.2       0059ffe0     part_kernel_f:part10.obj
 0003:00002fe8       __STRLITPACK_297.0.2       0059ffe8     part_kernel_f:part10.obj
 0003:00002ff0       __STRLITPACK_298.0.2       0059fff0     part_kernel_f:part10.obj
 0003:00002ff8       __STRLITPACK_299.0.2       0059fff8     part_kernel_f:part10.obj
 0003:00003000       __STRLITPACK_300.0.2       005a0000     part_kernel_f:part10.obj
 0003:00003008       __STRLITPACK_301.0.2       005a0008     part_kernel_f:part10.obj
 0003:00003010       __STRLITPACK_302.0.2       005a0010     part_kernel_f:part10.obj
 0003:00003018       __STRLITPACK_303.0.2       005a0018     part_kernel_f:part10.obj
 0003:00003020       __STRLITPACK_304.0.2       005a0020     part_kernel_f:part10.obj
 0003:00003028       __STRLITPACK_305.0.2       005a0028     part_kernel_f:part10.obj
 0003:00003030       __STRLITPACK_306.0.2       005a0030     part_kernel_f:part10.obj
 0003:00003038       __STRLITPACK_307.0.2       005a0038     part_kernel_f:part10.obj
 0003:00003040       __STRLITPACK_308.0.2       005a0040     part_kernel_f:part10.obj
 0003:00003048       __STRLITPACK_309.0.2       005a0048     part_kernel_f:part10.obj
 0003:00003050       __STRLITPACK_310.0.2       005a0050     part_kernel_f:part10.obj
 0003:00003058       __STRLITPACK_311.0.2       005a0058     part_kernel_f:part10.obj
 0003:00003060       __STRLITPACK_312.0.2       005a0060     part_kernel_f:part10.obj
 0003:00003068       __STRLITPACK_313.0.2       005a0068     part_kernel_f:part10.obj
 0003:00003070       __STRLITPACK_314.0.2       005a0070     part_kernel_f:part10.obj
 0003:00003078       __STRLITPACK_315.0.2       005a0078     part_kernel_f:part10.obj
 0003:00003080       __STRLITPACK_316.0.2       005a0080     part_kernel_f:part10.obj
 0003:00003088       __STRLITPACK_317.0.2       005a0088     part_kernel_f:part10.obj
 0003:00003090       __STRLITPACK_208.0.2       005a0090     part_kernel_f:part10.obj
 0003:00003098       __STRLITPACK_209.0.2       005a0098     part_kernel_f:part10.obj
 0003:000030a0       __STRLITPACK_210.0.2       005a00a0     part_kernel_f:part10.obj
 0003:000030a8       __STRLITPACK_211.0.2       005a00a8     part_kernel_f:part10.obj
 0003:000030b0       __STRLITPACK_212.0.2       005a00b0     part_kernel_f:part10.obj
 0003:000030b8       __STRLITPACK_213.0.2       005a00b8     part_kernel_f:part10.obj
 0003:000030c0       __STRLITPACK_214.0.2       005a00c0     part_kernel_f:part10.obj
 0003:000030c8       __STRLITPACK_215.0.2       005a00c8     part_kernel_f:part10.obj
 0003:000030d0       __STRLITPACK_216.0.2       005a00d0     part_kernel_f:part10.obj
 0003:000030d8       __STRLITPACK_217.0.2       005a00d8     part_kernel_f:part10.obj
 0003:000030e0       __STRLITPACK_218.0.2       005a00e0     part_kernel_f:part10.obj
 0003:000030e8       __STRLITPACK_219.0.2       005a00e8     part_kernel_f:part10.obj
 0003:000030f0       __NLITPACK_0.0.2           005a00f0     part_kernel_f:part10.obj
 0003:000030f4       __STRLITPACK_220.0.2       005a00f4     part_kernel_f:part10.obj
 0003:000030fc       __STRLITPACK_221.0.2       005a00fc     part_kernel_f:part10.obj
 0003:00003104       __STRLITPACK_222.0.2       005a0104     part_kernel_f:part10.obj
 0003:0000310c       __STRLITPACK_223.0.2       005a010c     part_kernel_f:part10.obj
 0003:00003114       __STRLITPACK_224.0.2       005a0114     part_kernel_f:part10.obj
 0003:0000311c       __STRLITPACK_225.0.2       005a011c     part_kernel_f:part10.obj
 0003:00003124       __STRLITPACK_226.0.2       005a0124     part_kernel_f:part10.obj
 0003:0000312c       __STRLITPACK_227.0.2       005a012c     part_kernel_f:part10.obj
 0003:00003134       __STRLITPACK_228.0.2       005a0134     part_kernel_f:part10.obj
 0003:0000313c       __STRLITPACK_229.0.2       005a013c     part_kernel_f:part10.obj
 0003:00003144       __STRLITPACK_230.0.2       005a0144     part_kernel_f:part10.obj
 0003:0000314c       __STRLITPACK_231.0.2       005a014c     part_kernel_f:part10.obj
 0003:00003154       __STRLITPACK_232.0.2       005a0154     part_kernel_f:part10.obj
 0003:0000315c       __STRLITPACK_233.0.2       005a015c     part_kernel_f:part10.obj
 0003:00003164       __STRLITPACK_234.0.2       005a0164     part_kernel_f:part10.obj
 0003:0000316c       __STRLITPACK_235.0.2       005a016c     part_kernel_f:part10.obj
 0003:00003174       __STRLITPACK_236.0.2       005a0174     part_kernel_f:part10.obj
 0003:0000317c       __STRLITPACK_237.0.2       005a017c     part_kernel_f:part10.obj
 0003:00003184       __STRLITPACK_238.0.2       005a0184     part_kernel_f:part10.obj
 0003:0000318c       __STRLITPACK_239.0.2       005a018c     part_kernel_f:part10.obj
 0003:00003194       __STRLITPACK_240.0.2       005a0194     part_kernel_f:part10.obj
 0003:0000319c       __STRLITPACK_241.0.2       005a019c     part_kernel_f:part10.obj
 0003:000031a4       __STRLITPACK_242.0.2       005a01a4     part_kernel_f:part10.obj
 0003:000031ac       __STRLITPACK_243.0.2       005a01ac     part_kernel_f:part10.obj
 0003:000031b4       __STRLITPACK_244.0.2       005a01b4     part_kernel_f:part10.obj
 0003:000031bc       __STRLITPACK_245.0.2       005a01bc     part_kernel_f:part10.obj
 0003:000031c4       __STRLITPACK_246.0.2       005a01c4     part_kernel_f:part10.obj
 0003:000031cc       __STRLITPACK_247.0.2       005a01cc     part_kernel_f:part10.obj
 0003:000031d4       __STRLITPACK_198.0.2       005a01d4     part_kernel_f:part10.obj
 0003:000031dc       __STRLITPACK_248.0.2       005a01dc     part_kernel_f:part10.obj
 0003:000031e4       __STRLITPACK_249.0.2       005a01e4     part_kernel_f:part10.obj
 0003:000031ec       __STRLITPACK_250.0.2       005a01ec     part_kernel_f:part10.obj
 0003:000031f4       __STRLITPACK_251.0.2       005a01f4     part_kernel_f:part10.obj
 0003:000031fc       __STRLITPACK_252.0.2       005a01fc     part_kernel_f:part10.obj
 0003:00003204       __STRLITPACK_253.0.2       005a0204     part_kernel_f:part10.obj
 0003:0000320c       __STRLITPACK_254.0.2       005a020c     part_kernel_f:part10.obj
 0003:00003214       __STRLITPACK_255.0.2       005a0214     part_kernel_f:part10.obj
 0003:0000321c       __STRLITPACK_256.0.2       005a021c     part_kernel_f:part10.obj
 0003:00003224       __STRLITPACK_257.0.2       005a0224     part_kernel_f:part10.obj
 0003:0000322c       __STRLITPACK_258.0.2       005a022c     part_kernel_f:part10.obj
 0003:00003234       __STRLITPACK_259.0.2       005a0234     part_kernel_f:part10.obj
 0003:0000323c       __STRLITPACK_261.0.2       005a023c     part_kernel_f:part10.obj
 0003:00003244       __STRLITPACK_262.0.2       005a0244     part_kernel_f:part10.obj
 0003:0000324c       __STRLITPACK_263.0.2       005a024c     part_kernel_f:part10.obj
 0003:00003254       __STRLITPACK_264.0.2       005a0254     part_kernel_f:part10.obj
 0003:0000325c       __STRLITPACK_265.0.2       005a025c     part_kernel_f:part10.obj
 0003:00003264       __STRLITPACK_266.0.2       005a0264     part_kernel_f:part10.obj
 0003:0000326c       __STRLITPACK_267.0.2       005a026c     part_kernel_f:part10.obj
 0003:00003274       __STRLITPACK_268.0.2       005a0274     part_kernel_f:part10.obj
 0003:0000327c       __STRLITPACK_269.0.2       005a027c     part_kernel_f:part10.obj
 0003:00003284       __STRLITPACK_270.0.2       005a0284     part_kernel_f:part10.obj
 0003:0000328c       __STRLITPACK_271.0.2       005a028c     part_kernel_f:part10.obj
 0003:00003294       __STRLITPACK_272.0.2       005a0294     part_kernel_f:part10.obj
 0003:0000329c       __STRLITPACK_273.0.2       005a029c     part_kernel_f:part10.obj
 0003:000032a4       __STRLITPACK_274.0.2       005a02a4     part_kernel_f:part10.obj
 0003:000032ac       __STRLITPACK_275.0.2       005a02ac     part_kernel_f:part10.obj
 0003:000032b4       __STRLITPACK_291.0.2       005a02b4     part_kernel_f:part10.obj
 0003:000032bc       __STRLITPACK_292.0.2       005a02bc     part_kernel_f:part10.obj
 0003:000032c4       __STRLITPACK_293.0.2       005a02c4     part_kernel_f:part10.obj
 0003:000032cc       __STRLITPACK_294.0.2       005a02cc     part_kernel_f:part10.obj
 0003:000032d4       __STRLITPACK_295.0.2       005a02d4     part_kernel_f:part10.obj
 0003:000032dc       __STRLITPACK_296.0.2       005a02dc     part_kernel_f:part10.obj
 0003:000032e4       __STRLITPACK_276.0.2       005a02e4     part_kernel_f:part10.obj
 0003:000032ec       __STRLITPACK_277.0.2       005a02ec     part_kernel_f:part10.obj
 0003:000032f4       __STRLITPACK_278.0.2       005a02f4     part_kernel_f:part10.obj
 0003:000032fc       __STRLITPACK_279.0.2       005a02fc     part_kernel_f:part10.obj
 0003:00003304       __STRLITPACK_280.0.2       005a0304     part_kernel_f:part10.obj
 0003:0000330c       __STRLITPACK_281.0.2       005a030c     part_kernel_f:part10.obj
 0003:00003314       __STRLITPACK_282.0.2       005a0314     part_kernel_f:part10.obj
 0003:0000331c       __STRLITPACK_283.0.2       005a031c     part_kernel_f:part10.obj
 0003:00003324       __STRLITPACK_284.0.2       005a0324     part_kernel_f:part10.obj
 0003:0000332c       __STRLITPACK_285.0.2       005a032c     part_kernel_f:part10.obj
 0003:00003334       __STRLITPACK_286.0.2       005a0334     part_kernel_f:part10.obj
 0003:0000333c       __STRLITPACK_287.0.2       005a033c     part_kernel_f:part10.obj
 0003:00003344       __STRLITPACK_288.0.2       005a0344     part_kernel_f:part10.obj
 0003:0000334c       __STRLITPACK_289.0.2       005a034c     part_kernel_f:part10.obj
 0003:00003354       __STRLITPACK_290.0.2       005a0354     part_kernel_f:part10.obj
 0003:0000335c       __STRLITPACK_260.0.2       005a035c     part_kernel_f:part10.obj
 0003:00003370       _2il0floatpacket.13        005a0370     part_kernel_f:part10.obj
 0003:00003380       _2il0floatpacket.14        005a0380     part_kernel_f:part10.obj
 0003:00003390       _2il0floatpacket.16        005a0390     part_kernel_f:part10.obj
 0003:000033a0       _2il0floatpacket.17        005a03a0     part_kernel_f:part10.obj
 0003:000033b0       _2il0floatpacket.38        005a03b0     part_kernel_f:part10.obj
 0003:000033c0       _2il0floatpacket.40        005a03c0     part_kernel_f:part10.obj
 0003:000033d0       _2il0floatpacket.41        005a03d0     part_kernel_f:part10.obj
 0003:000033e0       _2il0floatpacket.24        005a03e0     part_kernel_f:part10.obj
 0003:000033e8       _2il0floatpacket.2         005a03e8     part_kernel_f:part10.obj
 0003:000033ec       _2il0floatpacket.3         005a03ec     part_kernel_f:part10.obj
 0003:000033f0       _2il0floatpacket.4         005a03f0     part_kernel_f:part10.obj
 0003:000033f4       _2il0floatpacket.5         005a03f4     part_kernel_f:part10.obj
 0003:000033f8       _2il0floatpacket.6         005a03f8     part_kernel_f:part10.obj
 0003:000033fc       _2il0floatpacket.7         005a03fc     part_kernel_f:part10.obj
 0003:00003400       _2il0floatpacket.8         005a0400     part_kernel_f:part10.obj
 0003:00003404       _2il0floatpacket.9         005a0404     part_kernel_f:part10.obj
 0003:00003408       _2il0floatpacket.10        005a0408     part_kernel_f:part10.obj
 0003:0000340c       _2il0floatpacket.11        005a040c     part_kernel_f:part10.obj
 0003:00003410       _2il0floatpacket.12        005a0410     part_kernel_f:part10.obj
 0003:00003414       _2il0floatpacket.15        005a0414     part_kernel_f:part10.obj
 0003:00003418       _2il0floatpacket.18        005a0418     part_kernel_f:part10.obj
 0003:0000341c       _2il0floatpacket.19        005a041c     part_kernel_f:part10.obj
 0003:00003420       _2il0floatpacket.20        005a0420     part_kernel_f:part10.obj
 0003:00003424       _2il0floatpacket.21        005a0424     part_kernel_f:part10.obj
 0003:00003428       _2il0floatpacket.22        005a0428     part_kernel_f:part10.obj
 0003:0000342c       _2il0floatpacket.23        005a042c     part_kernel_f:part10.obj
 0003:00003430       _2il0floatpacket.25        005a0430     part_kernel_f:part10.obj
 0003:00003434       _2il0floatpacket.26        005a0434     part_kernel_f:part10.obj
 0003:00003438       _2il0floatpacket.27        005a0438     part_kernel_f:part10.obj
 0003:0000343c       _2il0floatpacket.28        005a043c     part_kernel_f:part10.obj
 0003:00003440       _2il0floatpacket.29        005a0440     part_kernel_f:part10.obj
 0003:00003444       _2il0floatpacket.30        005a0444     part_kernel_f:part10.obj
 0003:00003448       _2il0floatpacket.31        005a0448     part_kernel_f:part10.obj
 0003:0000344c       _2il0floatpacket.32        005a044c     part_kernel_f:part10.obj
 0003:00003450       _2il0floatpacket.33        005a0450     part_kernel_f:part10.obj
 0003:00003454       _2il0floatpacket.34        005a0454     part_kernel_f:part10.obj
 0003:00003458       _2il0floatpacket.35        005a0458     part_kernel_f:part10.obj
 0003:0000345c       _2il0floatpacket.36        005a045c     part_kernel_f:part10.obj
 0003:00003460       _2il0floatpacket.37        005a0460     part_kernel_f:part10.obj
 0003:00003464       _2il0floatpacket.39        005a0464     part_kernel_f:part10.obj
 0003:00003468       __STRLITPACK_189           005a0468     part_kernel_f:part10.obj
 0003:00003470       __STRLITPACK_185           005a0470     part_kernel_f:part10.obj
 0003:000034a0       __STRLITPACK_177           005a04a0     part_kernel_f:part10.obj
 0003:000034d0       __STRLITPACK_169           005a04d0     part_kernel_f:part10.obj
 0003:000034f4       __STRLITPACK_165           005a04f4     part_kernel_f:part10.obj
 0003:00003518       __STRLITPACK_163           005a0518     part_kernel_f:part10.obj
 0003:00003544       __STRLITPACK_157           005a0544     part_kernel_f:part10.obj
 0003:0000355c       __STRLITPACK_150           005a055c     part_kernel_f:part10.obj
 0003:0000356c       __STRLITPACK_149           005a056c     part_kernel_f:part10.obj
 0003:00003570       __STRLITPACK_148           005a0570     part_kernel_f:part10.obj
 0003:0000357c       __STRLITPACK_147           005a057c     part_kernel_f:part10.obj
 0003:00003580       __STRLITPACK_34            005a0580     part_kernel_f:part10.obj
 0003:000035b0       __STRLITPACK_33            005a05b0     part_kernel_f:part10.obj
 0003:000035bc       __STRLITPACK_32            005a05bc     part_kernel_f:part10.obj
 0003:000035c0       __STRLITPACK_26            005a05c0     part_kernel_f:part10.obj
 0003:000035f0       __STRLITPACK_25            005a05f0     part_kernel_f:part10.obj
 0003:000035fc       __STRLITPACK_24            005a05fc     part_kernel_f:part10.obj
 0003:00003600       __STRLITPACK_20            005a0600     part_kernel_f:part10.obj
 0003:0000362c       __STRLITPACK_16            005a062c     part_kernel_f:part10.obj
 0003:00003658       __STRLITPACK_12            005a0658     part_kernel_f:part10.obj
 0003:00003684       __STRLITPACK_8             005a0684     part_kernel_f:part10.obj
 0003:000036b0       __STRLITPACK_4             005a06b0     part_kernel_f:part10.obj
 0003:000036dc       __STRLITPACK_0             005a06dc     part_kernel_f:part10.obj
 0003:00003700       __STRLITPACK_146           005a0700     part_kernel_f:part10.obj
 0003:0000372c       __STRLITPACK_144           005a072c     part_kernel_f:part10.obj
 0003:00003740       __STRLITPACK_141           005a0740     part_kernel_f:part10.obj
 0003:0000374c       __STRLITPACK_140           005a074c     part_kernel_f:part10.obj
 0003:0000375c       __STRLITPACK_138           005a075c     part_kernel_f:part10.obj
 0003:0000377c       __STRLITPACK_136           005a077c     part_kernel_f:part10.obj
 0003:00003790       __STRLITPACK_133           005a0790     part_kernel_f:part10.obj
 0003:0000379c       __STRLITPACK_132           005a079c     part_kernel_f:part10.obj
 0003:000037ac       __STRLITPACK_130           005a07ac     part_kernel_f:part10.obj
 0003:000037cc       __STRLITPACK_128           005a07cc     part_kernel_f:part10.obj
 0003:000037e0       __STRLITPACK_125           005a07e0     part_kernel_f:part10.obj
 0003:000037e8       __STRLITPACK_124           005a07e8     part_kernel_f:part10.obj
 0003:000037f8       __STRLITPACK_122           005a07f8     part_kernel_f:part10.obj
 0003:00003818       __STRLITPACK_120           005a0818     part_kernel_f:part10.obj
 0003:0000382c       __STRLITPACK_117           005a082c     part_kernel_f:part10.obj
 0003:00003834       __STRLITPACK_116           005a0834     part_kernel_f:part10.obj
 0003:00003844       __STRLITPACK_114           005a0844     part_kernel_f:part10.obj
 0003:00003864       __STRLITPACK_112           005a0864     part_kernel_f:part10.obj
 0003:00003878       __STRLITPACK_109           005a0878     part_kernel_f:part10.obj
 0003:00003884       __STRLITPACK_108           005a0884     part_kernel_f:part10.obj
 0003:00003890       __STRLITPACK_106           005a0890     part_kernel_f:part10.obj
 0003:000038b0       __STRLITPACK_104           005a08b0     part_kernel_f:part10.obj
 0003:000038c4       __STRLITPACK_101           005a08c4     part_kernel_f:part10.obj
 0003:000038d0       __STRLITPACK_100           005a08d0     part_kernel_f:part10.obj
 0003:000038dc       __STRLITPACK_98            005a08dc     part_kernel_f:part10.obj
 0003:000038fc       __STRLITPACK_96            005a08fc     part_kernel_f:part10.obj
 0003:00003908       __STRLITPACK_94            005a0908     part_kernel_f:part10.obj
 0003:0000392c       __STRLITPACK_92            005a092c     part_kernel_f:part10.obj
 0003:00003950       __STRLITPACK_161           005a0950     part_kernel_f:part10.obj
 0003:00003964       __STRLITPACK_90            005a0964     part_kernel_f:part10.obj
 0003:00003978       __STRLITPACK_87            005a0978     part_kernel_f:part10.obj
 0003:00003984       __STRLITPACK_86            005a0984     part_kernel_f:part10.obj
 0003:00003994       __STRLITPACK_84            005a0994     part_kernel_f:part10.obj
 0003:000039b4       __STRLITPACK_82            005a09b4     part_kernel_f:part10.obj
 0003:000039c8       __STRLITPACK_79            005a09c8     part_kernel_f:part10.obj
 0003:000039d4       __STRLITPACK_78            005a09d4     part_kernel_f:part10.obj
 0003:000039e4       __STRLITPACK_76            005a09e4     part_kernel_f:part10.obj
 0003:00003a04       __STRLITPACK_71            005a0a04     part_kernel_f:part10.obj
 0003:00003a14       __STRLITPACK_70            005a0a14     part_kernel_f:part10.obj
 0003:00003a2c       __STRLITPACK_68            005a0a2c     part_kernel_f:part10.obj
 0003:00003a54       __STRLITPACK_66            005a0a54     part_kernel_f:part10.obj
 0003:00003a78       __STRLITPACK_64            005a0a78     part_kernel_f:part10.obj
 0003:00003a90       __STRLITPACK_62            005a0a90     part_kernel_f:part10.obj
 0003:00003ab8       __STRLITPACK_43            005a0ab8     part_kernel_f:part10.obj
 0003:00003ac8       __STRLITPACK_42            005a0ac8     part_kernel_f:part10.obj
 0003:00003ae4       __STRLITPACK_40            005a0ae4     part_kernel_f:part10.obj
 0003:00003b0c       __STRLITPACK_60            005a0b0c     part_kernel_f:part10.obj
 0003:00003b2c       __STRLITPACK_58            005a0b2c     part_kernel_f:part10.obj
 0003:00003b34       __STRLITPACK_56            005a0b34     part_kernel_f:part10.obj
 0003:00003b3c       __STRLITPACK_54            005a0b3c     part_kernel_f:part10.obj
 0003:00003b44       __STRLITPACK_52            005a0b44     part_kernel_f:part10.obj
 0003:00003b4c       __STRLITPACK_50            005a0b4c     part_kernel_f:part10.obj
 0003:00003b54       __STRLITPACK_48            005a0b54     part_kernel_f:part10.obj
 0003:00003b5c       __STRLITPACK_46            005a0b5c     part_kernel_f:part10.obj
 0003:00003b64       __STRLITPACK_74            005a0b64     part_kernel_f:part10.obj
 0003:00003b90       __STRLITPACK_8.0.2         005a0b90     part_kernel_f:part18.obj
 0003:00003b98       __STRLITPACK_9.0.2         005a0b98     part_kernel_f:part18.obj
 0003:00003ba0       __NLITPACK_0.0.2           005a0ba0     part_kernel_f:part18.obj
 0003:00003ba4       __STRLITPACK_10.0.2        005a0ba4     part_kernel_f:part18.obj
 0003:00003bac       __STRLITPACK_11.0.2        005a0bac     part_kernel_f:part18.obj
 0003:00003bb4       __STRLITPACK_12.0.2        005a0bb4     part_kernel_f:part18.obj
 0003:00003bbc       _2il0floatpacket.0         005a0bbc     part_kernel_f:part18.obj
 0003:00003bc0       __STRLITPACK_7             005a0bc0     part_kernel_f:part18.obj
 0003:00003bc8       __STRLITPACK_5             005a0bc8     part_kernel_f:part18.obj
 0003:00003bf0       __STRLITPACK_3             005a0bf0     part_kernel_f:part18.obj
 0003:00003c18       __STRLITPACK_2             005a0c18     part_kernel_f:part18.obj
 0003:00003c4c       __STRLITPACK_0             005a0c4c     part_kernel_f:part18.obj
 0003:00003c70       __STRLITPACK_122.0.1       005a0c70     part_kernel_f:inipart_asc.obj
 0003:00003c80       __STRLITPACK_131.0.1       005a0c80     part_kernel_f:inipart_asc.obj
 0003:00003c88       __STRLITPACK_132.0.1       005a0c88     part_kernel_f:inipart_asc.obj
 0003:00003c90       __STRLITPACK_133.0.1       005a0c90     part_kernel_f:inipart_asc.obj
 0003:00003c98       __STRLITPACK_134.0.1       005a0c98     part_kernel_f:inipart_asc.obj
 0003:00003ca0       __STRLITPACK_135.0.1       005a0ca0     part_kernel_f:inipart_asc.obj
 0003:00003ca8       __STRLITPACK_136.0.1       005a0ca8     part_kernel_f:inipart_asc.obj
 0003:00003cb0       __STRLITPACK_137.0.1       005a0cb0     part_kernel_f:inipart_asc.obj
 0003:00003cb8       __STRLITPACK_138.0.1       005a0cb8     part_kernel_f:inipart_asc.obj
 0003:00003cc0       __STRLITPACK_139.0.1       005a0cc0     part_kernel_f:inipart_asc.obj
 0003:00003cc8       __STRLITPACK_140.0.1       005a0cc8     part_kernel_f:inipart_asc.obj
 0003:00003cd0       __STRLITPACK_141.0.1       005a0cd0     part_kernel_f:inipart_asc.obj
 0003:00003cd8       __STRLITPACK_142.0.1       005a0cd8     part_kernel_f:inipart_asc.obj
 0003:00003ce0       __STRLITPACK_143.0.1       005a0ce0     part_kernel_f:inipart_asc.obj
 0003:00003ce8       __STRLITPACK_144.0.1       005a0ce8     part_kernel_f:inipart_asc.obj
 0003:00003cf0       __STRLITPACK_145.0.1       005a0cf0     part_kernel_f:inipart_asc.obj
 0003:00003cf8       __STRLITPACK_146.0.1       005a0cf8     part_kernel_f:inipart_asc.obj
 0003:00003d00       __STRLITPACK_147.0.1       005a0d00     part_kernel_f:inipart_asc.obj
 0003:00003d08       __STRLITPACK_148.0.1       005a0d08     part_kernel_f:inipart_asc.obj
 0003:00003d10       __STRLITPACK_149.0.1       005a0d10     part_kernel_f:inipart_asc.obj
 0003:00003d18       __STRLITPACK_150.0.1       005a0d18     part_kernel_f:inipart_asc.obj
 0003:00003d20       __STRLITPACK_151.0.1       005a0d20     part_kernel_f:inipart_asc.obj
 0003:00003d28       __STRLITPACK_152.0.1       005a0d28     part_kernel_f:inipart_asc.obj
 0003:00003d30       __STRLITPACK_153.0.1       005a0d30     part_kernel_f:inipart_asc.obj
 0003:00003d38       __STRLITPACK_154.0.1       005a0d38     part_kernel_f:inipart_asc.obj
 0003:00003d40       __STRLITPACK_155.0.1       005a0d40     part_kernel_f:inipart_asc.obj
 0003:00003d48       __STRLITPACK_156.0.1       005a0d48     part_kernel_f:inipart_asc.obj
 0003:00003d50       __STRLITPACK_157.0.1       005a0d50     part_kernel_f:inipart_asc.obj
 0003:00003d58       __STRLITPACK_158.0.1       005a0d58     part_kernel_f:inipart_asc.obj
 0003:00003d60       __STRLITPACK_159.0.1       005a0d60     part_kernel_f:inipart_asc.obj
 0003:00003d68       __STRLITPACK_160.0.1       005a0d68     part_kernel_f:inipart_asc.obj
 0003:00003d70       __STRLITPACK_161.0.1       005a0d70     part_kernel_f:inipart_asc.obj
 0003:00003d78       __STRLITPACK_162.0.1       005a0d78     part_kernel_f:inipart_asc.obj
 0003:00003d80       __STRLITPACK_163.0.1       005a0d80     part_kernel_f:inipart_asc.obj
 0003:00003d88       __STRLITPACK_164.0.1       005a0d88     part_kernel_f:inipart_asc.obj
 0003:00003d90       __STRLITPACK_165.0.1       005a0d90     part_kernel_f:inipart_asc.obj
 0003:00003d98       __STRLITPACK_166.0.1       005a0d98     part_kernel_f:inipart_asc.obj
 0003:00003da0       __STRLITPACK_167.0.1       005a0da0     part_kernel_f:inipart_asc.obj
 0003:00003da8       __STRLITPACK_168.0.1       005a0da8     part_kernel_f:inipart_asc.obj
 0003:00003db0       __STRLITPACK_169.0.1       005a0db0     part_kernel_f:inipart_asc.obj
 0003:00003db8       __STRLITPACK_170.0.1       005a0db8     part_kernel_f:inipart_asc.obj
 0003:00003dc0       __STRLITPACK_171.0.1       005a0dc0     part_kernel_f:inipart_asc.obj
 0003:00003dc8       __STRLITPACK_172.0.1       005a0dc8     part_kernel_f:inipart_asc.obj
 0003:00003dd0       __STRLITPACK_123.0.1       005a0dd0     part_kernel_f:inipart_asc.obj
 0003:00003dd8       __STRLITPACK_124.0.1       005a0dd8     part_kernel_f:inipart_asc.obj
 0003:00003de0       __STRLITPACK_125.0.1       005a0de0     part_kernel_f:inipart_asc.obj
 0003:00003de8       __STRLITPACK_126.0.1       005a0de8     part_kernel_f:inipart_asc.obj
 0003:00003df0       __STRLITPACK_127.0.1       005a0df0     part_kernel_f:inipart_asc.obj
 0003:00003df8       __STRLITPACK_128.0.1       005a0df8     part_kernel_f:inipart_asc.obj
 0003:00003e00       __STRLITPACK_129.0.1       005a0e00     part_kernel_f:inipart_asc.obj
 0003:00003e08       __STRLITPACK_130.0.1       005a0e08     part_kernel_f:inipart_asc.obj
 0003:00003e10       _2il0floatpacket.0         005a0e10     part_kernel_f:inipart_asc.obj
 0003:00003e20       _2il0floatpacket.1         005a0e20     part_kernel_f:inipart_asc.obj
 0003:00003e24       __STRLITPACK_121           005a0e24     part_kernel_f:inipart_asc.obj
 0003:00003e30       __STRLITPACK_120           005a0e30     part_kernel_f:inipart_asc.obj
 0003:00003e34       __STRLITPACK_106           005a0e34     part_kernel_f:inipart_asc.obj
 0003:00003e54       __STRLITPACK_102           005a0e54     part_kernel_f:inipart_asc.obj
 0003:00003e78       __STRLITPACK_98            005a0e78     part_kernel_f:inipart_asc.obj
 0003:00003e98       __STRLITPACK_94            005a0e98     part_kernel_f:inipart_asc.obj
 0003:00003ebc       __STRLITPACK_93            005a0ebc     part_kernel_f:inipart_asc.obj
 0003:00003ecc       __STRLITPACK_118           005a0ecc     part_kernel_f:inipart_asc.obj
 0003:00003ed8       __STRLITPACK_116           005a0ed8     part_kernel_f:inipart_asc.obj
 0003:00003ee0       __STRLITPACK_114           005a0ee0     part_kernel_f:inipart_asc.obj
 0003:00003eec       __STRLITPACK_112           005a0eec     part_kernel_f:inipart_asc.obj
 0003:00003ef4       __STRLITPACK_110           005a0ef4     part_kernel_f:inipart_asc.obj
 0003:00003efc       __STRLITPACK_89            005a0efc     part_kernel_f:inipart_asc.obj
 0003:00003f1c       __STRLITPACK_85            005a0f1c     part_kernel_f:inipart_asc.obj
 0003:00003f34       __STRLITPACK_81            005a0f34     part_kernel_f:inipart_asc.obj
 0003:00003f54       __STRLITPACK_77            005a0f54     part_kernel_f:inipart_asc.obj
 0003:00003f6c       __STRLITPACK_76            005a0f6c     part_kernel_f:inipart_asc.obj
 0003:00003f7c       __STRLITPACK_72            005a0f7c     part_kernel_f:inipart_asc.obj
 0003:00003f9c       __STRLITPACK_68            005a0f9c     part_kernel_f:inipart_asc.obj
 0003:00003fbc       __STRLITPACK_64            005a0fbc     part_kernel_f:inipart_asc.obj
 0003:00003fdc       __STRLITPACK_60            005a0fdc     part_kernel_f:inipart_asc.obj
 0003:00003ffc       __STRLITPACK_59            005a0ffc     part_kernel_f:inipart_asc.obj
 0003:0000400c       __STRLITPACK_55            005a100c     part_kernel_f:inipart_asc.obj
 0003:0000402c       __STRLITPACK_51            005a102c     part_kernel_f:inipart_asc.obj
 0003:0000404c       __STRLITPACK_47            005a104c     part_kernel_f:inipart_asc.obj
 0003:0000406c       __STRLITPACK_43            005a106c     part_kernel_f:inipart_asc.obj
 0003:0000408c       __STRLITPACK_42            005a108c     part_kernel_f:inipart_asc.obj
 0003:0000409c       __STRLITPACK_38            005a109c     part_kernel_f:inipart_asc.obj
 0003:000040bc       __STRLITPACK_34            005a10bc     part_kernel_f:inipart_asc.obj
 0003:000040d8       __STRLITPACK_30            005a10d8     part_kernel_f:inipart_asc.obj
 0003:000040f8       __STRLITPACK_26            005a10f8     part_kernel_f:inipart_asc.obj
 0003:00004114       __STRLITPACK_25            005a1114     part_kernel_f:inipart_asc.obj
 0003:00004124       __STRLITPACK_21            005a1124     part_kernel_f:inipart_asc.obj
 0003:00004144       __STRLITPACK_17            005a1144     part_kernel_f:inipart_asc.obj
 0003:00004178       __STRLITPACK_13            005a1178     part_kernel_f:inipart_asc.obj
 0003:000041ac       __STRLITPACK_9             005a11ac     part_kernel_f:inipart_asc.obj
 0003:000041cc       __STRLITPACK_5             005a11cc     part_kernel_f:inipart_asc.obj
 0003:00004200       __STRLITPACK_1             005a1200     part_kernel_f:inipart_asc.obj
 0003:00004234       __STRLITPACK_0             005a1234     part_kernel_f:inipart_asc.obj
 0003:00004250       __STRLITPACK_27.0.1        005a1250     part_kernel_f:inipart.obj
 0003:00004258       __STRLITPACK_34.0.1        005a1258     part_kernel_f:inipart.obj
 0003:00004260       __STRLITPACK_35.0.1        005a1260     part_kernel_f:inipart.obj
 0003:00004268       __STRLITPACK_36.0.1        005a1268     part_kernel_f:inipart.obj
 0003:00004270       __STRLITPACK_28.0.1        005a1270     part_kernel_f:inipart.obj
 0003:00004278       __STRLITPACK_29.0.1        005a1278     part_kernel_f:inipart.obj
 0003:00004280       __STRLITPACK_30.0.1        005a1280     part_kernel_f:inipart.obj
 0003:00004288       __STRLITPACK_31.0.1        005a1288     part_kernel_f:inipart.obj
 0003:00004290       __STRLITPACK_32.0.1        005a1290     part_kernel_f:inipart.obj
 0003:00004298       __STRLITPACK_33.0.1        005a1298     part_kernel_f:inipart.obj
 0003:000042a0       __STRLITPACK_159.0.2       005a12a0     part_kernel_f:inipart.obj
 0003:000042b0       __STRLITPACK_172.0.2       005a12b0     part_kernel_f:inipart.obj
 0003:000042b8       __STRLITPACK_173.0.2       005a12b8     part_kernel_f:inipart.obj
 0003:000042c0       __STRLITPACK_174.0.2       005a12c0     part_kernel_f:inipart.obj
 0003:000042c8       __STRLITPACK_175.0.2       005a12c8     part_kernel_f:inipart.obj
 0003:000042d0       __STRLITPACK_176.0.2       005a12d0     part_kernel_f:inipart.obj
 0003:000042d8       __STRLITPACK_177.0.2       005a12d8     part_kernel_f:inipart.obj
 0003:000042e0       __STRLITPACK_178.0.2       005a12e0     part_kernel_f:inipart.obj
 0003:000042e8       __STRLITPACK_179.0.2       005a12e8     part_kernel_f:inipart.obj
 0003:000042f0       __STRLITPACK_180.0.2       005a12f0     part_kernel_f:inipart.obj
 0003:000042f8       __STRLITPACK_181.0.2       005a12f8     part_kernel_f:inipart.obj
 0003:00004300       __STRLITPACK_182.0.2       005a1300     part_kernel_f:inipart.obj
 0003:00004308       __STRLITPACK_183.0.2       005a1308     part_kernel_f:inipart.obj
 0003:00004310       __STRLITPACK_184.0.2       005a1310     part_kernel_f:inipart.obj
 0003:00004318       __STRLITPACK_185.0.2       005a1318     part_kernel_f:inipart.obj
 0003:00004320       __STRLITPACK_186.0.2       005a1320     part_kernel_f:inipart.obj
 0003:00004328       __STRLITPACK_187.0.2       005a1328     part_kernel_f:inipart.obj
 0003:00004330       __STRLITPACK_188.0.2       005a1330     part_kernel_f:inipart.obj
 0003:00004338       __STRLITPACK_189.0.2       005a1338     part_kernel_f:inipart.obj
 0003:00004340       __STRLITPACK_190.0.2       005a1340     part_kernel_f:inipart.obj
 0003:00004348       __STRLITPACK_191.0.2       005a1348     part_kernel_f:inipart.obj
 0003:00004350       __STRLITPACK_192.0.2       005a1350     part_kernel_f:inipart.obj
 0003:00004358       __STRLITPACK_193.0.2       005a1358     part_kernel_f:inipart.obj
 0003:00004360       __STRLITPACK_194.0.2       005a1360     part_kernel_f:inipart.obj
 0003:00004368       __STRLITPACK_195.0.2       005a1368     part_kernel_f:inipart.obj
 0003:00004370       __STRLITPACK_196.0.2       005a1370     part_kernel_f:inipart.obj
 0003:00004378       __STRLITPACK_197.0.2       005a1378     part_kernel_f:inipart.obj
 0003:00004380       __STRLITPACK_198.0.2       005a1380     part_kernel_f:inipart.obj
 0003:00004388       __STRLITPACK_199.0.2       005a1388     part_kernel_f:inipart.obj
 0003:00004390       __STRLITPACK_200.0.2       005a1390     part_kernel_f:inipart.obj
 0003:00004398       __STRLITPACK_201.0.2       005a1398     part_kernel_f:inipart.obj
 0003:000043a0       __STRLITPACK_202.0.2       005a13a0     part_kernel_f:inipart.obj
 0003:000043a8       __STRLITPACK_203.0.2       005a13a8     part_kernel_f:inipart.obj
 0003:000043b0       __STRLITPACK_204.0.2       005a13b0     part_kernel_f:inipart.obj
 0003:000043b8       __STRLITPACK_205.0.2       005a13b8     part_kernel_f:inipart.obj
 0003:000043c0       __STRLITPACK_206.0.2       005a13c0     part_kernel_f:inipart.obj
 0003:000043c8       __STRLITPACK_207.0.2       005a13c8     part_kernel_f:inipart.obj
 0003:000043d0       __STRLITPACK_208.0.2       005a13d0     part_kernel_f:inipart.obj
 0003:000043d8       __STRLITPACK_209.0.2       005a13d8     part_kernel_f:inipart.obj
 0003:000043e0       __STRLITPACK_210.0.2       005a13e0     part_kernel_f:inipart.obj
 0003:000043e8       __STRLITPACK_211.0.2       005a13e8     part_kernel_f:inipart.obj
 0003:000043f0       __STRLITPACK_212.0.2       005a13f0     part_kernel_f:inipart.obj
 0003:000043f8       __STRLITPACK_213.0.2       005a13f8     part_kernel_f:inipart.obj
 0003:00004400       __STRLITPACK_160.0.2       005a1400     part_kernel_f:inipart.obj
 0003:00004408       __STRLITPACK_161.0.2       005a1408     part_kernel_f:inipart.obj
 0003:00004410       __STRLITPACK_162.0.2       005a1410     part_kernel_f:inipart.obj
 0003:00004418       __STRLITPACK_163.0.2       005a1418     part_kernel_f:inipart.obj
 0003:00004420       __STRLITPACK_164.0.2       005a1420     part_kernel_f:inipart.obj
 0003:00004428       __STRLITPACK_165.0.2       005a1428     part_kernel_f:inipart.obj
 0003:00004430       __STRLITPACK_166.0.2       005a1430     part_kernel_f:inipart.obj
 0003:00004438       __STRLITPACK_167.0.2       005a1438     part_kernel_f:inipart.obj
 0003:00004440       __STRLITPACK_168.0.2       005a1440     part_kernel_f:inipart.obj
 0003:00004448       __STRLITPACK_169.0.2       005a1448     part_kernel_f:inipart.obj
 0003:00004450       __STRLITPACK_170.0.2       005a1450     part_kernel_f:inipart.obj
 0003:00004458       __STRLITPACK_171.0.2       005a1458     part_kernel_f:inipart.obj
 0003:00004460       _2il0floatpacket.2         005a1460     part_kernel_f:inipart.obj
 0003:00004470       __STRLITPACK_5             005a1470     part_kernel_f:inipart.obj
 0003:000044a0       __STRLITPACK_1             005a14a0     part_kernel_f:inipart.obj
 0003:000044bc       __STRLITPACK_0             005a14bc     part_kernel_f:inipart.obj
 0003:000044cc       __STRLITPACK_21            005a14cc     part_kernel_f:inipart.obj
 0003:000044f0       __STRLITPACK_17            005a14f0     part_kernel_f:inipart.obj
 0003:00004504       __STRLITPACK_13            005a1504     part_kernel_f:inipart.obj
 0003:00004528       __STRLITPACK_9             005a1528     part_kernel_f:inipart.obj
 0003:0000453c       _2il0floatpacket.0         005a153c     part_kernel_f:inipart.obj
 0003:00004540       _2il0floatpacket.1         005a1540     part_kernel_f:inipart.obj
 0003:00004544       __STRLITPACK_158           005a1544     part_kernel_f:inipart.obj
 0003:0000454c       __STRLITPACK_157           005a154c     part_kernel_f:inipart.obj
 0003:00004550       __STRLITPACK_143           005a1550     part_kernel_f:inipart.obj
 0003:00004570       __STRLITPACK_139           005a1570     part_kernel_f:inipart.obj
 0003:00004594       __STRLITPACK_135           005a1594     part_kernel_f:inipart.obj
 0003:000045b4       __STRLITPACK_131           005a15b4     part_kernel_f:inipart.obj
 0003:000045d8       __STRLITPACK_130           005a15d8     part_kernel_f:inipart.obj
 0003:000045e8       __STRLITPACK_126           005a15e8     part_kernel_f:inipart.obj
 0003:00004608       __STRLITPACK_122           005a1608     part_kernel_f:inipart.obj
 0003:00004620       __STRLITPACK_118           005a1620     part_kernel_f:inipart.obj
 0003:00004640       __STRLITPACK_114           005a1640     part_kernel_f:inipart.obj
 0003:00004658       __STRLITPACK_113           005a1658     part_kernel_f:inipart.obj
 0003:00004668       __STRLITPACK_109           005a1668     part_kernel_f:inipart.obj
 0003:00004688       __STRLITPACK_105           005a1688     part_kernel_f:inipart.obj
 0003:000046a8       __STRLITPACK_101           005a16a8     part_kernel_f:inipart.obj
 0003:000046c8       __STRLITPACK_97            005a16c8     part_kernel_f:inipart.obj
 0003:000046e8       __STRLITPACK_96            005a16e8     part_kernel_f:inipart.obj
 0003:000046f8       __STRLITPACK_92            005a16f8     part_kernel_f:inipart.obj
 0003:00004718       __STRLITPACK_88            005a1718     part_kernel_f:inipart.obj
 0003:00004738       __STRLITPACK_84            005a1738     part_kernel_f:inipart.obj
 0003:00004758       __STRLITPACK_80            005a1758     part_kernel_f:inipart.obj
 0003:00004778       __STRLITPACK_79            005a1778     part_kernel_f:inipart.obj
 0003:00004788       __STRLITPACK_75            005a1788     part_kernel_f:inipart.obj
 0003:000047a8       __STRLITPACK_71            005a17a8     part_kernel_f:inipart.obj
 0003:000047c4       __STRLITPACK_67            005a17c4     part_kernel_f:inipart.obj
 0003:000047e4       __STRLITPACK_63            005a17e4     part_kernel_f:inipart.obj
 0003:00004800       __STRLITPACK_62            005a1800     part_kernel_f:inipart.obj
 0003:00004810       __STRLITPACK_58            005a1810     part_kernel_f:inipart.obj
 0003:00004830       __STRLITPACK_54            005a1830     part_kernel_f:inipart.obj
 0003:00004864       __STRLITPACK_50            005a1864     part_kernel_f:inipart.obj
 0003:00004898       __STRLITPACK_46            005a1898     part_kernel_f:inipart.obj
 0003:000048b8       __STRLITPACK_42            005a18b8     part_kernel_f:inipart.obj
 0003:000048ec       __STRLITPACK_38            005a18ec     part_kernel_f:inipart.obj
 0003:00004920       __STRLITPACK_37            005a1920     part_kernel_f:inipart.obj
 0003:00004930       __STRLITPACK_155           005a1930     part_kernel_f:inipart.obj
 0003:0000493c       __STRLITPACK_153           005a193c     part_kernel_f:inipart.obj
 0003:00004948       __STRLITPACK_151           005a1948     part_kernel_f:inipart.obj
 0003:00004950       __STRLITPACK_149           005a1950     part_kernel_f:inipart.obj
 0003:00004960       _2il0floatpacket.0         005a1960     part_kernel_f:densty.obj
 0003:00004964       _2il0floatpacket.1         005a1964     part_kernel_f:densty.obj
 0003:00004968       _2il0floatpacket.2         005a1968     part_kernel_f:densty.obj
 0003:0000496c       _2il0floatpacket.3         005a196c     part_kernel_f:densty.obj
 0003:00004970       _2il0floatpacket.4         005a1970     part_kernel_f:densty.obj
 0003:00004974       _2il0floatpacket.5         005a1974     part_kernel_f:densty.obj
 0003:00004978       _2il0floatpacket.6         005a1978     part_kernel_f:densty.obj
 0003:0000497c       _2il0floatpacket.7         005a197c     part_kernel_f:densty.obj
 0003:00004980       _2il0floatpacket.8         005a1980     part_kernel_f:densty.obj
 0003:00004984       _2il0floatpacket.9         005a1984     part_kernel_f:densty.obj
 0003:00004988       _2il0floatpacket.10        005a1988     part_kernel_f:densty.obj
 0003:0000498c       _2il0floatpacket.11        005a198c     part_kernel_f:densty.obj
 0003:00004990       _2il0floatpacket.12        005a1990     part_kernel_f:densty.obj
 0003:00004994       _2il0floatpacket.13        005a1994     part_kernel_f:densty.obj
 0003:00004998       _2il0floatpacket.14        005a1998     part_kernel_f:densty.obj
 0003:0000499c       __STRLITPACK_0             005a199c     part_kernel_f:densty.obj
 0003:000049a4       __NLITPACK_1.0.2           005a19a4     part_kernel_f:mudrel.obj
 0003:000049a8       __NLITPACK_0.0.2           005a19a8     part_kernel_f:mudrel.obj
 0003:000049ac       __STRLITPACK_235.0.2       005a19ac     part_kernel_f:mudrel.obj
 0003:000049b4       __STRLITPACK_280.0.2       005a19b4     part_kernel_f:mudrel.obj
 0003:000049bc       __STRLITPACK_281.0.2       005a19bc     part_kernel_f:mudrel.obj
 0003:000049c4       __STRLITPACK_310.0.2       005a19c4     part_kernel_f:mudrel.obj
 0003:000049cc       __STRLITPACK_311.0.2       005a19cc     part_kernel_f:mudrel.obj
 0003:000049d4       __STRLITPACK_312.0.2       005a19d4     part_kernel_f:mudrel.obj
 0003:000049dc       __NLITPACK_2.0.2           005a19dc     part_kernel_f:mudrel.obj
 0003:000049e0       __STRLITPACK_313.0.2       005a19e0     part_kernel_f:mudrel.obj
 0003:000049e8       __STRLITPACK_314.0.2       005a19e8     part_kernel_f:mudrel.obj
 0003:000049f0       __STRLITPACK_315.0.2       005a19f0     part_kernel_f:mudrel.obj
 0003:000049f8       __STRLITPACK_316.0.2       005a19f8     part_kernel_f:mudrel.obj
 0003:00004a00       __STRLITPACK_317.0.2       005a1a00     part_kernel_f:mudrel.obj
 0003:00004a08       __STRLITPACK_318.0.2       005a1a08     part_kernel_f:mudrel.obj
 0003:00004a10       __STRLITPACK_319.0.2       005a1a10     part_kernel_f:mudrel.obj
 0003:00004a18       __STRLITPACK_320.0.2       005a1a18     part_kernel_f:mudrel.obj
 0003:00004a20       __STRLITPACK_321.0.2       005a1a20     part_kernel_f:mudrel.obj
 0003:00004a28       __STRLITPACK_322.0.2       005a1a28     part_kernel_f:mudrel.obj
 0003:00004a30       __STRLITPACK_323.0.2       005a1a30     part_kernel_f:mudrel.obj
 0003:00004a38       __STRLITPACK_324.0.2       005a1a38     part_kernel_f:mudrel.obj
 0003:00004a40       __STRLITPACK_325.0.2       005a1a40     part_kernel_f:mudrel.obj
 0003:00004a48       __STRLITPACK_326.0.2       005a1a48     part_kernel_f:mudrel.obj
 0003:00004a50       __STRLITPACK_327.0.2       005a1a50     part_kernel_f:mudrel.obj
 0003:00004a58       __STRLITPACK_328.0.2       005a1a58     part_kernel_f:mudrel.obj
 0003:00004a60       __STRLITPACK_329.0.2       005a1a60     part_kernel_f:mudrel.obj
 0003:00004a68       __STRLITPACK_330.0.2       005a1a68     part_kernel_f:mudrel.obj
 0003:00004a70       __STRLITPACK_331.0.2       005a1a70     part_kernel_f:mudrel.obj
 0003:00004a78       __STRLITPACK_216.0.2       005a1a78     part_kernel_f:mudrel.obj
 0003:00004a80       __STRLITPACK_217.0.2       005a1a80     part_kernel_f:mudrel.obj
 0003:00004a84       __STRLITPACK_218.0.2       005a1a84     part_kernel_f:mudrel.obj
 0003:00004a88       __STRLITPACK_219.0.2       005a1a88     part_kernel_f:mudrel.obj
 0003:00004a90       __STRLITPACK_423.0.2       005a1a90     part_kernel_f:mudrel.obj
 0003:00004a98       __STRLITPACK_424.0.2       005a1a98     part_kernel_f:mudrel.obj
 0003:00004aa0       __STRLITPACK_425.0.2       005a1aa0     part_kernel_f:mudrel.obj
 0003:00004aa8       __STRLITPACK_426.0.2       005a1aa8     part_kernel_f:mudrel.obj
 0003:00004ab0       __STRLITPACK_427.0.2       005a1ab0     part_kernel_f:mudrel.obj
 0003:00004ab8       __STRLITPACK_428.0.2       005a1ab8     part_kernel_f:mudrel.obj
 0003:00004ac0       __STRLITPACK_429.0.2       005a1ac0     part_kernel_f:mudrel.obj
 0003:00004ac8       __STRLITPACK_430.0.2       005a1ac8     part_kernel_f:mudrel.obj
 0003:00004ad0       __STRLITPACK_431.0.2       005a1ad0     part_kernel_f:mudrel.obj
 0003:00004ad8       __STRLITPACK_432.0.2       005a1ad8     part_kernel_f:mudrel.obj
 0003:00004ae0       __STRLITPACK_236.0.2       005a1ae0     part_kernel_f:mudrel.obj
 0003:00004ae8       __STRLITPACK_237.0.2       005a1ae8     part_kernel_f:mudrel.obj
 0003:00004af0       __STRLITPACK_238.0.2       005a1af0     part_kernel_f:mudrel.obj
 0003:00004af8       __STRLITPACK_239.0.2       005a1af8     part_kernel_f:mudrel.obj
 0003:00004b00       __STRLITPACK_240.0.2       005a1b00     part_kernel_f:mudrel.obj
 0003:00004b08       __STRLITPACK_241.0.2       005a1b08     part_kernel_f:mudrel.obj
 0003:00004b10       __STRLITPACK_242.0.2       005a1b10     part_kernel_f:mudrel.obj
 0003:00004b18       __STRLITPACK_243.0.2       005a1b18     part_kernel_f:mudrel.obj
 0003:00004b20       __STRLITPACK_244.0.2       005a1b20     part_kernel_f:mudrel.obj
 0003:00004b28       __STRLITPACK_245.0.2       005a1b28     part_kernel_f:mudrel.obj
 0003:00004b30       __STRLITPACK_246.0.2       005a1b30     part_kernel_f:mudrel.obj
 0003:00004b34       __STRLITPACK_247.0.2       005a1b34     part_kernel_f:mudrel.obj
 0003:00004b3c       __STRLITPACK_249.0.2       005a1b3c     part_kernel_f:mudrel.obj
 0003:00004b44       __STRLITPACK_250.0.2       005a1b44     part_kernel_f:mudrel.obj
 0003:00004b4c       __STRLITPACK_251.0.2       005a1b4c     part_kernel_f:mudrel.obj
 0003:00004b54       __STRLITPACK_252.0.2       005a1b54     part_kernel_f:mudrel.obj
 0003:00004b5c       __STRLITPACK_253.0.2       005a1b5c     part_kernel_f:mudrel.obj
 0003:00004b64       __STRLITPACK_254.0.2       005a1b64     part_kernel_f:mudrel.obj
 0003:00004b6c       __STRLITPACK_255.0.2       005a1b6c     part_kernel_f:mudrel.obj
 0003:00004b74       __STRLITPACK_256.0.2       005a1b74     part_kernel_f:mudrel.obj
 0003:00004b7c       __STRLITPACK_257.0.2       005a1b7c     part_kernel_f:mudrel.obj
 0003:00004b84       __STRLITPACK_258.0.2       005a1b84     part_kernel_f:mudrel.obj
 0003:00004b88       __STRLITPACK_259.0.2       005a1b88     part_kernel_f:mudrel.obj
 0003:00004b8c       __STRLITPACK_260.0.2       005a1b8c     part_kernel_f:mudrel.obj
 0003:00004b94       __STRLITPACK_265.0.2       005a1b94     part_kernel_f:mudrel.obj
 0003:00004b9c       __STRLITPACK_266.0.2       005a1b9c     part_kernel_f:mudrel.obj
 0003:00004ba4       __STRLITPACK_267.0.2       005a1ba4     part_kernel_f:mudrel.obj
 0003:00004bac       __STRLITPACK_268.0.2       005a1bac     part_kernel_f:mudrel.obj
 0003:00004bb4       __STRLITPACK_269.0.2       005a1bb4     part_kernel_f:mudrel.obj
 0003:00004bbc       __STRLITPACK_270.0.2       005a1bbc     part_kernel_f:mudrel.obj
 0003:00004bc4       __STRLITPACK_271.0.2       005a1bc4     part_kernel_f:mudrel.obj
 0003:00004bcc       __STRLITPACK_272.0.2       005a1bcc     part_kernel_f:mudrel.obj
 0003:00004bd4       __STRLITPACK_273.0.2       005a1bd4     part_kernel_f:mudrel.obj
 0003:00004bdc       __STRLITPACK_274.0.2       005a1bdc     part_kernel_f:mudrel.obj
 0003:00004be4       __STRLITPACK_275.0.2       005a1be4     part_kernel_f:mudrel.obj
 0003:00004bec       __STRLITPACK_276.0.2       005a1bec     part_kernel_f:mudrel.obj
 0003:00004bf4       __STRLITPACK_277.0.2       005a1bf4     part_kernel_f:mudrel.obj
 0003:00004bfc       __STRLITPACK_278.0.2       005a1bfc     part_kernel_f:mudrel.obj
 0003:00004c04       __STRLITPACK_279.0.2       005a1c04     part_kernel_f:mudrel.obj
 0003:00004c0c       __STRLITPACK_413.0.2       005a1c0c     part_kernel_f:mudrel.obj
 0003:00004c14       __STRLITPACK_414.0.2       005a1c14     part_kernel_f:mudrel.obj
 0003:00004c1c       __STRLITPACK_415.0.2       005a1c1c     part_kernel_f:mudrel.obj
 0003:00004c24       __STRLITPACK_416.0.2       005a1c24     part_kernel_f:mudrel.obj
 0003:00004c2c       __STRLITPACK_417.0.2       005a1c2c     part_kernel_f:mudrel.obj
 0003:00004c34       __STRLITPACK_418.0.2       005a1c34     part_kernel_f:mudrel.obj
 0003:00004c3c       __STRLITPACK_419.0.2       005a1c3c     part_kernel_f:mudrel.obj
 0003:00004c44       __STRLITPACK_420.0.2       005a1c44     part_kernel_f:mudrel.obj
 0003:00004c4c       __STRLITPACK_421.0.2       005a1c4c     part_kernel_f:mudrel.obj
 0003:00004c54       __STRLITPACK_422.0.2       005a1c54     part_kernel_f:mudrel.obj
 0003:00004c5c       __STRLITPACK_261.0.2       005a1c5c     part_kernel_f:mudrel.obj
 0003:00004c64       __STRLITPACK_262.0.2       005a1c64     part_kernel_f:mudrel.obj
 0003:00004c68       __STRLITPACK_263.0.2       005a1c68     part_kernel_f:mudrel.obj
 0003:00004c70       __STRLITPACK_264.0.2       005a1c70     part_kernel_f:mudrel.obj
 0003:00004c74       __STRLITPACK_248.0.2       005a1c74     part_kernel_f:mudrel.obj
 0003:00004c78       __STRLITPACK_282.0.2       005a1c78     part_kernel_f:mudrel.obj
 0003:00004c80       __STRLITPACK_283.0.2       005a1c80     part_kernel_f:mudrel.obj
 0003:00004c88       __STRLITPACK_284.0.2       005a1c88     part_kernel_f:mudrel.obj
 0003:00004c90       __STRLITPACK_285.0.2       005a1c90     part_kernel_f:mudrel.obj
 0003:00004c98       __STRLITPACK_286.0.2       005a1c98     part_kernel_f:mudrel.obj
 0003:00004ca0       __STRLITPACK_287.0.2       005a1ca0     part_kernel_f:mudrel.obj
 0003:00004ca8       __STRLITPACK_288.0.2       005a1ca8     part_kernel_f:mudrel.obj
 0003:00004cb0       __STRLITPACK_289.0.2       005a1cb0     part_kernel_f:mudrel.obj
 0003:00004cb8       __STRLITPACK_290.0.2       005a1cb8     part_kernel_f:mudrel.obj
 0003:00004cc0       __STRLITPACK_291.0.2       005a1cc0     part_kernel_f:mudrel.obj
 0003:00004cc8       __STRLITPACK_292.0.2       005a1cc8     part_kernel_f:mudrel.obj
 0003:00004cd0       __STRLITPACK_293.0.2       005a1cd0     part_kernel_f:mudrel.obj
 0003:00004cd8       __STRLITPACK_294.0.2       005a1cd8     part_kernel_f:mudrel.obj
 0003:00004ce0       __STRLITPACK_295.0.2       005a1ce0     part_kernel_f:mudrel.obj
 0003:00004ce8       __STRLITPACK_296.0.2       005a1ce8     part_kernel_f:mudrel.obj
 0003:00004cf0       __STRLITPACK_297.0.2       005a1cf0     part_kernel_f:mudrel.obj
 0003:00004cf8       __STRLITPACK_298.0.2       005a1cf8     part_kernel_f:mudrel.obj
 0003:00004d00       __STRLITPACK_299.0.2       005a1d00     part_kernel_f:mudrel.obj
 0003:00004d08       __STRLITPACK_300.0.2       005a1d08     part_kernel_f:mudrel.obj
 0003:00004d10       __STRLITPACK_301.0.2       005a1d10     part_kernel_f:mudrel.obj
 0003:00004d18       __STRLITPACK_302.0.2       005a1d18     part_kernel_f:mudrel.obj
 0003:00004d20       __STRLITPACK_303.0.2       005a1d20     part_kernel_f:mudrel.obj
 0003:00004d28       __STRLITPACK_304.0.2       005a1d28     part_kernel_f:mudrel.obj
 0003:00004d30       __STRLITPACK_305.0.2       005a1d30     part_kernel_f:mudrel.obj
 0003:00004d38       __STRLITPACK_306.0.2       005a1d38     part_kernel_f:mudrel.obj
 0003:00004d40       __STRLITPACK_307.0.2       005a1d40     part_kernel_f:mudrel.obj
 0003:00004d48       __STRLITPACK_308.0.2       005a1d48     part_kernel_f:mudrel.obj
 0003:00004d50       __STRLITPACK_309.0.2       005a1d50     part_kernel_f:mudrel.obj
 0003:00004d58       __STRLITPACK_332.0.2       005a1d58     part_kernel_f:mudrel.obj
 0003:00004d60       __STRLITPACK_335.0.2       005a1d60     part_kernel_f:mudrel.obj
 0003:00004d68       __STRLITPACK_336.0.2       005a1d68     part_kernel_f:mudrel.obj
 0003:00004d70       __STRLITPACK_337.0.2       005a1d70     part_kernel_f:mudrel.obj
 0003:00004d78       __STRLITPACK_338.0.2       005a1d78     part_kernel_f:mudrel.obj
 0003:00004d80       __STRLITPACK_341.0.2       005a1d80     part_kernel_f:mudrel.obj
 0003:00004d88       __STRLITPACK_342.0.2       005a1d88     part_kernel_f:mudrel.obj
 0003:00004d90       __STRLITPACK_343.0.2       005a1d90     part_kernel_f:mudrel.obj
 0003:00004d98       __STRLITPACK_344.0.2       005a1d98     part_kernel_f:mudrel.obj
 0003:00004da0       __STRLITPACK_345.0.2       005a1da0     part_kernel_f:mudrel.obj
 0003:00004da8       __STRLITPACK_346.0.2       005a1da8     part_kernel_f:mudrel.obj
 0003:00004db0       __STRLITPACK_347.0.2       005a1db0     part_kernel_f:mudrel.obj
 0003:00004db8       __STRLITPACK_348.0.2       005a1db8     part_kernel_f:mudrel.obj
 0003:00004dc0       __STRLITPACK_349.0.2       005a1dc0     part_kernel_f:mudrel.obj
 0003:00004dc8       __STRLITPACK_350.0.2       005a1dc8     part_kernel_f:mudrel.obj
 0003:00004dd0       __STRLITPACK_351.0.2       005a1dd0     part_kernel_f:mudrel.obj
 0003:00004dd8       __STRLITPACK_352.0.2       005a1dd8     part_kernel_f:mudrel.obj
 0003:00004de0       __STRLITPACK_353.0.2       005a1de0     part_kernel_f:mudrel.obj
 0003:00004de8       __STRLITPACK_354.0.2       005a1de8     part_kernel_f:mudrel.obj
 0003:00004df0       __STRLITPACK_355.0.2       005a1df0     part_kernel_f:mudrel.obj
 0003:00004df8       __STRLITPACK_356.0.2       005a1df8     part_kernel_f:mudrel.obj
 0003:00004e00       __STRLITPACK_357.0.2       005a1e00     part_kernel_f:mudrel.obj
 0003:00004e08       __STRLITPACK_358.0.2       005a1e08     part_kernel_f:mudrel.obj
 0003:00004e10       __STRLITPACK_359.0.2       005a1e10     part_kernel_f:mudrel.obj
 0003:00004e18       __STRLITPACK_360.0.2       005a1e18     part_kernel_f:mudrel.obj
 0003:00004e20       __STRLITPACK_361.0.2       005a1e20     part_kernel_f:mudrel.obj
 0003:00004e28       __STRLITPACK_362.0.2       005a1e28     part_kernel_f:mudrel.obj
 0003:00004e30       __STRLITPACK_363.0.2       005a1e30     part_kernel_f:mudrel.obj
 0003:00004e38       __STRLITPACK_364.0.2       005a1e38     part_kernel_f:mudrel.obj
 0003:00004e40       __STRLITPACK_365.0.2       005a1e40     part_kernel_f:mudrel.obj
 0003:00004e48       __STRLITPACK_366.0.2       005a1e48     part_kernel_f:mudrel.obj
 0003:00004e50       __STRLITPACK_373.0.2       005a1e50     part_kernel_f:mudrel.obj
 0003:00004e58       __STRLITPACK_374.0.2       005a1e58     part_kernel_f:mudrel.obj
 0003:00004e60       __STRLITPACK_375.0.2       005a1e60     part_kernel_f:mudrel.obj
 0003:00004e68       __STRLITPACK_376.0.2       005a1e68     part_kernel_f:mudrel.obj
 0003:00004e70       __STRLITPACK_377.0.2       005a1e70     part_kernel_f:mudrel.obj
 0003:00004e78       __STRLITPACK_378.0.2       005a1e78     part_kernel_f:mudrel.obj
 0003:00004e80       __STRLITPACK_379.0.2       005a1e80     part_kernel_f:mudrel.obj
 0003:00004e88       __STRLITPACK_380.0.2       005a1e88     part_kernel_f:mudrel.obj
 0003:00004e90       __STRLITPACK_381.0.2       005a1e90     part_kernel_f:mudrel.obj
 0003:00004e98       __STRLITPACK_382.0.2       005a1e98     part_kernel_f:mudrel.obj
 0003:00004ea0       __STRLITPACK_383.0.2       005a1ea0     part_kernel_f:mudrel.obj
 0003:00004ea8       __STRLITPACK_384.0.2       005a1ea8     part_kernel_f:mudrel.obj
 0003:00004eb0       __STRLITPACK_385.0.2       005a1eb0     part_kernel_f:mudrel.obj
 0003:00004eb8       __STRLITPACK_386.0.2       005a1eb8     part_kernel_f:mudrel.obj
 0003:00004ec0       __STRLITPACK_387.0.2       005a1ec0     part_kernel_f:mudrel.obj
 0003:00004ec8       __STRLITPACK_388.0.2       005a1ec8     part_kernel_f:mudrel.obj
 0003:00004ed0       __STRLITPACK_389.0.2       005a1ed0     part_kernel_f:mudrel.obj
 0003:00004ed8       __STRLITPACK_390.0.2       005a1ed8     part_kernel_f:mudrel.obj
 0003:00004ee0       __STRLITPACK_391.0.2       005a1ee0     part_kernel_f:mudrel.obj
 0003:00004ee8       __STRLITPACK_392.0.2       005a1ee8     part_kernel_f:mudrel.obj
 0003:00004ef0       __STRLITPACK_393.0.2       005a1ef0     part_kernel_f:mudrel.obj
 0003:00004ef8       __STRLITPACK_394.0.2       005a1ef8     part_kernel_f:mudrel.obj
 0003:00004f00       __STRLITPACK_395.0.2       005a1f00     part_kernel_f:mudrel.obj
 0003:00004f08       __STRLITPACK_396.0.2       005a1f08     part_kernel_f:mudrel.obj
 0003:00004f10       __STRLITPACK_397.0.2       005a1f10     part_kernel_f:mudrel.obj
 0003:00004f18       __STRLITPACK_398.0.2       005a1f18     part_kernel_f:mudrel.obj
 0003:00004f20       __STRLITPACK_399.0.2       005a1f20     part_kernel_f:mudrel.obj
 0003:00004f28       __STRLITPACK_400.0.2       005a1f28     part_kernel_f:mudrel.obj
 0003:00004f30       __STRLITPACK_401.0.2       005a1f30     part_kernel_f:mudrel.obj
 0003:00004f38       __STRLITPACK_402.0.2       005a1f38     part_kernel_f:mudrel.obj
 0003:00004f40       __STRLITPACK_403.0.2       005a1f40     part_kernel_f:mudrel.obj
 0003:00004f48       __STRLITPACK_404.0.2       005a1f48     part_kernel_f:mudrel.obj
 0003:00004f50       __STRLITPACK_405.0.2       005a1f50     part_kernel_f:mudrel.obj
 0003:00004f58       __STRLITPACK_406.0.2       005a1f58     part_kernel_f:mudrel.obj
 0003:00004f60       __STRLITPACK_407.0.2       005a1f60     part_kernel_f:mudrel.obj
 0003:00004f68       __STRLITPACK_408.0.2       005a1f68     part_kernel_f:mudrel.obj
 0003:00004f70       __STRLITPACK_409.0.2       005a1f70     part_kernel_f:mudrel.obj
 0003:00004f78       __STRLITPACK_410.0.2       005a1f78     part_kernel_f:mudrel.obj
 0003:00004f80       __STRLITPACK_411.0.2       005a1f80     part_kernel_f:mudrel.obj
 0003:00004f88       __STRLITPACK_412.0.2       005a1f88     part_kernel_f:mudrel.obj
 0003:00004f90       __STRLITPACK_333.0.2       005a1f90     part_kernel_f:mudrel.obj
 0003:00004f98       __STRLITPACK_334.0.2       005a1f98     part_kernel_f:mudrel.obj
 0003:00004fa0       __STRLITPACK_339.0.2       005a1fa0     part_kernel_f:mudrel.obj
 0003:00004fa8       __STRLITPACK_340.0.2       005a1fa8     part_kernel_f:mudrel.obj
 0003:00004fb0       __STRLITPACK_367.0.2       005a1fb0     part_kernel_f:mudrel.obj
 0003:00004fb8       __STRLITPACK_368.0.2       005a1fb8     part_kernel_f:mudrel.obj
 0003:00004fc0       __STRLITPACK_369.0.2       005a1fc0     part_kernel_f:mudrel.obj
 0003:00004fc8       __STRLITPACK_370.0.2       005a1fc8     part_kernel_f:mudrel.obj
 0003:00004fd0       __STRLITPACK_371.0.2       005a1fd0     part_kernel_f:mudrel.obj
 0003:00004fd8       __STRLITPACK_372.0.2       005a1fd8     part_kernel_f:mudrel.obj
 0003:00004fe0       __STRLITPACK_224.0.2       005a1fe0     part_kernel_f:mudrel.obj
 0003:00004fe8       __STRLITPACK_225.0.2       005a1fe8     part_kernel_f:mudrel.obj
 0003:00004ff0       __STRLITPACK_226.0.2       005a1ff0     part_kernel_f:mudrel.obj
 0003:00004ff8       __STRLITPACK_227.0.2       005a1ff8     part_kernel_f:mudrel.obj
 0003:00005000       __STRLITPACK_228.0.2       005a2000     part_kernel_f:mudrel.obj
 0003:00005008       __STRLITPACK_229.0.2       005a2008     part_kernel_f:mudrel.obj
 0003:00005010       __STRLITPACK_230.0.2       005a2010     part_kernel_f:mudrel.obj
 0003:00005018       __STRLITPACK_231.0.2       005a2018     part_kernel_f:mudrel.obj
 0003:00005020       __STRLITPACK_232.0.2       005a2020     part_kernel_f:mudrel.obj
 0003:00005028       __STRLITPACK_233.0.2       005a2028     part_kernel_f:mudrel.obj
 0003:00005030       __STRLITPACK_234.0.2       005a2030     part_kernel_f:mudrel.obj
 0003:00005038       __STRLITPACK_220.0.2       005a2038     part_kernel_f:mudrel.obj
 0003:00005040       __STRLITPACK_221.0.2       005a2040     part_kernel_f:mudrel.obj
 0003:00005044       __STRLITPACK_222.0.2       005a2044     part_kernel_f:mudrel.obj
 0003:0000504c       __STRLITPACK_223.0.2       005a204c     part_kernel_f:mudrel.obj
 0003:00005050       _2il0floatpacket.0         005a2050     part_kernel_f:mudrel.obj
 0003:00005054       _2il0floatpacket.1         005a2054     part_kernel_f:mudrel.obj
 0003:00005058       _2il0floatpacket.2         005a2058     part_kernel_f:mudrel.obj
 0003:0000505c       __STRLITPACK_215           005a205c     part_kernel_f:mudrel.obj
 0003:00005064       __STRLITPACK_140           005a2064     part_kernel_f:mudrel.obj
 0003:00005070       __STRLITPACK_138           005a2070     part_kernel_f:mudrel.obj
 0003:000050a4       __STRLITPACK_133           005a20a4     part_kernel_f:mudrel.obj
 0003:000050ac       __STRLITPACK_132           005a20ac     part_kernel_f:mudrel.obj
 0003:000050b4       __STRLITPACK_131           005a20b4     part_kernel_f:mudrel.obj
 0003:000050bc       __STRLITPACK_128           005a20bc     part_kernel_f:mudrel.obj
 0003:000050c8       __STRLITPACK_127           005a20c8     part_kernel_f:mudrel.obj
 0003:000050d4       __STRLITPACK_125           005a20d4     part_kernel_f:mudrel.obj
 0003:000050fc       __STRLITPACK_123           005a20fc     part_kernel_f:mudrel.obj
 0003:0000511c       __STRLITPACK_121           005a211c     part_kernel_f:mudrel.obj
 0003:0000513c       __STRLITPACK_119           005a213c     part_kernel_f:mudrel.obj
 0003:00005160       __STRLITPACK_117           005a2160     part_kernel_f:mudrel.obj
 0003:00005184       __STRLITPACK_10            005a2184     part_kernel_f:mudrel.obj
 0003:000051b8       __STRLITPACK_7             005a21b8     part_kernel_f:mudrel.obj
 0003:000051c0       __STRLITPACK_6             005a21c0     part_kernel_f:mudrel.obj
 0003:000051d0       __STRLITPACK_4             005a21d0     part_kernel_f:mudrel.obj
 0003:00005204       __STRLITPACK_1             005a2204     part_kernel_f:mudrel.obj
 0003:0000520c       __STRLITPACK_0             005a220c     part_kernel_f:mudrel.obj
 0003:0000521c       __STRLITPACK_208           005a221c     part_kernel_f:mudrel.obj
 0003:0000523c       __STRLITPACK_206           005a223c     part_kernel_f:mudrel.obj
 0003:00005258       __STRLITPACK_204           005a2258     part_kernel_f:mudrel.obj
 0003:00005284       __STRLITPACK_201           005a2284     part_kernel_f:mudrel.obj
 0003:00005294       __STRLITPACK_200           005a2294     part_kernel_f:mudrel.obj
 0003:000052a0       __STRLITPACK_190           005a22a0     part_kernel_f:mudrel.obj
 0003:000052c0       __STRLITPACK_188           005a22c0     part_kernel_f:mudrel.obj
 0003:000052e0       __STRLITPACK_186           005a22e0     part_kernel_f:mudrel.obj
 0003:00005304       __STRLITPACK_184           005a2304     part_kernel_f:mudrel.obj
 0003:00005328       __STRLITPACK_182           005a2328     part_kernel_f:mudrel.obj
 0003:0000532c       __STRLITPACK_180           005a232c     part_kernel_f:mudrel.obj
 0003:00005330       __STRLITPACK_178           005a2330     part_kernel_f:mudrel.obj
 0003:00005348       __STRLITPACK_176           005a2348     part_kernel_f:mudrel.obj
 0003:00005360       __STRLITPACK_22            005a2360     part_kernel_f:mudrel.obj
 0003:00005390       __STRLITPACK_19            005a2390     part_kernel_f:mudrel.obj
 0003:00005398       __STRLITPACK_18            005a2398     part_kernel_f:mudrel.obj
 0003:000053a8       __STRLITPACK_16            005a23a8     part_kernel_f:mudrel.obj
 0003:000053d8       __STRLITPACK_13            005a23d8     part_kernel_f:mudrel.obj
 0003:000053e0       __STRLITPACK_12            005a23e0     part_kernel_f:mudrel.obj
 0003:000053f0       __STRLITPACK_173           005a23f0     part_kernel_f:mudrel.obj
 0003:0000540c       __STRLITPACK_172           005a240c     part_kernel_f:mudrel.obj
 0003:00005434       __STRLITPACK_169           005a2434     part_kernel_f:mudrel.obj
 0003:00005450       __STRLITPACK_168           005a2450     part_kernel_f:mudrel.obj
 0003:00005478       __STRLITPACK_165           005a2478     part_kernel_f:mudrel.obj
 0003:00005494       __STRLITPACK_164           005a2494     part_kernel_f:mudrel.obj
 0003:000054bc       __STRLITPACK_161           005a24bc     part_kernel_f:mudrel.obj
 0003:000054d8       __STRLITPACK_160           005a24d8     part_kernel_f:mudrel.obj
 0003:00005500       __STRLITPACK_158           005a2500     part_kernel_f:mudrel.obj
 0003:00005504       __STRLITPACK_156           005a2504     part_kernel_f:mudrel.obj
 0003:00005508       __STRLITPACK_154           005a2508     part_kernel_f:mudrel.obj
 0003:00005524       __STRLITPACK_152           005a2524     part_kernel_f:mudrel.obj
 0003:00005540       __STRLITPACK_150           005a2540     part_kernel_f:mudrel.obj
 0003:00005570       __STRLITPACK_148           005a2570     part_kernel_f:mudrel.obj
 0003:000055a0       __STRLITPACK_146           005a25a0     part_kernel_f:mudrel.obj
 0003:000055c8       __STRLITPACK_144           005a25c8     part_kernel_f:mudrel.obj
 0003:000055ec       __STRLITPACK_142           005a25ec     part_kernel_f:mudrel.obj
 0003:00005618       __STRLITPACK_114           005a2618     part_kernel_f:mudrel.obj
 0003:0000561c       __STRLITPACK_108           005a261c     part_kernel_f:mudrel.obj
 0003:0000563c       __STRLITPACK_106           005a263c     part_kernel_f:mudrel.obj
 0003:00005654       __STRLITPACK_104           005a2654     part_kernel_f:mudrel.obj
 0003:00005674       __STRLITPACK_99            005a2674     part_kernel_f:mudrel.obj
 0003:00005680       __STRLITPACK_98            005a2680     part_kernel_f:mudrel.obj
 0003:00005694       __STRLITPACK_96            005a2694     part_kernel_f:mudrel.obj
 0003:000056a8       __STRLITPACK_94            005a26a8     part_kernel_f:mudrel.obj
 0003:000056cc       __STRLITPACK_92            005a26cc     part_kernel_f:mudrel.obj
 0003:000056e0       __STRLITPACK_90            005a26e0     part_kernel_f:mudrel.obj
 0003:00005704       __STRLITPACK_88            005a2704     part_kernel_f:mudrel.obj
 0003:00005708       __STRLITPACK_85            005a2708     part_kernel_f:mudrel.obj
 0003:00005714       __STRLITPACK_84            005a2714     part_kernel_f:mudrel.obj
 0003:00005720       __STRLITPACK_82            005a2720     part_kernel_f:mudrel.obj
 0003:00005748       __STRLITPACK_80            005a2748     part_kernel_f:mudrel.obj
 0003:00005770       __STRLITPACK_78            005a2770     part_kernel_f:mudrel.obj
 0003:00005798       __STRLITPACK_72            005a2798     part_kernel_f:mudrel.obj
 0003:000057b8       __STRLITPACK_69            005a27b8     part_kernel_f:mudrel.obj
 0003:000057d8       __STRLITPACK_68            005a27d8     part_kernel_f:mudrel.obj
 0003:000057dc       __STRLITPACK_66            005a27dc     part_kernel_f:mudrel.obj
 0003:00005800       __STRLITPACK_64            005a2800     part_kernel_f:mudrel.obj
 0003:00005824       __STRLITPACK_62            005a2824     part_kernel_f:mudrel.obj
 0003:0000584c       __STRLITPACK_60            005a284c     part_kernel_f:mudrel.obj
 0003:00005870       __STRLITPACK_58            005a2870     part_kernel_f:mudrel.obj
 0003:00005884       __STRLITPACK_56            005a2884     part_kernel_f:mudrel.obj
 0003:00005898       __STRLITPACK_53            005a2898     part_kernel_f:mudrel.obj
 0003:000058ac       __STRLITPACK_52            005a28ac     part_kernel_f:mudrel.obj
 0003:000058c0       __STRLITPACK_49            005a28c0     part_kernel_f:mudrel.obj
 0003:000058dc       __STRLITPACK_48            005a28dc     part_kernel_f:mudrel.obj
 0003:000058e8       __STRLITPACK_45            005a28e8     part_kernel_f:mudrel.obj
 0003:00005900       __STRLITPACK_44            005a2900     part_kernel_f:mudrel.obj
 0003:00005910       __STRLITPACK_42            005a2910     part_kernel_f:mudrel.obj
 0003:0000592c       __STRLITPACK_40            005a292c     part_kernel_f:mudrel.obj
 0003:00005948       __STRLITPACK_37            005a2948     part_kernel_f:mudrel.obj
 0003:0000595c       __STRLITPACK_36            005a295c     part_kernel_f:mudrel.obj
 0003:00005970       __STRLITPACK_33            005a2970     part_kernel_f:mudrel.obj
 0003:0000598c       __STRLITPACK_32            005a298c     part_kernel_f:mudrel.obj
 0003:00005998       __STRLITPACK_29            005a2998     part_kernel_f:mudrel.obj
 0003:000059b0       __STRLITPACK_28            005a29b0     part_kernel_f:mudrel.obj
 0003:000059c0       __STRLITPACK_26            005a29c0     part_kernel_f:mudrel.obj
 0003:000059dc       __STRLITPACK_24            005a29dc     part_kernel_f:mudrel.obj
 0003:000059f8       __STRLITPACK_112           005a29f8     part_kernel_f:mudrel.obj
 0003:00005a18       __STRLITPACK_110           005a2a18     part_kernel_f:mudrel.obj
 0003:00005a38       __STRLITPACK_74            005a2a38     part_kernel_f:mudrel.obj
 0003:00005a48       __STRLITPACK_75            005a2a48     part_kernel_f:mudrel.obj
 0003:00005a58       __STRLITPACK_76            005a2a58     part_kernel_f:mudrel.obj
 0003:00005a70       __STRLITPACK_77            005a2a70     part_kernel_f:mudrel.obj
 0003:00005a90       __STRLITPACK_102           005a2a90     part_kernel_f:mudrel.obj
 0003:00005aac       __STRLITPACK_116           005a2aac     part_kernel_f:mudrel.obj
 0003:00005ad0       __STRLITPACK_137           005a2ad0     part_kernel_f:mudrel.obj
 0003:00005ae8       __STRLITPACK_213           005a2ae8     part_kernel_f:mudrel.obj
 0003:00005aec       __STRLITPACK_211           005a2aec     part_kernel_f:mudrel.obj
 0003:00005b08       _2il0floatpacket.0         005a2b08     part_kernel_f:umagi.obj
 0003:00005b0c       _2il0floatpacket.1         005a2b0c     part_kernel_f:umagi.obj
 0003:00005b10       _2il0floatpacket.2         005a2b10     part_kernel_f:umagi.obj
 0003:00005b14       _2il0floatpacket.3         005a2b14     part_kernel_f:umagi.obj
 0003:00005b18       _2il0floatpacket.4         005a2b18     part_kernel_f:umagi.obj
 0003:00005b1c       _2il0floatpacket.5         005a2b1c     part_kernel_f:umagi.obj
 0003:00005b20       _2il0floatpacket.6         005a2b20     part_kernel_f:umagi.obj
 0003:00005b24       __STRLITPACK_0             005a2b24     part_kernel_f:umagi.obj
 0003:00005b48       __STRLITPACK_1             005a2b48     part_kernel_f:umagi.obj
 0003:00005b64       __STRLITPACK_2             005a2b64     part_kernel_f:umagi.obj
 0003:00005b88       __STRLITPACK_3             005a2b88     part_kernel_f:umagi.obj
 0003:00005bac       __STRLITPACK_4             005a2bac     part_kernel_f:umagi.obj
 0003:00005bc0       __STRLITPACK_6.0.2         005a2bc0     part_kernel_f:p10cor.obj
 0003:00005bc8       __STRLITPACK_7.0.2         005a2bc8     part_kernel_f:p10cor.obj
 0003:00005bd0       __STRLITPACK_8.0.2         005a2bd0     part_kernel_f:p10cor.obj
 0003:00005bd8       __NLITPACK_0.0.2           005a2bd8     part_kernel_f:p10cor.obj
 0003:00005be0       _2il0floatpacket.5         005a2be0     part_kernel_f:p10cor.obj
 0003:00005bf0       _2il0floatpacket.0         005a2bf0     part_kernel_f:p10cor.obj
 0003:00005bf4       _2il0floatpacket.1         005a2bf4     part_kernel_f:p10cor.obj
 0003:00005bf8       _2il0floatpacket.2         005a2bf8     part_kernel_f:p10cor.obj
 0003:00005bfc       _2il0floatpacket.3         005a2bfc     part_kernel_f:p10cor.obj
 0003:00005c00       _2il0floatpacket.4         005a2c00     part_kernel_f:p10cor.obj
 0003:00005c04       __STRLITPACK_5             005a2c04     part_kernel_f:p10cor.obj
 0003:00005c0c       __STRLITPACK_3             005a2c0c     part_kernel_f:p10cor.obj
 0003:00005c28       __STRLITPACK_1             005a2c28     part_kernel_f:p10cor.obj
 0003:00005c58       __STRLITPACK_0             005a2c58     part_kernel_f:p10cor.obj
 0003:00005c90       _2il0floatpacket.0         005a2c90     part_kernel_f:p10ddb.obj
 0003:00005c94       _2il0floatpacket.1         005a2c94     part_kernel_f:p10ddb.obj
 0003:00005c98       _2il0floatpacket.2         005a2c98     part_kernel_f:p10ddb.obj
 0003:00005c9c       __STRLITPACK_0             005a2c9c     part_kernel_f:p10ddb.obj
 0003:00005cb0       __STRLITPACK_19.0.2        005a2cb0     part_kernel_f:partfl.obj
 0003:00005cb8       __STRLITPACK_20.0.2        005a2cb8     part_kernel_f:partfl.obj
 0003:00005cc0       __STRLITPACK_24.0.2        005a2cc0     part_kernel_f:partfl.obj
 0003:00005cc8       __STRLITPACK_25.0.2        005a2cc8     part_kernel_f:partfl.obj
 0003:00005cd0       __STRLITPACK_26.0.2        005a2cd0     part_kernel_f:partfl.obj
 0003:00005cd8       __STRLITPACK_27.0.2        005a2cd8     part_kernel_f:partfl.obj
 0003:00005ce0       __STRLITPACK_28.0.2        005a2ce0     part_kernel_f:partfl.obj
 0003:00005ce8       __STRLITPACK_29.0.2        005a2ce8     part_kernel_f:partfl.obj
 0003:00005cf0       __STRLITPACK_30.0.2        005a2cf0     part_kernel_f:partfl.obj
 0003:00005cf8       __STRLITPACK_31.0.2        005a2cf8     part_kernel_f:partfl.obj
 0003:00005d00       __STRLITPACK_32.0.2        005a2d00     part_kernel_f:partfl.obj
 0003:00005d08       __NLITPACK_0.0.2           005a2d08     part_kernel_f:partfl.obj
 0003:00005d0c       __STRLITPACK_21.0.2        005a2d0c     part_kernel_f:partfl.obj
 0003:00005d14       __STRLITPACK_22.0.2        005a2d14     part_kernel_f:partfl.obj
 0003:00005d1c       __STRLITPACK_23.0.2        005a2d1c     part_kernel_f:partfl.obj
 0003:00005d30       _2il0floatpacket.6         005a2d30     part_kernel_f:partfl.obj
 0003:00005d40       _2il0floatpacket.3         005a2d40     part_kernel_f:partfl.obj
 0003:00005d48       _2il0floatpacket.0         005a2d48     part_kernel_f:partfl.obj
 0003:00005d4c       _2il0floatpacket.1         005a2d4c     part_kernel_f:partfl.obj
 0003:00005d50       _2il0floatpacket.2         005a2d50     part_kernel_f:partfl.obj
 0003:00005d54       _2il0floatpacket.4         005a2d54     part_kernel_f:partfl.obj
 0003:00005d58       _2il0floatpacket.5         005a2d58     part_kernel_f:partfl.obj
 0003:00005d5c       __STRLITPACK_17            005a2d5c     part_kernel_f:partfl.obj
 0003:00005d64       __STRLITPACK_15            005a2d64     part_kernel_f:partfl.obj
 0003:00005d70       __STRLITPACK_14            005a2d70     part_kernel_f:partfl.obj
 0003:00005da0       __STRLITPACK_12            005a2da0     part_kernel_f:partfl.obj
 0003:00005dc8       __STRLITPACK_10            005a2dc8     part_kernel_f:partfl.obj
 0003:00005dd4       __STRLITPACK_8             005a2dd4     part_kernel_f:partfl.obj
 0003:00005de0       __STRLITPACK_6             005a2de0     part_kernel_f:partfl.obj
 0003:00005dec       __STRLITPACK_4             005a2dec     part_kernel_f:partfl.obj
 0003:00005df8       __STRLITPACK_18            005a2df8     part_kernel_f:partfl.obj
 0003:00005e00       _2il0floatpacket.0         005a2e00     part_kernel_f:diffus.obj
 0003:00005e04       _2il0floatpacket.1         005a2e04     part_kernel_f:diffus.obj
 0003:00005e08       _2il0floatpacket.2         005a2e08     part_kernel_f:diffus.obj
 0003:00005e0c       _2il0floatpacket.3         005a2e0c     part_kernel_f:diffus.obj
 0003:00005e10       _2il0floatpacket.4         005a2e10     part_kernel_f:diffus.obj
 0003:00005e14       _2il0floatpacket.5         005a2e14     part_kernel_f:diffus.obj
 0003:00005e18       _2il0floatpacket.6         005a2e18     part_kernel_f:diffus.obj
 0003:00005e1c       _2il0floatpacket.7         005a2e1c     part_kernel_f:diffus.obj
 0003:00005e20       __STRLITPACK_0             005a2e20     part_kernel_f:diffus.obj
 0003:00005e28       __STRLITPACK_39.0.7        005a2e28     deltares_common:timers.obj
 0003:00005e30       __STRLITPACK_40.0.7        005a2e30     deltares_common:timers.obj
 0003:00005e38       __STRLITPACK_41.0.7        005a2e38     deltares_common:timers.obj
 0003:00005e40       __STRLITPACK_42.0.7        005a2e40     deltares_common:timers.obj
 0003:00005e48       __STRLITPACK_43.0.7        005a2e48     deltares_common:timers.obj
 0003:00005e50       __STRLITPACK_44.0.7        005a2e50     deltares_common:timers.obj
 0003:00005e58       __STRLITPACK_45.0.7        005a2e58     deltares_common:timers.obj
 0003:00005e60       __STRLITPACK_46.0.7        005a2e60     deltares_common:timers.obj
 0003:00005e68       __STRLITPACK_47.0.7        005a2e68     deltares_common:timers.obj
 0003:00005e70       __STRLITPACK_28.0.6        005a2e70     deltares_common:timers.obj
 0003:00005e84       __STRLITPACK_29.0.6        005a2e84     deltares_common:timers.obj
 0003:00005e8c       __STRLITPACK_30.0.6        005a2e8c     deltares_common:timers.obj
 0003:00005e94       __STRLITPACK_31.0.6        005a2e94     deltares_common:timers.obj
 0003:00005e98       __STRLITPACK_32.0.6        005a2e98     deltares_common:timers.obj
 0003:00005ea0       __STRLITPACK_33.0.6        005a2ea0     deltares_common:timers.obj
 0003:00005ea8       __STRLITPACK_34.0.6        005a2ea8     deltares_common:timers.obj
 0003:00005eb0       __STRLITPACK_35.0.6        005a2eb0     deltares_common:timers.obj
 0003:00005eb4       __STRLITPACK_36.0.6        005a2eb4     deltares_common:timers.obj
 0003:00005ebc       __STRLITPACK_37.0.6        005a2ebc     deltares_common:timers.obj
 0003:00005ec0       __STRLITPACK_38.0.6        005a2ec0     deltares_common:timers.obj
 0003:00005ec8       __STRLITPACK_24.0.5        005a2ec8     deltares_common:timers.obj
 0003:00005ed0       __STRLITPACK_25.0.5        005a2ed0     deltares_common:timers.obj
 0003:00005ed8       __STRLITPACK_26.0.5        005a2ed8     deltares_common:timers.obj
 0003:00005ee0       __STRLITPACK_27.0.5        005a2ee0     deltares_common:timers.obj
 0003:00005ee8       _2il0floatpacket.0         005a2ee8     deltares_common:timers.obj
 0003:00005ef0       _2il0floatpacket.1         005a2ef0     deltares_common:timers.obj
 0003:00005ef8       __STRLITPACK_13            005a2ef8     deltares_common:timers.obj
 0003:00005f34       __STRLITPACK_12            005a2f34     deltares_common:timers.obj
 0003:00005f3c       __STRLITPACK_11            005a2f3c     deltares_common:timers.obj
 0003:00005f44       __STRLITPACK_10            005a2f44     deltares_common:timers.obj
 0003:00005f54       __STRLITPACK_6             005a2f54     deltares_common:timers.obj
 0003:00005f90       __STRLITPACK_22            005a2f90     deltares_common:timers.obj
 0003:00005fc8       __STRLITPACK_20            005a2fc8     deltares_common:timers.obj
 0003:00005fe8       Eqres.4033.0.8             005a2fe8     libifcoremt:for_f90str.obj
 0003:00005ff0       .2.26_2.switchtab.5        005a2ff0     libifcoremt:for_f90str.obj
 0003:00006008       .2.3_2.switchtab.8         005a3008     libifcoremt:for_inquire.obj
 0003:00006018       .2.3_2.switchtab.9         005a3018     libifcoremt:for_inquire.obj
 0003:00006028       .2.3_2.switchtab.10        005a3028     libifcoremt:for_inquire.obj
 0003:0000603c       .2.3_2.switchtab.11        005a303c     libifcoremt:for_inquire.obj
 0003:0000604c       .2.3_2.switchtab.12        005a304c     libifcoremt:for_inquire.obj
 0003:00006068       .2.3_2.switchtab.13        005a3068     libifcoremt:for_inquire.obj
 0003:00006078       .2.3_2.switchtab.14        005a3078     libifcoremt:for_inquire.obj
 0003:00006094       .2.3_2.switchtab.15        005a3094     libifcoremt:for_inquire.obj
 0003:000060b0       .2.3_2.switchtab.16        005a30b0     libifcoremt:for_inquire.obj
 0003:000060c0       .2.3_2.switchtab.17        005a30c0     libifcoremt:for_inquire.obj
 0003:000060d0       .2.3_2.switchtab.18        005a30d0     libifcoremt:for_inquire.obj
 0003:000060ec       .2.3_2.switchtab.19        005a30ec     libifcoremt:for_inquire.obj
 0003:000062c0       key_round.4716.0.8         005a32c0     libifcoremt:for_open.obj
 0003:00006320       key_share.4716.0.8         005a3320     libifcoremt:for_open.obj
 0003:00006380       key_convert.4716.0.8       005a3380     libifcoremt:for_open.obj
 0003:00006400       key_status.4716.0.8        005a3400     libifcoremt:for_open.obj
 0003:00006460       key_recordtype.4716.0.8    005a3460     libifcoremt:for_open.obj
 0003:000064c0       key_dispose.4716.0.8       005a34c0     libifcoremt:for_open.obj
 0003:00006520       key_access.4716.0.8        005a3520     libifcoremt:for_open.obj
 0003:00006580       for_special_device_table.5103.0.15 005a3580     libifcoremt:for_open.obj
 0003:00006690       key_encoding.4716.0.8      005a3690     libifcoremt:for_open.obj
 0003:000066b4       key_sign.4716.0.8          005a36b4     libifcoremt:for_open.obj
 0003:000066e4       key_decimal.4716.0.8       005a36e4     libifcoremt:for_open.obj
 0003:00006708       key_asynch.4716.0.8        005a3708     libifcoremt:for_open.obj
 0003:0000672c       key_buffered.4716.0.8      005a372c     libifcoremt:for_open.obj
 0003:00006750       key_mode.4716.0.8          005a3750     libifcoremt:for_open.obj
 0003:00006780       key_position.4716.0.8      005a3780     libifcoremt:for_open.obj
 0003:000067b0       key_pad.4716.0.8           005a37b0     libifcoremt:for_open.obj
 0003:000067d4       key_delim.4716.0.8         005a37d4     libifcoremt:for_open.obj
 0003:00006804       key_action.4716.0.8        005a3804     libifcoremt:for_open.obj
 0003:00006834       key_organization.4716.0.8  005a3834     libifcoremt:for_open.obj
 0003:00006864       key_form.4716.0.8          005a3864     libifcoremt:for_open.obj
 0003:00006894       key_carriage.4716.0.8      005a3894     libifcoremt:for_open.obj
 0003:000068c4       key_blank.4716.0.8         005a38c4     libifcoremt:for_open.obj
 0003:00006900       .2.37_2.switchtab.79       005a3900     libifcoremt:for_open.obj
 0003:000069ac       .2.37_2.switchtab.80       005a39ac     libifcoremt:for_open.obj
 0003:00006a00       .2.38_2.switchtab.40       005a3a00     libifcoremt:for_open.obj
 0003:00006a08       .2.38_2.switchtab.41       005a3a08     libifcoremt:for_open.obj
 0003:00006a10       .2.38_2.switchtab.42       005a3a10     libifcoremt:for_open.obj
 0003:00006a44       .2.39_2.switchtab.16       005a3a44     libifcoremt:for_open.obj
 0003:00006a50       .2.40_2.switchtab.5        005a3a50     libifcoremt:for_open.obj
 0003:00006aa4       .2.45_2.switchtab.2        005a3aa4     libifcoremt:for_open.obj
 0003:00006ad8       .2.46_2.switchtab.4        005a3ad8     libifcoremt:for_open.obj
 0003:00006d80       .2.11_2.switchtab.22       005a3d80     libifcoremt:for_rseq_fmt.obj
 0003:00006d88       .2.11_2.switchtab.23       005a3d88     libifcoremt:for_rseq_fmt.obj
 0003:00006d98       .2.11_2.switchtab.24       005a3d98     libifcoremt:for_rseq_fmt.obj
 0003:00006da8       .2.12_2.switchtab.3        005a3da8     libifcoremt:for_rseq_fmt.obj
 0003:00006de0       .2.12_2.switchtab.4        005a3de0     libifcoremt:for_rseq_fmt.obj
 0003:00006e20       .2.12_2.switchtab.5        005a3e20     libifcoremt:for_rseq_fmt.obj
 0003:00006e30       .2.12_2.switchtab.6        005a3e30     libifcoremt:for_rseq_fmt.obj
 0003:00006e40       .2.12_2.switchtab.7        005a3e40     libifcoremt:for_rseq_fmt.obj
 0003:00006e64       .2.10_2.switchtab.6        005a3e64     libifcoremt:for_stop.obj
 0003:00006e6c       .2.10_2.switchtab.7        005a3e6c     libifcoremt:for_stop.obj
 0003:00006e98       .2.11_2.switchtab.20       005a3e98     libifcoremt:for_wseq_fmt.obj
 0003:00006ea0       .2.11_2.switchtab.21       005a3ea0     libifcoremt:for_wseq_fmt.obj
 0003:00006ea8       .2.12_2.switchtab.3        005a3ea8     libifcoremt:for_wseq_fmt.obj
 0003:00006ee0       .2.12_2.switchtab.4        005a3ee0     libifcoremt:for_wseq_fmt.obj
 0003:00006ee8       .2.12_2.switchtab.5        005a3ee8     libifcoremt:for_wseq_fmt.obj
 0003:00006f2c       .2.12_2.switchtab.6        005a3f2c     libifcoremt:for_wseq_fmt.obj
 0003:00006f44       .2.13_2.switchtab.3        005a3f44     libifcoremt:for_contig_array.obj
 0003:00006f54       .2.13_2.switchtab.4        005a3f54     libifcoremt:for_contig_array.obj
 0003:00006f74       .2.13_2.switchtab.5        005a3f74     libifcoremt:for_contig_array.obj
 0003:00006f94       .2.13_2.switchtab.6        005a3f94     libifcoremt:for_contig_array.obj
 0003:00006fb4       .2.13_2.switchtab.7        005a3fb4     libifcoremt:for_contig_array.obj
 0003:00006fd4       .2.13_2.switchtab.8        005a3fd4     libifcoremt:for_contig_array.obj
 0003:00006ff4       .2.13_2.switchtab.9        005a3ff4     libifcoremt:for_contig_array.obj
 0003:00007014       .2.13_2.switchtab.10       005a4014     libifcoremt:for_contig_array.obj
 0003:00007034       .2.15_2.switchtab.3        005a4034     libifcoremt:for_contig_array.obj
 0003:00007044       .2.15_2.switchtab.4        005a4044     libifcoremt:for_contig_array.obj
 0003:00007064       .2.15_2.switchtab.5        005a4064     libifcoremt:for_contig_array.obj
 0003:00007084       .2.15_2.switchtab.6        005a4084     libifcoremt:for_contig_array.obj
 0003:000070a4       .2.15_2.switchtab.7        005a40a4     libifcoremt:for_contig_array.obj
 0003:000070c4       .2.15_2.switchtab.8        005a40c4     libifcoremt:for_contig_array.obj
 0003:000070e4       .2.15_2.switchtab.9        005a40e4     libifcoremt:for_contig_array.obj
 0003:00007104       .2.15_2.switchtab.10       005a4104     libifcoremt:for_contig_array.obj
 0003:00007124       .2.14_2.switchtab.13       005a4124     libifcoremt:for_wseq_lis.obj
 0003:0000712c       .2.15_2.switchtab.7        005a412c     libifcoremt:for_wseq_lis.obj
 0003:00007134       .2.15_2.switchtab.8        005a4134     libifcoremt:for_wseq_lis.obj
 0003:0000719c       .2.15_2.switchtab.9        005a419c     libifcoremt:for_wseq_lis.obj
 0003:000071a4       .2.15_2.switchtab.10       005a41a4     libifcoremt:for_wseq_lis.obj
 0003:000071ac       .2.15_2.switchtab.11       005a41ac     libifcoremt:for_wseq_lis.obj
 0003:000071b4       .2.15_2.switchtab.12       005a41b4     libifcoremt:for_wseq_lis.obj
 0003:000071bc       .2.15_2.switchtab.13       005a41bc     libifcoremt:for_wseq_lis.obj
 0003:000071c4       .2.15_2.switchtab.14       005a41c4     libifcoremt:for_wseq_lis.obj
 0003:000071cc       .2.15_2.switchtab.15       005a41cc     libifcoremt:for_wseq_lis.obj
 0003:000071d4       .2.16_2.switchtab.4        005a41d4     libifcoremt:for_wseq_lis.obj
 0003:000071dc       .2.16_2.switchtab.5        005a41dc     libifcoremt:for_wseq_lis.obj
 0003:000071e4       .2.16_2.switchtab.6        005a41e4     libifcoremt:for_wseq_lis.obj
 0003:00007208       .2.21_2.switchtab.7        005a4208     libifcoremt:for_wseq.obj
 0003:00007210       .2.22_2.switchtab.9        005a4210     libifcoremt:for_wseq.obj
 0003:00007218       .2.22_2.switchtab.10       005a4218     libifcoremt:for_wseq.obj
 0003:0000722c       .2.22_2.switchtab.11       005a422c     libifcoremt:for_wseq.obj
 0003:0000723c       .2.22_2.switchtab.12       005a423c     libifcoremt:for_wseq.obj
 0003:0000724c       .2.22_2.switchtab.13       005a424c     libifcoremt:for_wseq.obj
 0003:00007254       .2.26_2.switchtab.15       005a4254     libifcoremt:for_wseq.obj
 0003:00007264       .2.27_2.switchtab.1        005a4264     libifcoremt:for_wseq.obj
 0003:0000726c       .2.27_2.switchtab.2        005a426c     libifcoremt:for_wseq.obj
 0003:00007280       .2.5_2.switchtab.5         005a4280     libifcoremt:for_wint_fmt.obj
 0003:00007288       .2.6_2.switchtab.3         005a4288     libifcoremt:for_wint_fmt.obj
 0003:000072c0       .2.6_2.switchtab.4         005a42c0     libifcoremt:for_wint_fmt.obj
 0003:0000735c       .2.22_2.switchtab.5        005a435c     libifcoremt:for_rseq_lis.obj
 0003:00007364       .2.22_2.switchtab.6        005a4364     libifcoremt:for_rseq_lis.obj
 0003:000073cc       .2.24_2.switchtab.4        005a43cc     libifcoremt:for_rseq_lis.obj
 0003:000073dc       .2.25_2.switchtab.4        005a43dc     libifcoremt:for_rseq_lis.obj
 0003:000074b4       .2.26_2.switchtab.1        005a44b4     libifcoremt:for_rseq_lis.obj
 0003:000074f0       .2.26_2.switchtab.2        005a44f0     libifcoremt:for_rseq_lis.obj
 0003:000075c4       .2.26_2.switchtab.3        005a45c4     libifcoremt:for_rseq_lis.obj
 0003:00007620       _2il0floatpacket.4         005a4620     libifcoremt:for_secnds.obj
 0003:00007630       _2il0floatpacket.6         005a4630     libifcoremt:for_secnds.obj
 0003:00007640       _2il0floatpacket.7         005a4640     libifcoremt:for_secnds.obj
 0003:00007650       _2il0floatpacket.8         005a4650     libifcoremt:for_secnds.obj
 0003:00007660       _2il0floatpacket.13        005a4660     libifcoremt:for_secnds.obj
 0003:00007670       _2il0floatpacket.14        005a4670     libifcoremt:for_secnds.obj
 0003:00007680       _2il0floatpacket.18        005a4680     libifcoremt:for_secnds.obj
 0003:00007690       _2il0floatpacket.2         005a4690     libifcoremt:for_secnds.obj
 0003:00007698       _2il0floatpacket.5         005a4698     libifcoremt:for_secnds.obj
 0003:000076a0       _2il0floatpacket.9         005a46a0     libifcoremt:for_secnds.obj
 0003:000076a8       _2il0floatpacket.10        005a46a8     libifcoremt:for_secnds.obj
 0003:000076b0       _2il0floatpacket.12        005a46b0     libifcoremt:for_secnds.obj
 0003:000076b8       _2il0floatpacket.15        005a46b8     libifcoremt:for_secnds.obj
 0003:000076c0       _2il0floatpacket.16        005a46c0     libifcoremt:for_secnds.obj
 0003:000076c8       _2il0floatpacket.3         005a46c8     libifcoremt:for_secnds.obj
 0003:000076cc       _2il0floatpacket.11        005a46cc     libifcoremt:for_secnds.obj
 0003:000076d0       _2il0floatpacket.17        005a46d0     libifcoremt:for_secnds.obj
 0003:00007714       .2.31_2.switchtab.2        005a4714     libifcoremt:for_lub_mgt.obj
 0003:00007744       .2.31_2.switchtab.3        005a4744     libifcoremt:for_lub_mgt.obj
 0003:00007780       mask.4337.0.2              005a4780     libifcoremt:for_need_lf.obj
 0003:000077e4       .2.50_2.switchtab.5        005a47e4     libifcoremt:for_init.obj
 0003:000078c8       .2.50_2.switchtab.6        005a48c8     libifcoremt:for_init.obj
 0003:00007980       lf_units.4057.0.6          005a4980     libifcoremt:for_diags_intel.obj
 0003:0000ce4c       .2.5_2.switchtab.3         005a9e4c     libifcoremt:for_common_inquire.obj
 0003:0000ce5c       .2.5_2.switchtab.4         005a9e5c     libifcoremt:for_common_inquire.obj
 0003:0000ce6c       .2.5_2.switchtab.5         005a9e6c     libifcoremt:for_common_inquire.obj
 0003:0000ce7c       .2.5_2.switchtab.6         005a9e7c     libifcoremt:for_common_inquire.obj
 0003:0000ce8c       .2.5_2.switchtab.7         005a9e8c     libifcoremt:for_common_inquire.obj
 0003:0000ce9c       .2.5_2.switchtab.8         005a9e9c     libifcoremt:for_common_inquire.obj
 0003:0000ceac       .2.5_2.switchtab.9         005a9eac     libifcoremt:for_common_inquire.obj
 0003:0000cebc       .2.6_2.switchtab.4         005a9ebc     libifcoremt:for_common_inquire.obj
 0003:0000cfa0       .2.17_2.switchtab.2        005a9fa0     libifcoremt:for_nt_open_proc.obj
 0003:0000cfa8       .2.18_2.switchtab.4        005a9fa8     libifcoremt:for_nt_open_proc.obj
 0003:0000cfb4       .2.19_2.switchtab.3        005a9fb4     libifcoremt:for_nt_open_proc.obj
 0003:0000cfbc       .2.20_2.switchtab.6        005a9fbc     libifcoremt:for_nt_open_proc.obj
 0003:0000cfc4       .2.20_2.switchtab.7        005a9fc4     libifcoremt:for_nt_open_proc.obj
 0003:0000cfcc       .2.20_2.switchtab.8        005a9fcc     libifcoremt:for_nt_open_proc.obj
 0003:0000cfd4       .2.20_2.switchtab.9        005a9fd4     libifcoremt:for_nt_open_proc.obj
 0003:0000cfe0       .2.20_2.switchtab.10       005a9fe0     libifcoremt:for_nt_open_proc.obj
 0003:0000cfe8       .2.20_2.switchtab.11       005a9fe8     libifcoremt:for_nt_open_proc.obj
 0003:0000cff4       .2.20_2.switchtab.12       005a9ff4     libifcoremt:for_nt_open_proc.obj
 0003:0000d12c       .2.15_2.switchtab.1        005aa12c     libifcoremt:for_put.obj
 0003:0000d13c       .2.17_2.switchtab.1        005aa13c     libifcoremt:for_put.obj
 0003:0000d14c       .2.17_2.switchtab.2        005aa14c     libifcoremt:for_put.obj
 0003:0000d260       .2.11_2.switchtab.4        005aa260     libifcoremt:for_desc_item.obj
 0003:0000d2a0       _class_table               005aa2a0     libifcoremt:for_fmt_comp.obj
 0003:0000d300       _fmt_check                 005aa300     libifcoremt:for_fmt_comp.obj
 0003:0000d400       .2.5_2.switchtab.3         005aa400     libifcoremt:for_fmt_comp.obj
 0003:0000d454       .2.5_2.switchtab.4         005aa454     libifcoremt:for_fmt_comp.obj
 0003:0000d47c       .2.13_2.switchtab.3        005aa47c     libifcoremt:for_get.obj
 0003:0000d4a0       _fmt_cat                   005aa4a0     libifcoremt:for_intrp_fmt.obj
 0003:0000d9e0       _coerce_integer_to_float   005aa9e0     libifcoremt:for_intrp_fmt.obj
 0003:0000da40       _coerce_floating_to_integer 005aaa40     libifcoremt:for_intrp_fmt.obj
 0003:0000daa0       .2.5_2.switchtab.33        005aaaa0     libifcoremt:for_intrp_fmt.obj
 0003:0000daac       .2.5_2.switchtab.34        005aaaac     libifcoremt:for_intrp_fmt.obj
 0003:0000dbc0       _forfloat_to_cvtfloat      005aabc0     libifcoremt:for_io_util.obj
 0003:0000dc40       _cvt_read_routine          005aac40     libifcoremt:for_io_util.obj
 0003:0000dd20       _cvt_write_routine         005aad20     libifcoremt:for_io_util.obj
 0003:0000de04       extended_options.4417.0.0.5 005aae04     libifcoremt:for_fmt_val.obj
 0003:0000de0c       extended_options.4582.0.0.6 005aae0c     libifcoremt:for_fmt_val.obj
 0003:0000de14       .2.13_2.switchtab.3        005aae14     libifcoremt:for_fmt_val.obj
 0003:0000de60       .2.13_2.switchtab.4        005aae60     libifcoremt:for_fmt_val.obj
 0003:0000dec8       .2.13_2.switchtab.5        005aaec8     libifcoremt:for_fmt_val.obj
 0003:0000df30       .2.13_2.switchtab.6        005aaf30     libifcoremt:for_fmt_val.obj
 0003:0000df98       .2.13_2.switchtab.7        005aaf98     libifcoremt:for_fmt_val.obj
 0003:0000dfb4       .2.13_2.switchtab.8        005aafb4     libifcoremt:for_fmt_val.obj
 0003:0000dfc4       .2.13_2.switchtab.9        005aafc4     libifcoremt:for_fmt_val.obj
 0003:0000dffc       .2.13_2.switchtab.10       005aaffc     libifcoremt:for_fmt_val.obj
 0003:0000e034       .2.13_2.switchtab.11       005ab034     libifcoremt:for_fmt_val.obj
 0003:0000e06c       .2.14_2.switchtab.81       005ab06c     libifcoremt:for_fmt_val.obj
 0003:0000e0b0       .2.14_2.switchtab.82       005ab0b0     libifcoremt:for_fmt_val.obj
 0003:0000e0e4       .2.14_2.switchtab.83       005ab0e4     libifcoremt:for_fmt_val.obj
 0003:0000e118       .2.14_2.switchtab.84       005ab118     libifcoremt:for_fmt_val.obj
 0003:0000e14c       .2.14_2.switchtab.85       005ab14c     libifcoremt:for_fmt_val.obj
 0003:0000e168       .2.14_2.switchtab.86       005ab168     libifcoremt:for_fmt_val.obj
 0003:0000e178       .2.14_2.switchtab.87       005ab178     libifcoremt:for_fmt_val.obj
 0003:0000e1b0       _for__default_name_str     005ab1b0     libifcoremt:for_close_proc.obj
 0003:0000e1bc       .2.7_2.switchtab.10        005ab1bc     libifcoremt:for_close_proc.obj
 0003:0000ea60       _cvt_uint64_max            005aba60     libifcoremt:cvt_text_to_int.obj
 0003:0000ea68       _cvt_int64_max             005aba68     libifcoremt:cvt_text_to_int.obj
 0003:0000ea70       .2.23_2.switchtab.3        005aba70     libifcoremt:cvt_ieee_single.obj
 0003:0000ea84       .2.26_2.switchtab.3        005aba84     libifcoremt:cvt_ieee_single.obj
 0003:0000ea98       .2.32_2.switchtab.3        005aba98     libifcoremt:cvt_ieee_double.obj
 0003:0000eaac       .2.35_2.switchtab.3        005abaac     libifcoremt:cvt_ieee_double.obj
 0003:0000eac0       .2.38_2.switchtab.3        005abac0     libifcoremt:cvt_ieee_double.obj
 0003:0000ead4       .2.41_2.switchtab.3        005abad4     libifcoremt:cvt_ieee_double.obj
 0003:0000eae8       .2.8_2.switchtab.3         005abae8     libifcoremt:cvt_vax_f.obj
 0003:0000eafc       .2.8_2.switchtab.3         005abafc     libifcoremt:cvt_ibm_short.obj
 0003:0000eb10       .2.8_2.switchtab.3         005abb10     libifcoremt:cvt_vax_g.obj
 0003:0000eb24       .2.8_2.switchtab.3         005abb24     libifcoremt:cvt_vax_d.obj
 0003:0000eb38       .2.8_2.switchtab.3         005abb38     libifcoremt:cvt_ibm_long.obj
 0003:0000eb4c       .2.17_2.switchtab.3        005abb4c     libifcoremt:cvt_cray.obj
 0003:0000eb74       extended_options.179.0.0.1 005abb74     libifcoremt:cvt_log_to_text.obj
 0003:0000eb7c       extended_options.708.0.0.5 005abb7c     libifcoremt:cvt_cvtas_x.obj
 0003:0000eb90       extended_options.703.0.0.5 005abb90     libifcoremt:cvt_cvtas_t.obj
 0003:0000eb98       extended_options.703.0.0.5 005abb98     libifcoremt:cvt_cvtas_s.obj
 0003:0000ed74       .2.3_2.switchtab.16        005abd74     libifcoremt:cvtas_a_to_x.obj
 0003:0000ee54       .2.3_2.switchtab.17        005abe54     libifcoremt:cvtas_a_to_x.obj
 0003:0000eeb0       _2il0floatpacket.9         005abeb0     libifcoremt:cvtas_a_to_t.obj
 0003:0000eec0       .2.3_2.switchtab.12        005abec0     libifcoremt:cvtas_a_to_t.obj
 0003:0000efa0       .2.3_2.switchtab.13        005abfa0     libifcoremt:cvtas_a_to_t.obj
 0003:0000f000       _2il0floatpacket.2         005ac000     libifcoremt:cvtas_a_to_s.obj
 0003:0000f010       .2.3_2.switchtab.12        005ac010     libifcoremt:cvtas_a_to_s.obj
 0003:0000f0f0       .2.3_2.switchtab.13        005ac0f0     libifcoremt:cvtas_a_to_s.obj
 0003:00010240       _static_const_table        005ad240     libmmt:expf_sse2.obj
 0003:00010a80       _static_const_table        005ada80     libmmt:atan2f_sse2.obj
 0003:00011040       _static_const_table        005ae040     libmmt:powf_sse2.obj
 0003:00011680       _static_const_table        005ae680     libmmt:logf_sse2.obj
 0003:00011ec0       _static_const_table        005aeec0     libmmt:cbrtf_sse2.obj
 0003:000122a0       _static_const_table        005af2a0     libmmt:sin_sse2.obj
 0003:00012ba0       _static_const_table        005afba0     libmmt:exp2f_sse2.obj
 0003:000133e0       _static_const_table        005b03e0     libmmt:sincosf_sse2.obj
 0003:000139a0       __SP                       005b09a0     libmmt:libm_sincos_huge.obj
 0003:00013a20       __CP                       005b0a20     libmmt:libm_sincos_huge.obj
 0003:00013aa0       __Pi4Inv                   005b0aa0     libmmt:libm_sincos_huge.obj
 0003:00013ab0       __Pi4x3                    005b0ab0     libmmt:libm_sincos_huge.obj
 0003:00013ad0       __Pi4x4                    005b0ad0     libmmt:libm_sincos_huge.obj
 0003:00013af0       __ones                     005b0af0     libmmt:libm_sincos_huge.obj
 0003:00013b00       ___4onpi_31l               005b0b00     libmmt:libm_reduce_pi04l.obj
 0003:00015d00       _zero_none                 005b2d00     libmmt:libm_reduce_pi04l.obj
 0003:00015d10       ___4onpi_d                 005b2d10     libmmt:libm_reduce_pi04l.obj
 0003:00015d18       __pi04_3d                  005b2d18     libmmt:libm_reduce_pi04l.obj
 0003:00015d30       __TWO_32H                  005b2d30     libmmt:libm_reduce_pi04l.obj
 0003:00015d38       __pi04_5d                  005b2d38     libmmt:libm_reduce_pi04l.obj
 0003:00015d60       __SCALE                    005b2d60     libmmt:libm_reduce_pi04l.obj
 0003:00015d68       __zeros                    005b2d68     libmmt:libm_reduce_pi04l.obj
 0003:00015d78       __pi04_2d                  005b2d78     libmmt:libm_reduce_pi04l.obj
 0003:00015d88       __TWO_12H                  005b2d88     libmmt:libm_reduce_pi04l.obj
 0003:00015ef0       _d_zero                    005b2ef0     libirc:q2ints.obj
 0003:00015ef8       _d_one                     005b2ef8     libirc:q2ints.obj
 0003:00015f00       _d_norm                    005b2f00     libirc:q2ints.obj
 0003:00015f10       _QNaNIndefiniteq           005b2f10     libirc:ia32_divq.obj
 0003:00015f20       _d_one                     005b2f20     libirc:ia32_divq.obj
 0003:00015f28       _d_norm                    005b2f28     libirc:ia32_divq.obj
 0003:00015f30       _d_huge                    005b2f30     libirc:ia32_divq.obj
 0003:00015f38       _d_half                    005b2f38     libirc:ia32_divq.obj
 0003:00015f40       _d_zero                    005b2f40     libirc:ia32_divq.obj
 0003:00015f48       _d_tiny                    005b2f48     libirc:ia32_divq.obj
 0003:00015f50       __infsq                    005b2f50     libirc:ia32_divq.obj
 0003:00015f70       __maxnumq                  005b2f70     libirc:ia32_divq.obj
 0003:00015f90       __zerosq                   005b2f90     libirc:ia32_divq.obj
 0003:00015fb0       _QNaNIndefiniteq           005b2fb0     libirc:ia32_addsubq.obj
 0003:00015fc0       _d_one                     005b2fc0     libirc:ia32_addsubq.obj
 0003:00015fc8       _d_norm                    005b2fc8     libirc:ia32_addsubq.obj
 0003:00015fd0       _d_huge                    005b2fd0     libirc:ia32_addsubq.obj
 0003:00015fd8       _d_tiny                    005b2fd8     libirc:ia32_addsubq.obj
 0003:00015fe0       _d_zero                    005b2fe0     libirc:ia32_addsubq.obj
 0003:00015fe8       __infsq                    005b2fe8     libirc:ia32_addsubq.obj
 0003:00016008       __maxnumq                  005b3008     libirc:ia32_addsubq.obj
 0003:00016028       __zerosq                   005b3028     libirc:ia32_addsubq.obj
 0003:00016050       _d_zero                    005b3050     libirc:qcomp.obj
 0003:00016058       ___l_one                   005b3058     libirc:fp2q.obj
 0003:00016068       _d_tiny                    005b3068     libirc:q2fp.obj
 0003:00016070       _d_one                     005b3070     libirc:q2fp.obj
 0003:00016078       _d_huge                    005b3078     libirc:q2fp.obj
 0003:00016080       _d_norm                    005b3080     libirc:q2fp.obj
 0003:00016088       _d_zero                    005b3088     libirc:q2fp.obj
 0003:00016480       _irc_msgtab                005b3480     libirc:irc_msg_support.obj
 0003:000173ac       __sehtable._tbk_trace_stack_impl 005b43ac     libirc:tbk_backtrace.obj
 0003:000173b8       _tbk__default_unknown      005b43b8     libirc:tbk_backtrace.obj
 0003:000173c0       .2.33_2.switchtab.16       005b43c0     libirc:tbk_backtrace.obj
 0003:0001740c       ___svml_atan2_dispatch_table 005b440c     svml_dispmt:svml_d_atan2_iface_la.obj
 0003:0001743c       ___svml_atan2_mask_dispatch_table 005b443c     svml_dispmt:svml_d_atan2_maskiface_la.obj
 0003:0001746c       ___svml_roundf4_dispatch_table 005b446c     svml_dispmt:svml_s_roundf4_iface_la.obj
 0003:000174a0       _static_const_table        005b44a0     svml_dispmt:svml_d_atan2_core_w7la.obj
 0003:00017640       _static_const_table        005b4640     svml_dispmt:svml_d_atan2_core_t7la.obj
 0003:000177c0       _static_const_table        005b47c0     svml_dispmt:svml_d_atan2_core_n9la.obj
 0003:00017940       _static_const_table        005b4940     svml_dispmt:svml_s_roundf4_core_a6la.obj
 0003:00017980       _static_const_table        005b4980     svml_dispmt:svml_s_roundf4_core_w7la.obj
 0003:000179c0       _static_const_table        005b49c0     svml_dispmt:svml_s_roundf4_core_n9la.obj
 0003:00017b00       __STRLITPACK_165.0.4       005b4b00     part_data_f:alloc.obj
 0003:00017b08       __STRLITPACK_166.0.4       005b4b08     part_data_f:alloc.obj
 0003:00017b10       __STRLITPACK_167.0.4       005b4b10     part_data_f:alloc.obj
 0003:00017b18       __STRLITPACK_168.0.4       005b4b18     part_data_f:alloc.obj
 0003:00017b20       __STRLITPACK_169.0.4       005b4b20     part_data_f:alloc.obj
 0003:00017b28       __STRLITPACK_170.0.4       005b4b28     part_data_f:alloc.obj
 0003:00017b30       __STRLITPACK_171.0.4       005b4b30     part_data_f:alloc.obj
 0003:00017b38       __STRLITPACK_172.0.4       005b4b38     part_data_f:alloc.obj
 0003:00017b40       __STRLITPACK_173.0.4       005b4b40     part_data_f:alloc.obj
 0003:00017b48       __STRLITPACK_174.0.4       005b4b48     part_data_f:alloc.obj
 0003:00017b50       __STRLITPACK_175.0.5       005b4b50     part_data_f:alloc.obj
 0003:00017b58       __STRLITPACK_176.0.5       005b4b58     part_data_f:alloc.obj
 0003:00017b60       __STRLITPACK_177.0.5       005b4b60     part_data_f:alloc.obj
 0003:00017b68       __STRLITPACK_178.0.5       005b4b68     part_data_f:alloc.obj
 0003:00017b70       __STRLITPACK_179.0.5       005b4b70     part_data_f:alloc.obj
 0003:00017b78       __STRLITPACK_180.0.5       005b4b78     part_data_f:alloc.obj
 0003:00017b80       __STRLITPACK_181.0.5       005b4b80     part_data_f:alloc.obj
 0003:00017b88       __STRLITPACK_182.0.5       005b4b88     part_data_f:alloc.obj
 0003:00017b90       __STRLITPACK_183.0.5       005b4b90     part_data_f:alloc.obj
 0003:00017b98       __STRLITPACK_184.0.5       005b4b98     part_data_f:alloc.obj
 0003:00017ba0       __STRLITPACK_185.0.5       005b4ba0     part_data_f:alloc.obj
 0003:00017ba8       __STRLITPACK_186.0.6       005b4ba8     part_data_f:alloc.obj
 0003:00017bb0       __STRLITPACK_187.0.6       005b4bb0     part_data_f:alloc.obj
 0003:00017bb8       __STRLITPACK_188.0.6       005b4bb8     part_data_f:alloc.obj
 0003:00017bc0       __STRLITPACK_189.0.6       005b4bc0     part_data_f:alloc.obj
 0003:00017bc8       __STRLITPACK_190.0.6       005b4bc8     part_data_f:alloc.obj
 0003:00017bd0       __STRLITPACK_191.0.6       005b4bd0     part_data_f:alloc.obj
 0003:00017bd8       __STRLITPACK_192.0.6       005b4bd8     part_data_f:alloc.obj
 0003:00017be0       __STRLITPACK_193.0.6       005b4be0     part_data_f:alloc.obj
 0003:00017be8       __STRLITPACK_194.0.8       005b4be8     part_data_f:alloc.obj
 0003:00017bf0       __STRLITPACK_195.0.8       005b4bf0     part_data_f:alloc.obj
 0003:00017bf8       __STRLITPACK_196.0.8       005b4bf8     part_data_f:alloc.obj
 0003:00017c00       __STRLITPACK_197.0.8       005b4c00     part_data_f:alloc.obj
 0003:00017c08       __STRLITPACK_198.0.8       005b4c08     part_data_f:alloc.obj
 0003:00017c10       __STRLITPACK_199.0.8       005b4c10     part_data_f:alloc.obj
 0003:00017c18       __STRLITPACK_200.0.8       005b4c18     part_data_f:alloc.obj
 0003:00017c20       __STRLITPACK_201.0.8       005b4c20     part_data_f:alloc.obj
 0003:00017c28       __STRLITPACK_202.0.8       005b4c28     part_data_f:alloc.obj
 0003:00017c30       __STRLITPACK_203.0.8       005b4c30     part_data_f:alloc.obj
 0003:00017c38       __STRLITPACK_204.0.9       005b4c38     part_data_f:alloc.obj
 0003:00017c40       __STRLITPACK_205.0.9       005b4c40     part_data_f:alloc.obj
 0003:00017c48       __STRLITPACK_206.0.9       005b4c48     part_data_f:alloc.obj
 0003:00017c50       __STRLITPACK_207.0.9       005b4c50     part_data_f:alloc.obj
 0003:00017c58       __STRLITPACK_208.0.9       005b4c58     part_data_f:alloc.obj
 0003:00017c60       __STRLITPACK_209.0.9       005b4c60     part_data_f:alloc.obj
 0003:00017c68       __STRLITPACK_210.0.10      005b4c68     part_data_f:alloc.obj
 0003:00017c70       __STRLITPACK_211.0.10      005b4c70     part_data_f:alloc.obj
 0003:00017c78       __STRLITPACK_212.0.10      005b4c78     part_data_f:alloc.obj
 0003:00017c80       __STRLITPACK_213.0.10      005b4c80     part_data_f:alloc.obj
 0003:00017c88       __STRLITPACK_214.0.10      005b4c88     part_data_f:alloc.obj
 0003:00017c90       __STRLITPACK_215.0.10      005b4c90     part_data_f:alloc.obj
 0003:00017c98       __STRLITPACK_216.0.10      005b4c98     part_data_f:alloc.obj
 0003:00017ca0       __STRLITPACK_217.0.10      005b4ca0     part_data_f:alloc.obj
 0003:00017ca8       __STRLITPACK_218.0.10      005b4ca8     part_data_f:alloc.obj
 0003:00017cb0       __STRLITPACK_219.0.10      005b4cb0     part_data_f:alloc.obj
 0003:00017cb8       __STRLITPACK_220.0.10      005b4cb8     part_data_f:alloc.obj
 0003:00017cc0       __STRLITPACK_221.0.11      005b4cc0     part_data_f:alloc.obj
 0003:00017cc8       __STRLITPACK_222.0.11      005b4cc8     part_data_f:alloc.obj
 0003:00017cd0       __STRLITPACK_223.0.11      005b4cd0     part_data_f:alloc.obj
 0003:00017cd8       __STRLITPACK_224.0.11      005b4cd8     part_data_f:alloc.obj
 0003:00017ce0       __STRLITPACK_225.0.11      005b4ce0     part_data_f:alloc.obj
 0003:00017ce8       __STRLITPACK_226.0.11      005b4ce8     part_data_f:alloc.obj
 0003:00017cf0       __STRLITPACK_227.0.11      005b4cf0     part_data_f:alloc.obj
 0003:00017cf8       __STRLITPACK_228.0.11      005b4cf8     part_data_f:alloc.obj
 0003:00017d00       __STRLITPACK_229.0.11      005b4d00     part_data_f:alloc.obj
 0003:00017d08       __STRLITPACK_230.0.11      005b4d08     part_data_f:alloc.obj
 0003:00017d10       __STRLITPACK_231.0.11      005b4d10     part_data_f:alloc.obj
 0003:00017d18       __STRLITPACK_232.0.12      005b4d18     part_data_f:alloc.obj
 0003:00017d20       __STRLITPACK_233.0.12      005b4d20     part_data_f:alloc.obj
 0003:00017d28       __STRLITPACK_234.0.12      005b4d28     part_data_f:alloc.obj
 0003:00017d30       __STRLITPACK_235.0.12      005b4d30     part_data_f:alloc.obj
 0003:00017d38       __STRLITPACK_236.0.12      005b4d38     part_data_f:alloc.obj
 0003:00017d40       __STRLITPACK_237.0.12      005b4d40     part_data_f:alloc.obj
 0003:00017d48       __STRLITPACK_238.0.12      005b4d48     part_data_f:alloc.obj
 0003:00017d50       __STRLITPACK_239.0.12      005b4d50     part_data_f:alloc.obj
 0003:00017d58       __STRLITPACK_240.0.12      005b4d58     part_data_f:alloc.obj
 0003:00017d60       __STRLITPACK_241.0.13      005b4d60     part_data_f:alloc.obj
 0003:00017d68       __STRLITPACK_242.0.13      005b4d68     part_data_f:alloc.obj
 0003:00017d70       __STRLITPACK_243.0.13      005b4d70     part_data_f:alloc.obj
 0003:00017d78       __STRLITPACK_244.0.13      005b4d78     part_data_f:alloc.obj
 0003:00017d80       __STRLITPACK_245.0.13      005b4d80     part_data_f:alloc.obj
 0003:00017d88       __STRLITPACK_246.0.13      005b4d88     part_data_f:alloc.obj
 0003:00017d90       __STRLITPACK_158.0.3       005b4d90     part_data_f:alloc.obj
 0003:00017d94       __STRLITPACK_159.0.3       005b4d94     part_data_f:alloc.obj
 0003:00017d9c       __STRLITPACK_160.0.3       005b4d9c     part_data_f:alloc.obj
 0003:00017da4       __STRLITPACK_161.0.3       005b4da4     part_data_f:alloc.obj
 0003:00017dac       __STRLITPACK_162.0.3       005b4dac     part_data_f:alloc.obj
 0003:00017db4       __STRLITPACK_163.0.3       005b4db4     part_data_f:alloc.obj
 0003:00017dbc       __STRLITPACK_164.0.3       005b4dbc     part_data_f:alloc.obj
 0003:00017dc4       __STRLITPACK_155.0.2       005b4dc4     part_data_f:alloc.obj
 0003:00017dd4       __STRLITPACK_156.0.2       005b4dd4     part_data_f:alloc.obj
 0003:00017dd8       __STRLITPACK_157.0.2       005b4dd8     part_data_f:alloc.obj
 0003:00017ddc       __STRLITPACK_135           005b4ddc     part_data_f:alloc.obj
 0003:00017e08       __STRLITPACK_128           005b4e08     part_data_f:alloc.obj
 0003:00017e34       __STRLITPACK_123           005b4e34     part_data_f:alloc.obj
 0003:00017e60       __STRLITPACK_247.0.15      005b4e60     part_data_f:alloc.obj
 0003:00017e68       __STRLITPACK_83            005b4e68     part_data_f:alloc.obj
 0003:00017e80       __STRLITPACK_248.0.15      005b4e80     part_data_f:alloc.obj
 0003:00017e88       __STRLITPACK_79            005b4e88     part_data_f:alloc.obj
 0003:00017eb4       __STRLITPACK_249.0.15      005b4eb4     part_data_f:alloc.obj
 0003:00017ebc       __STRLITPACK_75            005b4ebc     part_data_f:alloc.obj
 0003:00017eec       __STRLITPACK_250.0.15      005b4eec     part_data_f:alloc.obj
 0003:00017ef4       __STRLITPACK_71            005b4ef4     part_data_f:alloc.obj
 0003:00017f24       __STRLITPACK_251.0.15      005b4f24     part_data_f:alloc.obj
 0003:00017f2c       __STRLITPACK_67            005b4f2c     part_data_f:alloc.obj
 0003:00017f44       __STRLITPACK_252.0.15      005b4f44     part_data_f:alloc.obj
 0003:00017f4c       __STRLITPACK_63            005b4f4c     part_data_f:alloc.obj
 0003:00017f78       __STRLITPACK_253.0.15      005b4f78     part_data_f:alloc.obj
 0003:00017f80       __STRLITPACK_59            005b4f80     part_data_f:alloc.obj
 0003:00017fac       __STRLITPACK_254.0.15      005b4fac     part_data_f:alloc.obj
 0003:00017fb4       __STRLITPACK_55            005b4fb4     part_data_f:alloc.obj
 0003:00017fe4       __STRLITPACK_54            005b4fe4     part_data_f:alloc.obj
 0003:00017ff8       __STRLITPACK_116           005b4ff8     part_data_f:alloc.obj
 0003:00018024       __STRLITPACK_111           005b5024     part_data_f:alloc.obj
 0003:00018050       __STRLITPACK_104           005b5050     part_data_f:alloc.obj
 0003:0001807c       __STRLITPACK_97            005b507c     part_data_f:alloc.obj
 0003:000180a8       __STRLITPACK_92            005b50a8     part_data_f:alloc.obj
 0003:000180d4       __STRLITPACK_87            005b50d4     part_data_f:alloc.obj
 0003:00018100       __STRLITPACK_154           005b5100     part_data_f:alloc.obj
 0003:00018120       _2il0floatpacket.5         005b5120     part_utils_f:normal_mod.obj
 0003:00018130       _2il0floatpacket.6         005b5130     part_utils_f:normal_mod.obj
 0003:00018140       _2il0floatpacket.7         005b5140     part_utils_f:normal_mod.obj
 0003:00018150       _2il0floatpacket.2         005b5150     part_utils_f:normal_mod.obj
 0003:00018158       _2il0floatpacket.3         005b5158     part_utils_f:normal_mod.obj
 0003:00018160       _2il0floatpacket.8         005b5160     part_utils_f:normal_mod.obj
 0003:00018168       _2il0floatpacket.9         005b5168     part_utils_f:normal_mod.obj
 0003:00018170       _2il0floatpacket.10        005b5170     part_utils_f:normal_mod.obj
 0003:00018178       _2il0floatpacket.11        005b5178     part_utils_f:normal_mod.obj
 0003:00018180       _2il0floatpacket.0         005b5180     part_utils_f:normal_mod.obj
 0003:00018184       _2il0floatpacket.1         005b5184     part_utils_f:normal_mod.obj
 0003:00018188       _2il0floatpacket.4         005b5188     part_utils_f:normal_mod.obj
 0003:00018190       __STRLITPACK_2.0.2         005b5190     part_utils_f:stop_exit.obj
 0003:00018198       __STRLITPACK_0             005b5198     part_utils_f:stop_exit.obj
 0003:000181d0       __STRLITPACK_3             005b51d0     part_utils_f:stop_exit.obj
 0003:000181d4       _2il0floatpacket.0         005b51d4     part_utils_f:part11.obj
 0003:000181d8       _2il0floatpacket.1         005b51d8     part_utils_f:part11.obj
 0003:000181dc       __STRLITPACK_0             005b51dc     part_utils_f:part11.obj
 0003:000181f0       __NLITPACK_0.0.3           005b51f0     part_utils_f:grid_search.obj
 0003:000181f4       __STRLITPACK_16.0.6        005b51f4     part_utils_f:grid_search.obj
 0003:000181fc       __STRLITPACK_17.0.6        005b51fc     part_utils_f:grid_search.obj
 0003:00018204       __STRLITPACK_18.0.6        005b5204     part_utils_f:grid_search.obj
 0003:0001820c       __STRLITPACK_19.0.6        005b520c     part_utils_f:grid_search.obj
 0003:00018214       __STRLITPACK_20.0.6        005b5214     part_utils_f:grid_search.obj
 0003:0001821c       __STRLITPACK_21.0.6        005b521c     part_utils_f:grid_search.obj
 0003:00018220       __STRLITPACK_22.0.6        005b5220     part_utils_f:grid_search.obj
 0003:00018228       __STRLITPACK_23.0.6        005b5228     part_utils_f:grid_search.obj
 0003:00018230       __STRLITPACK_24.0.6        005b5230     part_utils_f:grid_search.obj
 0003:00018234       __NLITPACK_1.0.6           005b5234     part_utils_f:grid_search.obj
 0003:00018238       __STRLITPACK_15.0.6        005b5238     part_utils_f:grid_search.obj
 0003:00018240       _2il0floatpacket.3         005b5240     part_utils_f:grid_search.obj
 0003:00018250       _2il0floatpacket.9         005b5250     part_utils_f:grid_search.obj
 0003:00018260       _2il0floatpacket.17        005b5260     part_utils_f:grid_search.obj
 0003:00018270       _2il0floatpacket.18        005b5270     part_utils_f:grid_search.obj
 0003:00018280       _2il0floatpacket.5         005b5280     part_utils_f:grid_search.obj
 0003:00018288       _2il0floatpacket.6         005b5288     part_utils_f:grid_search.obj
 0003:00018290       _2il0floatpacket.7         005b5290     part_utils_f:grid_search.obj
 0003:00018298       _2il0floatpacket.11        005b5298     part_utils_f:grid_search.obj
 0003:000182a0       _2il0floatpacket.12        005b52a0     part_utils_f:grid_search.obj
 0003:000182a8       _2il0floatpacket.13        005b52a8     part_utils_f:grid_search.obj
 0003:000182b0       _2il0floatpacket.14        005b52b0     part_utils_f:grid_search.obj
 0003:000182b8       _2il0floatpacket.15        005b52b8     part_utils_f:grid_search.obj
 0003:000182c0       _2il0floatpacket.16        005b52c0     part_utils_f:grid_search.obj
 0003:000182c8       _2il0floatpacket.0         005b52c8     part_utils_f:grid_search.obj
 0003:000182cc       _2il0floatpacket.1         005b52cc     part_utils_f:grid_search.obj
 0003:000182d0       _2il0floatpacket.2         005b52d0     part_utils_f:grid_search.obj
 0003:000182d4       _2il0floatpacket.4         005b52d4     part_utils_f:grid_search.obj
 0003:000182d8       __STRLITPACK_14            005b52d8     part_utils_f:grid_search.obj
 0003:000182e0       _2il0floatpacket.8         005b52e0     part_utils_f:grid_search.obj
 0003:000182e4       __STRLITPACK_12            005b52e4     part_utils_f:grid_search.obj
 0003:000182ec       _2il0floatpacket.10        005b52ec     part_utils_f:grid_search.obj
 0003:000182f0       __STRLITPACK_13            005b52f0     part_utils_f:grid_search.obj
 0003:000182fc       __STRLITPACK_11            005b52fc     part_utils_f:grid_search.obj
 0003:00018308       __STRLITPACK_9             005b5308     part_utils_f:grid_search.obj
 0003:00018310       __STRLITPACK_10            005b5310     part_utils_f:grid_search.obj
 0003:00018320       __STRLITPACK_5.0.1         005b5320     part_utils_f:SRSTOP.obj
 0003:00018328       __STRLITPACK_6.0.1         005b5328     part_utils_f:SRSTOP.obj
 0003:00018330       __STRLITPACK_7.0.1         005b5330     part_utils_f:SRSTOP.obj
 0003:00018338       __STRLITPACK_8.0.1         005b5338     part_utils_f:SRSTOP.obj
 0003:00018348       __STRLITPACK_9.0.1         005b5348     part_utils_f:SRSTOP.obj
 0003:00018350       __STRLITPACK_10.0.1        005b5350     part_utils_f:SRSTOP.obj
 0003:00018358       __STRLITPACK_3             005b5358     part_utils_f:SRSTOP.obj
 0003:00018374       __STRLITPACK_1             005b5374     part_utils_f:SRSTOP.obj
 0003:00018380       __STRLITPACK_0             005b5380     part_utils_f:SRSTOP.obj
 0003:0001838c       __STRLITPACK_18            005b538c     part_utils_f:SRSTOP.obj
 0003:00018390       __STRLITPACK_19            005b5390     part_utils_f:SRSTOP.obj
 0003:00018394       __STRLITPACK_20            005b5394     part_utils_f:SRSTOP.obj
 0003:00018398       __STRLITPACK_17            005b5398     part_utils_f:SRSTOP.obj
 0003:0001839c       __STRLITPACK_16            005b539c     part_utils_f:SRSTOP.obj
 0003:000183a0       __STRLITPACK_15            005b53a0     part_utils_f:SRSTOP.obj
 0003:000183a4       __STRLITPACK_14            005b53a4     part_utils_f:SRSTOP.obj
 0003:000183a8       __STRLITPACK_13            005b53a8     part_utils_f:SRSTOP.obj
 0003:000183ac       __STRLITPACK_12            005b53ac     part_utils_f:SRSTOP.obj
 0003:000183b0       __STRLITPACK_11            005b53b0     part_utils_f:SRSTOP.obj
 0003:000183b8       _2il0floatpacket.3         005b53b8     part_utils_f:pinpok.obj
 0003:000183c0       _2il0floatpacket.4         005b53c0     part_utils_f:pinpok.obj
 0003:000183c8       _2il0floatpacket.5         005b53c8     part_utils_f:pinpok.obj
 0003:000183d0       _2il0floatpacket.6         005b53d0     part_utils_f:pinpok.obj
 0003:000183d8       _2il0floatpacket.7         005b53d8     part_utils_f:pinpok.obj
 0003:000183e0       _2il0floatpacket.0         005b53e0     part_utils_f:pinpok.obj
 0003:000183e4       _2il0floatpacket.1         005b53e4     part_utils_f:pinpok.obj
 0003:000183e8       _2il0floatpacket.2         005b53e8     part_utils_f:pinpok.obj
 0003:000183ec       __STRLITPACK_0             005b53ec     part_utils_f:pinpok.obj
 0003:000183f8       _2il0floatpacket.0         005b53f8     part_utils_f:random_gen.obj
 0003:00018400       _2il0floatpacket.1         005b5400     part_utils_f:random_gen.obj
 0003:00018408       _2il0floatpacket.2         005b5408     part_utils_f:random_gen.obj
 0003:00018410       _2il0floatpacket.0         005b5410     part_utils_f:part11sp.obj
 0003:00018414       __STRLITPACK_0             005b5414     part_utils_f:part11sp.obj
 0003:00018420       _2il0floatpacket.3         005b5420     part_utils_f:boombounce.obj
 0003:00018430       _2il0floatpacket.1         005b5430     part_utils_f:boombounce.obj
 0003:00018438       _2il0floatpacket.2         005b5438     part_utils_f:boombounce.obj
 0003:00018440       _2il0floatpacket.0         005b5440     part_utils_f:boombounce.obj
 0003:00018444       __STRLITPACK_0             005b5444     part_utils_f:boombounce.obj
 0003:00018450       __STRLITPACK_9.0.2         005b5450     part_utils_f:wait.obj
 0003:00018458       __STRLITPACK_10.0.2        005b5458     part_utils_f:wait.obj
 0003:00018460       __STRLITPACK_8             005b5460     part_utils_f:wait.obj
 0003:00018468       __STRLITPACK_4             005b5468     part_utils_f:wait.obj
 0003:00018488       __STRLITPACK_0             005b5488     part_utils_f:wait.obj
 0003:00018490       __STRLITPACK_23.0.2        005b5490     part_utils_f:get_key.obj
 0003:00018498       __STRLITPACK_24.0.2        005b5498     part_utils_f:get_key.obj
 0003:000184a0       __STRLITPACK_25.0.2        005b54a0     part_utils_f:get_key.obj
 0003:000184a8       __STRLITPACK_26.0.2        005b54a8     part_utils_f:get_key.obj
 0003:000184b0       __STRLITPACK_27.0.3        005b54b0     part_utils_f:get_key.obj
 0003:000184b8       __STRLITPACK_28.0.3        005b54b8     part_utils_f:get_key.obj
 0003:000184c0       __STRLITPACK_29.0.3        005b54c0     part_utils_f:get_key.obj
 0003:000184c8       __STRLITPACK_30.0.3        005b54c8     part_utils_f:get_key.obj
 0003:000184d0       _2il0floatpacket.0         005b54d0     part_utils_f:get_key.obj
 0003:000184d8       __STRLITPACK_4             005b54d8     part_utils_f:get_key.obj
 0003:000184e8       __STRLITPACK_31.0.4        005b54e8     part_utils_f:get_key.obj
 0003:000184f0       __STRLITPACK_1             005b54f0     part_utils_f:get_key.obj
 0003:000184f4       __STRLITPACK_0             005b54f4     part_utils_f:get_key.obj
 0003:000184f8       __STRLITPACK_21            005b54f8     part_utils_f:get_key.obj
 0003:000184fc       __STRLITPACK_20            005b54fc     part_utils_f:get_key.obj
 0003:00018500       __STRLITPACK_15            005b5500     part_utils_f:get_key.obj
 0003:00018504       __STRLITPACK_14            005b5504     part_utils_f:get_key.obj
 0003:00018508       __STRLITPACK_22            005b5508     part_utils_f:get_key.obj
 0003:00018514       __STRLITPACK_12            005b5514     part_utils_f:get_key.obj
 0003:00018518       __STRLITPACK_11            005b5518     part_utils_f:get_key.obj
 0003:0001851c       __STRLITPACK_6             005b551c     part_utils_f:get_key.obj
 0003:00018520       __STRLITPACK_5             005b5520     part_utils_f:get_key.obj
 0003:00018524       __STRLITPACK_13            005b5524     part_utils_f:get_key.obj
 0003:00018538       _2il0floatpacket.0         005b5538     part_utils_f:get_index.obj
 0003:00018540       __STRLITPACK_0             005b5540     part_utils_f:get_index.obj
 0003:00018550       __STRLITPACK_4.0.1         005b5550     part_utils_f:skip_comments.obj
 0003:00018558       __STRLITPACK_0             005b5558     part_utils_f:skip_comments.obj
 0003:0001855c       __STRLITPACK_3             005b555c     part_utils_f:skip_comments.obj
 0003:00018570       __STRLITPACK_3.0.1         005b5570     part_utils_f:show_error.obj
 0003:00018578       __STRLITPACK_4.0.1         005b5578     part_utils_f:show_error.obj
 0003:00018580       __STRLITPACK_5.0.1         005b5580     part_utils_f:show_error.obj
 0003:00018588       __NLITPACK_0.0.1           005b5588     part_utils_f:show_error.obj
 0003:0001858c       __STRLITPACK_1             005b558c     part_utils_f:show_error.obj
 0003:000185b0       _2il0floatpacket.0         005b55b0     part_utils_f:lower_case.obj
 0003:000185c0       _2il0floatpacket.1         005b55c0     part_utils_f:lower_case.obj
 0003:000185d0       _2il0floatpacket.2         005b55d0     part_utils_f:lower_case.obj
 0003:000185e0       _2il0floatpacket.3         005b55e0     part_utils_f:lower_case.obj
 0003:000185f0       _2il0floatpacket.4         005b55f0     part_utils_f:lower_case.obj
 0003:00018600       __STRLITPACK_0             005b5600     part_utils_f:lower_case.obj
 0003:00018610       __STRLITPACK_2             005b5610     part_io_f:filtyp.obj
 0003:00018618       __STRLITPACK_27.0.1        005b5618     part_io_f:rdfnam.obj
 0003:00018628       __STRLITPACK_29.0.1        005b5628     part_io_f:rdfnam.obj
 0003:00018638       __STRLITPACK_30.0.1        005b5638     part_io_f:rdfnam.obj
 0003:00018640       __STRLITPACK_31.0.1        005b5640     part_io_f:rdfnam.obj
 0003:00018648       __STRLITPACK_32.0.1        005b5648     part_io_f:rdfnam.obj
 0003:00018650       __STRLITPACK_33.0.1        005b5650     part_io_f:rdfnam.obj
 0003:00018658       __STRLITPACK_34.0.1        005b5658     part_io_f:rdfnam.obj
 0003:00018668       __NLITPACK_1.0.1           005b5668     part_io_f:rdfnam.obj
 0003:0001866c       __STRLITPACK_35.0.1        005b566c     part_io_f:rdfnam.obj
 0003:00018674       __STRLITPACK_36.0.1        005b5674     part_io_f:rdfnam.obj
 0003:00018684       __STRLITPACK_46.0.1        005b5684     part_io_f:rdfnam.obj
 0003:0001868c       __STRLITPACK_47.0.1        005b568c     part_io_f:rdfnam.obj
 0003:00018694       __NLITPACK_0.0.1           005b5694     part_io_f:rdfnam.obj
 0003:00018698       __STRLITPACK_37.0.1        005b5698     part_io_f:rdfnam.obj
 0003:000186ac       __STRLITPACK_38.0.1        005b56ac     part_io_f:rdfnam.obj
 0003:000186b4       __STRLITPACK_39.0.1        005b56b4     part_io_f:rdfnam.obj
 0003:000186bc       __STRLITPACK_40.0.1        005b56bc     part_io_f:rdfnam.obj
 0003:000186c4       __STRLITPACK_41.0.1        005b56c4     part_io_f:rdfnam.obj
 0003:000186cc       __STRLITPACK_42.0.1        005b56cc     part_io_f:rdfnam.obj
 0003:000186d4       __STRLITPACK_43.0.1        005b56d4     part_io_f:rdfnam.obj
 0003:000186dc       __STRLITPACK_44.0.1        005b56dc     part_io_f:rdfnam.obj
 0003:000186e4       __STRLITPACK_45.0.1        005b56e4     part_io_f:rdfnam.obj
 0003:000186ec       __STRLITPACK_28.0.1        005b56ec     part_io_f:rdfnam.obj
 0003:000186f8       _2il0floatpacket.0         005b56f8     part_io_f:rdfnam.obj
 0003:00018700       _2il0floatpacket.1         005b5700     part_io_f:rdfnam.obj
 0003:00018708       _2il0floatpacket.2         005b5708     part_io_f:rdfnam.obj
 0003:00018710       __STRLITPACK_26            005b5710     part_io_f:rdfnam.obj
 0003:00018718       __STRLITPACK_25            005b5718     part_io_f:rdfnam.obj
 0003:00018720       __STRLITPACK_24            005b5720     part_io_f:rdfnam.obj
 0003:00018728       __STRLITPACK_23            005b5728     part_io_f:rdfnam.obj
 0003:00018730       __STRLITPACK_22            005b5730     part_io_f:rdfnam.obj
 0003:00018734       __STRLITPACK_21            005b5734     part_io_f:rdfnam.obj
 0003:00018738       __STRLITPACK_17            005b5738     part_io_f:rdfnam.obj
 0003:0001873c       __STRLITPACK_14            005b573c     part_io_f:rdfnam.obj
 0003:00018740       __STRLITPACK_5             005b5740     part_io_f:rdfnam.obj
 0003:00018764       __STRLITPACK_13            005b5764     part_io_f:rdfnam.obj
 0003:00018770       __STRLITPACK_11            005b5770     part_io_f:rdfnam.obj
 0003:00018780       __STRLITPACK_15.0.1        005b5780     part_io_f:report_date_time.obj
 0003:00018788       __STRLITPACK_16.0.1        005b5788     part_io_f:report_date_time.obj
 0003:00018790       __STRLITPACK_17.0.1        005b5790     part_io_f:report_date_time.obj
 0003:00018798       __STRLITPACK_18.0.1        005b5798     part_io_f:report_date_time.obj
 0003:000187a0       __STRLITPACK_19.0.1        005b57a0     part_io_f:report_date_time.obj
 0003:000187a8       __STRLITPACK_20.0.1        005b57a8     part_io_f:report_date_time.obj
 0003:000187b0       __STRLITPACK_21.0.1        005b57b0     part_io_f:report_date_time.obj
 0003:000187b8       __STRLITPACK_22.0.1        005b57b8     part_io_f:report_date_time.obj
 0003:000187c0       __STRLITPACK_23.0.1        005b57c0     part_io_f:report_date_time.obj
 0003:000187c8       __STRLITPACK_24.0.1        005b57c8     part_io_f:report_date_time.obj
 0003:000187d0       __STRLITPACK_25.0.1        005b57d0     part_io_f:report_date_time.obj
 0003:000187d8       __STRLITPACK_26.0.1        005b57d8     part_io_f:report_date_time.obj
 0003:000187e0       __STRLITPACK_14            005b57e0     part_io_f:report_date_time.obj
 0003:000187f4       __STRLITPACK_5             005b57f4     part_io_f:report_date_time.obj
 0003:0001880c       __STRLITPACK_4             005b580c     part_io_f:report_date_time.obj
 0003:00018810       __STRLITPACK_3             005b5810     part_io_f:report_date_time.obj
 0003:00018814       __STRLITPACK_2             005b5814     part_io_f:report_date_time.obj
 0003:00018818       __STRLITPACK_1             005b5818     part_io_f:report_date_time.obj
 0003:0001881c       __STRLITPACK_0             005b581c     part_io_f:report_date_time.obj
 0003:00018820       __NLITPACK_0.0.1           005b5820     part_io_f:rdlgri.obj
 0003:00018824       __STRLITPACK_63.0.1        005b5824     part_io_f:rdlgri.obj
 0003:0001882c       __STRLITPACK_64.0.1        005b582c     part_io_f:rdlgri.obj
 0003:00018830       __STRLITPACK_65.0.1        005b5830     part_io_f:rdlgri.obj
 0003:00018838       __STRLITPACK_66.0.1        005b5838     part_io_f:rdlgri.obj
 0003:00018840       __NLITPACK_1.0.1           005b5840     part_io_f:rdlgri.obj
 0003:00018844       __STRLITPACK_67.0.1        005b5844     part_io_f:rdlgri.obj
 0003:0001884c       __STRLITPACK_68.0.1        005b584c     part_io_f:rdlgri.obj
 0003:00018854       __STRLITPACK_69.0.1        005b5854     part_io_f:rdlgri.obj
 0003:0001885c       __STRLITPACK_70.0.1        005b585c     part_io_f:rdlgri.obj
 0003:00018864       __STRLITPACK_71.0.1        005b5864     part_io_f:rdlgri.obj
 0003:0001886c       __STRLITPACK_72.0.1        005b586c     part_io_f:rdlgri.obj
 0003:00018874       __STRLITPACK_73.0.1        005b5874     part_io_f:rdlgri.obj
 0003:0001887c       __STRLITPACK_82.0.1        005b587c     part_io_f:rdlgri.obj
 0003:00018884       __STRLITPACK_83.0.1        005b5884     part_io_f:rdlgri.obj
 0003:0001888c       __STRLITPACK_84.0.1        005b588c     part_io_f:rdlgri.obj
 0003:00018894       __STRLITPACK_85.0.1        005b5894     part_io_f:rdlgri.obj
 0003:0001889c       __STRLITPACK_86.0.1        005b589c     part_io_f:rdlgri.obj
 0003:000188a4       __STRLITPACK_87.0.1        005b58a4     part_io_f:rdlgri.obj
 0003:000188ac       __STRLITPACK_88.0.1        005b58ac     part_io_f:rdlgri.obj
 0003:000188b4       __STRLITPACK_89.0.1        005b58b4     part_io_f:rdlgri.obj
 0003:000188bc       __STRLITPACK_90.0.1        005b58bc     part_io_f:rdlgri.obj
 0003:000188c4       __STRLITPACK_91.0.1        005b58c4     part_io_f:rdlgri.obj
 0003:000188c8       __STRLITPACK_92.0.1        005b58c8     part_io_f:rdlgri.obj
 0003:000188d0       __STRLITPACK_93.0.1        005b58d0     part_io_f:rdlgri.obj
 0003:000188d8       __STRLITPACK_94.0.1        005b58d8     part_io_f:rdlgri.obj
 0003:000188e0       __NLITPACK_2.0.1           005b58e0     part_io_f:rdlgri.obj
 0003:000188e4       __STRLITPACK_101.0.1       005b58e4     part_io_f:rdlgri.obj
 0003:000188ec       __STRLITPACK_102.0.1       005b58ec     part_io_f:rdlgri.obj
 0003:000188f4       __NLITPACK_3.0.1           005b58f4     part_io_f:rdlgri.obj
 0003:000188f8       __STRLITPACK_103.0.1       005b58f8     part_io_f:rdlgri.obj
 0003:00018900       __STRLITPACK_104.0.1       005b5900     part_io_f:rdlgri.obj
 0003:00018908       __STRLITPACK_95.0.1        005b5908     part_io_f:rdlgri.obj
 0003:00018910       __STRLITPACK_96.0.1        005b5910     part_io_f:rdlgri.obj
 0003:00018918       __STRLITPACK_97.0.1        005b5918     part_io_f:rdlgri.obj
 0003:00018920       __STRLITPACK_98.0.1        005b5920     part_io_f:rdlgri.obj
 0003:00018928       __STRLITPACK_99.0.1        005b5928     part_io_f:rdlgri.obj
 0003:00018930       __STRLITPACK_100.0.1       005b5930     part_io_f:rdlgri.obj
 0003:00018938       __STRLITPACK_74.0.1        005b5938     part_io_f:rdlgri.obj
 0003:00018940       __STRLITPACK_75.0.1        005b5940     part_io_f:rdlgri.obj
 0003:00018948       __STRLITPACK_76.0.1        005b5948     part_io_f:rdlgri.obj
 0003:00018950       __STRLITPACK_77.0.1        005b5950     part_io_f:rdlgri.obj
 0003:00018958       __STRLITPACK_78.0.1        005b5958     part_io_f:rdlgri.obj
 0003:00018960       __STRLITPACK_79.0.1        005b5960     part_io_f:rdlgri.obj
 0003:00018968       __STRLITPACK_80.0.1        005b5968     part_io_f:rdlgri.obj
 0003:00018970       __STRLITPACK_81.0.1        005b5970     part_io_f:rdlgri.obj
 0003:00018978       __STRLITPACK_62            005b5978     part_io_f:rdlgri.obj
 0003:00018980       __STRLITPACK_60            005b5980     part_io_f:rdlgri.obj
 0003:000189a4       __STRLITPACK_48            005b59a4     part_io_f:rdlgri.obj
 0003:000189a8       __STRLITPACK_47            005b59a8     part_io_f:rdlgri.obj
 0003:000189b0       __STRLITPACK_46            005b59b0     part_io_f:rdlgri.obj
 0003:000189b8       __STRLITPACK_45            005b59b8     part_io_f:rdlgri.obj
 0003:000189c0       __STRLITPACK_41            005b59c0     part_io_f:rdlgri.obj
 0003:000189f0       __STRLITPACK_40            005b59f0     part_io_f:rdlgri.obj
 0003:000189f8       __STRLITPACK_39            005b59f8     part_io_f:rdlgri.obj
 0003:00018a00       __STRLITPACK_32            005b5a00     part_io_f:rdlgri.obj
 0003:00018a08       __STRLITPACK_31            005b5a08     part_io_f:rdlgri.obj
 0003:00018a10       __STRLITPACK_30            005b5a10     part_io_f:rdlgri.obj
 0003:00018a18       __STRLITPACK_29            005b5a18     part_io_f:rdlgri.obj
 0003:00018a20       __STRLITPACK_28            005b5a20     part_io_f:rdlgri.obj
 0003:00018a28       __STRLITPACK_27            005b5a28     part_io_f:rdlgri.obj
 0003:00018a30       __STRLITPACK_26            005b5a30     part_io_f:rdlgri.obj
 0003:00018a38       __STRLITPACK_25            005b5a38     part_io_f:rdlgri.obj
 0003:00018a40       __STRLITPACK_24            005b5a40     part_io_f:rdlgri.obj
 0003:00018a48       __STRLITPACK_23            005b5a48     part_io_f:rdlgri.obj
 0003:00018a50       __STRLITPACK_22            005b5a50     part_io_f:rdlgri.obj
 0003:00018a58       __STRLITPACK_21            005b5a58     part_io_f:rdlgri.obj
 0003:00018a60       __STRLITPACK_20            005b5a60     part_io_f:rdlgri.obj
 0003:00018a68       __STRLITPACK_19            005b5a68     part_io_f:rdlgri.obj
 0003:00018a70       __STRLITPACK_18            005b5a70     part_io_f:rdlgri.obj
 0003:00018a78       __STRLITPACK_17            005b5a78     part_io_f:rdlgri.obj
 0003:00018a80       __STRLITPACK_16            005b5a80     part_io_f:rdlgri.obj
 0003:00018a88       __STRLITPACK_15            005b5a88     part_io_f:rdlgri.obj
 0003:00018a94       __STRLITPACK_14            005b5a94     part_io_f:rdlgri.obj
 0003:00018a9c       __STRLITPACK_13            005b5a9c     part_io_f:rdlgri.obj
 0003:00018aa4       __STRLITPACK_12            005b5aa4     part_io_f:rdlgri.obj
 0003:00018aac       __STRLITPACK_11            005b5aac     part_io_f:rdlgri.obj
 0003:00018ab4       __STRLITPACK_10            005b5ab4     part_io_f:rdlgri.obj
 0003:00018abc       __STRLITPACK_9             005b5abc     part_io_f:rdlgri.obj
 0003:00018ac4       __STRLITPACK_8             005b5ac4     part_io_f:rdlgri.obj
 0003:00018acc       __STRLITPACK_7             005b5acc     part_io_f:rdlgri.obj
 0003:00018ad4       __STRLITPACK_5             005b5ad4     part_io_f:rdlgri.obj
 0003:00018b0c       __STRLITPACK_3             005b5b0c     part_io_f:rdlgri.obj
 0003:00018b40       __STRLITPACK_37            005b5b40     part_io_f:rdlgri.obj
 0003:00018b5c       __STRLITPACK_33            005b5b5c     part_io_f:rdlgri.obj
 0003:00018b8c       __STRLITPACK_58            005b5b8c     part_io_f:rdlgri.obj
 0003:00018b90       __STRLITPACK_56            005b5b90     part_io_f:rdlgri.obj
 0003:00018bc0       __STRLITPACK_54            005b5bc0     part_io_f:rdlgri.obj
 0003:00018bf0       __STRLITPACK_52            005b5bf0     part_io_f:rdlgri.obj
 0003:00018c20       __STRLITPACK_50            005b5c20     part_io_f:rdlgri.obj
 0003:00018c50       __STRLITPACK_17.0.1        005b5c50     part_io_f:rdccol.obj
 0003:00018c58       __STRLITPACK_18.0.1        005b5c58     part_io_f:rdccol.obj
 0003:00018c60       __NLITPACK_0.0.1           005b5c60     part_io_f:rdccol.obj
 0003:00018c64       __STRLITPACK_19.0.1        005b5c64     part_io_f:rdccol.obj
 0003:00018c68       __STRLITPACK_20.0.1        005b5c68     part_io_f:rdccol.obj
 0003:00018c70       __STRLITPACK_21.0.1        005b5c70     part_io_f:rdccol.obj
 0003:00018c78       __STRLITPACK_22.0.1        005b5c78     part_io_f:rdccol.obj
 0003:00018c80       __STRLITPACK_23.0.1        005b5c80     part_io_f:rdccol.obj
 0003:00018c88       __STRLITPACK_24.0.1        005b5c88     part_io_f:rdccol.obj
 0003:00018c90       __STRLITPACK_25.0.1        005b5c90     part_io_f:rdccol.obj
 0003:00018c98       __STRLITPACK_26.0.1        005b5c98     part_io_f:rdccol.obj
 0003:00018ca0       __STRLITPACK_27.0.1        005b5ca0     part_io_f:rdccol.obj
 0003:00018ca4       __STRLITPACK_28.0.1        005b5ca4     part_io_f:rdccol.obj
 0003:00018cac       __STRLITPACK_29.0.1        005b5cac     part_io_f:rdccol.obj
 0003:00018cb4       __STRLITPACK_30.0.1        005b5cb4     part_io_f:rdccol.obj
 0003:00018cbc       __STRLITPACK_31.0.1        005b5cbc     part_io_f:rdccol.obj
 0003:00018cc4       __STRLITPACK_32.0.1        005b5cc4     part_io_f:rdccol.obj
 0003:00018ccc       __STRLITPACK_33.0.1        005b5ccc     part_io_f:rdccol.obj
 0003:00018cd4       __STRLITPACK_34.0.1        005b5cd4     part_io_f:rdccol.obj
 0003:00018cdc       __NLITPACK_1.0.1           005b5cdc     part_io_f:rdccol.obj
 0003:00018ce0       __STRLITPACK_35.0.1        005b5ce0     part_io_f:rdccol.obj
 0003:00018ce8       __STRLITPACK_36.0.1        005b5ce8     part_io_f:rdccol.obj
 0003:00018cec       __STRLITPACK_37.0.1        005b5cec     part_io_f:rdccol.obj
 0003:00018cf0       __STRLITPACK_38.0.1        005b5cf0     part_io_f:rdccol.obj
 0003:00018cf8       __STRLITPACK_40.0.1        005b5cf8     part_io_f:rdccol.obj
 0003:00018cfc       __STRLITPACK_41.0.1        005b5cfc     part_io_f:rdccol.obj
 0003:00018d00       __STRLITPACK_42.0.1        005b5d00     part_io_f:rdccol.obj
 0003:00018d08       __STRLITPACK_44.0.1        005b5d08     part_io_f:rdccol.obj
 0003:00018d10       __STRLITPACK_45.0.1        005b5d10     part_io_f:rdccol.obj
 0003:00018d18       __STRLITPACK_46.0.1        005b5d18     part_io_f:rdccol.obj
 0003:00018d20       __STRLITPACK_49.0.1        005b5d20     part_io_f:rdccol.obj
 0003:00018d28       __STRLITPACK_50.0.1        005b5d28     part_io_f:rdccol.obj
 0003:00018d30       __STRLITPACK_47.0.1        005b5d30     part_io_f:rdccol.obj
 0003:00018d38       __STRLITPACK_48.0.1        005b5d38     part_io_f:rdccol.obj
 0003:00018d40       __STRLITPACK_43.0.1        005b5d40     part_io_f:rdccol.obj
 0003:00018d44       __STRLITPACK_39.0.1        005b5d44     part_io_f:rdccol.obj
 0003:00018d48       __STRLITPACK_16            005b5d48     part_io_f:rdccol.obj
 0003:00018d50       __STRLITPACK_14            005b5d50     part_io_f:rdccol.obj
 0003:00018d74       __STRLITPACK_12            005b5d74     part_io_f:rdccol.obj
 0003:00018da0       __STRLITPACK_10            005b5da0     part_io_f:rdccol.obj
 0003:00018dc8       __STRLITPACK_8             005b5dc8     part_io_f:rdccol.obj
 0003:00018df0       __STRLITPACK_6             005b5df0     part_io_f:rdccol.obj
 0003:00018e10       __STRLITPACK_0             005b5e10     part_io_f:rdccol.obj
 0003:00018e40       __STRLITPACK_4             005b5e40     part_io_f:rdccol.obj
 0003:00018e68       __STRLITPACK_90.0.2        005b5e68     part_io_f:rdhydr.obj
 0003:00018e70       __STRLITPACK_91.0.2        005b5e70     part_io_f:rdhydr.obj
 0003:00018e78       __STRLITPACK_92.0.2        005b5e78     part_io_f:rdhydr.obj
 0003:00018e80       __STRLITPACK_93.0.2        005b5e80     part_io_f:rdhydr.obj
 0003:00018e88       __STRLITPACK_94.0.2        005b5e88     part_io_f:rdhydr.obj
 0003:00018e90       __NLITPACK_2.0.2           005b5e90     part_io_f:rdhydr.obj
 0003:00018e94       __STRLITPACK_95.0.2        005b5e94     part_io_f:rdhydr.obj
 0003:00018e9c       __STRLITPACK_96.0.2        005b5e9c     part_io_f:rdhydr.obj
 0003:00018ea4       __STRLITPACK_97.0.2        005b5ea4     part_io_f:rdhydr.obj
 0003:00018eac       __STRLITPACK_98.0.2        005b5eac     part_io_f:rdhydr.obj
 0003:00018eb4       __STRLITPACK_99.0.2        005b5eb4     part_io_f:rdhydr.obj
 0003:00018ebc       __STRLITPACK_53.0.2        005b5ebc     part_io_f:rdhydr.obj
 0003:00018ec4       __STRLITPACK_54.0.2        005b5ec4     part_io_f:rdhydr.obj
 0003:00018ecc       __NLITPACK_0.0.2           005b5ecc     part_io_f:rdhydr.obj
 0003:00018ed0       __STRLITPACK_55.0.2        005b5ed0     part_io_f:rdhydr.obj
 0003:00018ed8       __STRLITPACK_56.0.2        005b5ed8     part_io_f:rdhydr.obj
 0003:00018ee0       __STRLITPACK_57.0.2        005b5ee0     part_io_f:rdhydr.obj
 0003:00018ee8       __STRLITPACK_58.0.2        005b5ee8     part_io_f:rdhydr.obj
 0003:00018ef0       __NLITPACK_1.0.2           005b5ef0     part_io_f:rdhydr.obj
 0003:00018ef4       __STRLITPACK_59.0.2        005b5ef4     part_io_f:rdhydr.obj
 0003:00018efc       __STRLITPACK_60.0.2        005b5efc     part_io_f:rdhydr.obj
 0003:00018f04       __STRLITPACK_61.0.2        005b5f04     part_io_f:rdhydr.obj
 0003:00018f0c       __STRLITPACK_62.0.2        005b5f0c     part_io_f:rdhydr.obj
 0003:00018f14       __STRLITPACK_63.0.2        005b5f14     part_io_f:rdhydr.obj
 0003:00018f1c       __STRLITPACK_64.0.2        005b5f1c     part_io_f:rdhydr.obj
 0003:00018f24       __STRLITPACK_65.0.2        005b5f24     part_io_f:rdhydr.obj
 0003:00018f2c       __STRLITPACK_66.0.2        005b5f2c     part_io_f:rdhydr.obj
 0003:00018f34       __STRLITPACK_67.0.2        005b5f34     part_io_f:rdhydr.obj
 0003:00018f3c       __STRLITPACK_68.0.2        005b5f3c     part_io_f:rdhydr.obj
 0003:00018f44       __STRLITPACK_69.0.2        005b5f44     part_io_f:rdhydr.obj
 0003:00018f4c       __STRLITPACK_70.0.2        005b5f4c     part_io_f:rdhydr.obj
 0003:00018f54       __STRLITPACK_75.0.2        005b5f54     part_io_f:rdhydr.obj
 0003:00018f5c       __STRLITPACK_76.0.2        005b5f5c     part_io_f:rdhydr.obj
 0003:00018f64       __STRLITPACK_71.0.2        005b5f64     part_io_f:rdhydr.obj
 0003:00018f6c       __STRLITPACK_72.0.2        005b5f6c     part_io_f:rdhydr.obj
 0003:00018f74       __STRLITPACK_77.0.2        005b5f74     part_io_f:rdhydr.obj
 0003:00018f7c       __STRLITPACK_78.0.2        005b5f7c     part_io_f:rdhydr.obj
 0003:00018f84       __STRLITPACK_73.0.2        005b5f84     part_io_f:rdhydr.obj
 0003:00018f8c       __STRLITPACK_74.0.2        005b5f8c     part_io_f:rdhydr.obj
 0003:00018f94       __STRLITPACK_79.0.2        005b5f94     part_io_f:rdhydr.obj
 0003:00018f9c       __STRLITPACK_80.0.2        005b5f9c     part_io_f:rdhydr.obj
 0003:00018fa4       __STRLITPACK_81.0.2        005b5fa4     part_io_f:rdhydr.obj
 0003:00018fac       __STRLITPACK_82.0.2        005b5fac     part_io_f:rdhydr.obj
 0003:00018fb4       __STRLITPACK_83.0.2        005b5fb4     part_io_f:rdhydr.obj
 0003:00018fbc       __STRLITPACK_84.0.2        005b5fbc     part_io_f:rdhydr.obj
 0003:00018fc4       __STRLITPACK_85.0.2        005b5fc4     part_io_f:rdhydr.obj
 0003:00018fcc       __STRLITPACK_86.0.2        005b5fcc     part_io_f:rdhydr.obj
 0003:00018fd4       __STRLITPACK_87.0.2        005b5fd4     part_io_f:rdhydr.obj
 0003:00018fdc       __STRLITPACK_88.0.2        005b5fdc     part_io_f:rdhydr.obj
 0003:00018fe4       __STRLITPACK_89.0.2        005b5fe4     part_io_f:rdhydr.obj
 0003:00018ff0       _2il0floatpacket.2         005b5ff0     part_io_f:rdhydr.obj
 0003:00018ff8       _2il0floatpacket.3         005b5ff8     part_io_f:rdhydr.obj
 0003:00019000       _2il0floatpacket.0         005b6000     part_io_f:rdhydr.obj
 0003:00019004       _2il0floatpacket.1         005b6004     part_io_f:rdhydr.obj
 0003:00019008       __STRLITPACK_52            005b6008     part_io_f:rdhydr.obj
 0003:00019010       __STRLITPACK_10            005b6010     part_io_f:rdhydr.obj
 0003:0001903c       __STRLITPACK_7             005b603c     part_io_f:rdhydr.obj
 0003:00019054       __STRLITPACK_6             005b6054     part_io_f:rdhydr.obj
 0003:0001905c       __STRLITPACK_4             005b605c     part_io_f:rdhydr.obj
 0003:0001908c       __STRLITPACK_1             005b608c     part_io_f:rdhydr.obj
 0003:000190a0       __STRLITPACK_0             005b60a0     part_io_f:rdhydr.obj
 0003:000190b0       __STRLITPACK_50            005b60b0     part_io_f:rdhydr.obj
 0003:000190cc       __STRLITPACK_48            005b60cc     part_io_f:rdhydr.obj
 0003:000190e8       __STRLITPACK_47            005b60e8     part_io_f:rdhydr.obj
 0003:000190f0       __STRLITPACK_45            005b60f0     part_io_f:rdhydr.obj
 0003:0001910c       __STRLITPACK_43            005b610c     part_io_f:rdhydr.obj
 0003:00019134       __STRLITPACK_40            005b6134     part_io_f:rdhydr.obj
 0003:00019150       __STRLITPACK_38            005b6150     part_io_f:rdhydr.obj
 0003:00019178       __STRLITPACK_35            005b6178     part_io_f:rdhydr.obj
 0003:00019194       __STRLITPACK_33            005b6194     part_io_f:rdhydr.obj
 0003:000191c0       __STRLITPACK_30            005b61c0     part_io_f:rdhydr.obj
 0003:000191e0       __STRLITPACK_28            005b61e0     part_io_f:rdhydr.obj
 0003:00019210       __STRLITPACK_26            005b6210     part_io_f:rdhydr.obj
 0003:00019238       __STRLITPACK_24            005b6238     part_io_f:rdhydr.obj
 0003:00019260       __STRLITPACK_22            005b6260     part_io_f:rdhydr.obj
 0003:00019288       __STRLITPACK_20            005b6288     part_io_f:rdhydr.obj
 0003:000192b0       __STRLITPACK_18            005b62b0     part_io_f:rdhydr.obj
 0003:000192d8       __STRLITPACK_16            005b62d8     part_io_f:rdhydr.obj
 0003:00019300       __STRLITPACK_14            005b6300     part_io_f:rdhydr.obj
 0003:00019328       __STRLITPACK_12            005b6328     part_io_f:rdhydr.obj
 0003:00019360       __STRLITPACK_213.0.5       005b6360     part_io_f:rdpart.obj
 0003:00019374       __STRLITPACK_214.0.5       005b6374     part_io_f:rdpart.obj
 0003:00019388       __STRLITPACK_215.0.5       005b6388     part_io_f:rdpart.obj
 0003:00019390       __STRLITPACK_216.0.5       005b6390     part_io_f:rdpart.obj
 0003:00019398       __STRLITPACK_217.0.5       005b6398     part_io_f:rdpart.obj
 0003:000193a0       __STRLITPACK_218.0.5       005b63a0     part_io_f:rdpart.obj
 0003:000193a8       __STRLITPACK_219.0.5       005b63a8     part_io_f:rdpart.obj
 0003:000193b0       __STRLITPACK_220.0.5       005b63b0     part_io_f:rdpart.obj
 0003:000193b8       __NLITPACK_3.0.5           005b63b8     part_io_f:rdpart.obj
 0003:000193bc       __STRLITPACK_1482.0.6      005b63bc     part_io_f:rdpart.obj
 0003:000193c4       __STRLITPACK_1483.0.6      005b63c4     part_io_f:rdpart.obj
 0003:000193cc       __STRLITPACK_1484.0.6      005b63cc     part_io_f:rdpart.obj
 0003:000193dc       __STRLITPACK_1485.0.6      005b63dc     part_io_f:rdpart.obj
 0003:000193e0       __STRLITPACK_1486.0.6      005b63e0     part_io_f:rdpart.obj
 0003:000193e8       __STRLITPACK_1487.0.6      005b63e8     part_io_f:rdpart.obj
 0003:000193f0       __STRLITPACK_1488.0.6      005b63f0     part_io_f:rdpart.obj
 0003:000193f8       __STRLITPACK_1489.0.6      005b63f8     part_io_f:rdpart.obj
 0003:00019400       __STRLITPACK_1490.0.6      005b6400     part_io_f:rdpart.obj
 0003:00019408       __STRLITPACK_1491.0.6      005b6408     part_io_f:rdpart.obj
 0003:00019410       __STRLITPACK_1492.0.6      005b6410     part_io_f:rdpart.obj
 0003:00019418       __STRLITPACK_1493.0.6      005b6418     part_io_f:rdpart.obj
 0003:00019420       __STRLITPACK_1494.0.6      005b6420     part_io_f:rdpart.obj
 0003:00019428       __STRLITPACK_1495.0.6      005b6428     part_io_f:rdpart.obj
 0003:00019430       __STRLITPACK_1497.0.6      005b6430     part_io_f:rdpart.obj
 0003:00019438       __STRLITPACK_1498.0.6      005b6438     part_io_f:rdpart.obj
 0003:00019440       __STRLITPACK_1499.0.6      005b6440     part_io_f:rdpart.obj
 0003:00019448       __STRLITPACK_1500.0.6      005b6448     part_io_f:rdpart.obj
 0003:00019450       __STRLITPACK_1984.0.6      005b6450     part_io_f:rdpart.obj
 0003:00019458       __STRLITPACK_1985.0.6      005b6458     part_io_f:rdpart.obj
 0003:00019460       __NLITPACK_4.0.6           005b6460     part_io_f:rdpart.obj
 0003:00019464       __STRLITPACK_1986.0.6      005b6464     part_io_f:rdpart.obj
 0003:0001946c       __STRLITPACK_1987.0.6      005b646c     part_io_f:rdpart.obj
 0003:00019474       __STRLITPACK_1988.0.6      005b6474     part_io_f:rdpart.obj
 0003:0001947c       __STRLITPACK_1989.0.6      005b647c     part_io_f:rdpart.obj
 0003:00019484       __STRLITPACK_1990.0.6      005b6484     part_io_f:rdpart.obj
 0003:0001948c       __STRLITPACK_1991.0.6      005b648c     part_io_f:rdpart.obj
 0003:00019494       __STRLITPACK_1992.0.6      005b6494     part_io_f:rdpart.obj
 0003:0001949c       __STRLITPACK_1993.0.6      005b649c     part_io_f:rdpart.obj
 0003:000194a4       __STRLITPACK_1994.0.6      005b64a4     part_io_f:rdpart.obj
 0003:000194ac       __STRLITPACK_1995.0.6      005b64ac     part_io_f:rdpart.obj
 0003:000194b4       __STRLITPACK_1996.0.6      005b64b4     part_io_f:rdpart.obj
 0003:000194bc       __STRLITPACK_1997.0.6      005b64bc     part_io_f:rdpart.obj
 0003:000194c4       __STRLITPACK_1998.0.6      005b64c4     part_io_f:rdpart.obj
 0003:000194cc       __STRLITPACK_1999.0.6      005b64cc     part_io_f:rdpart.obj
 0003:000194d4       __STRLITPACK_2000.0.6      005b64d4     part_io_f:rdpart.obj
 0003:000194dc       __STRLITPACK_2001.0.6      005b64dc     part_io_f:rdpart.obj
 0003:000194e4       __STRLITPACK_2002.0.6      005b64e4     part_io_f:rdpart.obj
 0003:000194ec       __STRLITPACK_2003.0.6      005b64ec     part_io_f:rdpart.obj
 0003:000194f4       __STRLITPACK_2004.0.6      005b64f4     part_io_f:rdpart.obj
 0003:000194fc       __STRLITPACK_2005.0.6      005b64fc     part_io_f:rdpart.obj
 0003:00019504       __STRLITPACK_2006.0.6      005b6504     part_io_f:rdpart.obj
 0003:0001950c       __STRLITPACK_2007.0.6      005b650c     part_io_f:rdpart.obj
 0003:00019514       __STRLITPACK_2008.0.6      005b6514     part_io_f:rdpart.obj
 0003:0001951c       __STRLITPACK_2009.0.6      005b651c     part_io_f:rdpart.obj
 0003:00019524       __STRLITPACK_2010.0.6      005b6524     part_io_f:rdpart.obj
 0003:0001952c       __STRLITPACK_2011.0.6      005b652c     part_io_f:rdpart.obj
 0003:00019534       __STRLITPACK_2012.0.6      005b6534     part_io_f:rdpart.obj
 0003:0001953c       __STRLITPACK_2013.0.6      005b653c     part_io_f:rdpart.obj
 0003:00019544       __STRLITPACK_2014.0.6      005b6544     part_io_f:rdpart.obj
 0003:0001954c       __STRLITPACK_2015.0.6      005b654c     part_io_f:rdpart.obj
 0003:00019554       __STRLITPACK_2016.0.6      005b6554     part_io_f:rdpart.obj
 0003:0001955c       __STRLITPACK_2017.0.6      005b655c     part_io_f:rdpart.obj
 0003:00019564       __STRLITPACK_2018.0.6      005b6564     part_io_f:rdpart.obj
 0003:0001956c       __STRLITPACK_2019.0.6      005b656c     part_io_f:rdpart.obj
 0003:00019574       __STRLITPACK_2020.0.6      005b6574     part_io_f:rdpart.obj
 0003:0001957c       __STRLITPACK_2021.0.6      005b657c     part_io_f:rdpart.obj
 0003:00019584       __STRLITPACK_2022.0.6      005b6584     part_io_f:rdpart.obj
 0003:0001958c       __STRLITPACK_2023.0.6      005b658c     part_io_f:rdpart.obj
 0003:00019594       __STRLITPACK_2024.0.6      005b6594     part_io_f:rdpart.obj
 0003:0001959c       __STRLITPACK_2025.0.6      005b659c     part_io_f:rdpart.obj
 0003:000195a4       __STRLITPACK_2026.0.6      005b65a4     part_io_f:rdpart.obj
 0003:000195ac       __STRLITPACK_2027.0.6      005b65ac     part_io_f:rdpart.obj
 0003:000195b4       __STRLITPACK_2028.0.6      005b65b4     part_io_f:rdpart.obj
 0003:000195bc       __STRLITPACK_2029.0.6      005b65bc     part_io_f:rdpart.obj
 0003:000195c4       __STRLITPACK_2030.0.6      005b65c4     part_io_f:rdpart.obj
 0003:000195cc       __STRLITPACK_2031.0.6      005b65cc     part_io_f:rdpart.obj
 0003:000195d4       __STRLITPACK_2032.0.6      005b65d4     part_io_f:rdpart.obj
 0003:000195dc       __STRLITPACK_2033.0.6      005b65dc     part_io_f:rdpart.obj
 0003:000195e4       __STRLITPACK_2034.0.6      005b65e4     part_io_f:rdpart.obj
 0003:000195ec       __STRLITPACK_2035.0.6      005b65ec     part_io_f:rdpart.obj
 0003:000195f4       __STRLITPACK_2036.0.6      005b65f4     part_io_f:rdpart.obj
 0003:000195fc       __STRLITPACK_2037.0.6      005b65fc     part_io_f:rdpart.obj
 0003:00019604       __STRLITPACK_2038.0.6      005b6604     part_io_f:rdpart.obj
 0003:0001960c       __STRLITPACK_1501.0.6      005b660c     part_io_f:rdpart.obj
 0003:00019614       __STRLITPACK_1502.0.6      005b6614     part_io_f:rdpart.obj
 0003:0001961c       __STRLITPACK_1503.0.6      005b661c     part_io_f:rdpart.obj
 0003:00019624       __STRLITPACK_1504.0.6      005b6624     part_io_f:rdpart.obj
 0003:0001962c       __STRLITPACK_1505.0.6      005b662c     part_io_f:rdpart.obj
 0003:00019634       __STRLITPACK_1506.0.6      005b6634     part_io_f:rdpart.obj
 0003:0001963c       __STRLITPACK_1507.0.6      005b663c     part_io_f:rdpart.obj
 0003:00019644       __STRLITPACK_1508.0.6      005b6644     part_io_f:rdpart.obj
 0003:0001964c       __STRLITPACK_1509.0.6      005b664c     part_io_f:rdpart.obj
 0003:00019654       __STRLITPACK_1510.0.6      005b6654     part_io_f:rdpart.obj
 0003:0001965c       __STRLITPACK_1511.0.6      005b665c     part_io_f:rdpart.obj
 0003:00019664       __STRLITPACK_1512.0.6      005b6664     part_io_f:rdpart.obj
 0003:0001966c       __STRLITPACK_1513.0.6      005b666c     part_io_f:rdpart.obj
 0003:00019674       __STRLITPACK_1514.0.6      005b6674     part_io_f:rdpart.obj
 0003:0001967c       __STRLITPACK_1515.0.6      005b667c     part_io_f:rdpart.obj
 0003:00019684       __STRLITPACK_1516.0.6      005b6684     part_io_f:rdpart.obj
 0003:0001968c       __STRLITPACK_1517.0.6      005b668c     part_io_f:rdpart.obj
 0003:00019694       __STRLITPACK_1518.0.6      005b6694     part_io_f:rdpart.obj
 0003:0001969c       __STRLITPACK_1519.0.6      005b669c     part_io_f:rdpart.obj
 0003:000196a4       __STRLITPACK_1520.0.6      005b66a4     part_io_f:rdpart.obj
 0003:000196ac       __STRLITPACK_1521.0.6      005b66ac     part_io_f:rdpart.obj
 0003:000196b4       __STRLITPACK_1522.0.6      005b66b4     part_io_f:rdpart.obj
 0003:000196bc       __STRLITPACK_1523.0.6      005b66bc     part_io_f:rdpart.obj
 0003:000196c4       __STRLITPACK_1524.0.6      005b66c4     part_io_f:rdpart.obj
 0003:000196cc       __STRLITPACK_1525.0.6      005b66cc     part_io_f:rdpart.obj
 0003:000196d4       __STRLITPACK_1526.0.6      005b66d4     part_io_f:rdpart.obj
 0003:000196dc       __STRLITPACK_1527.0.6      005b66dc     part_io_f:rdpart.obj
 0003:000196e4       __STRLITPACK_1528.0.6      005b66e4     part_io_f:rdpart.obj
 0003:000196ec       __STRLITPACK_1533.0.6      005b66ec     part_io_f:rdpart.obj
 0003:000196f4       __STRLITPACK_1547.0.6      005b66f4     part_io_f:rdpart.obj
 0003:000196fc       __STRLITPACK_1548.0.6      005b66fc     part_io_f:rdpart.obj
 0003:00019704       __STRLITPACK_1549.0.6      005b6704     part_io_f:rdpart.obj
 0003:0001970c       __STRLITPACK_1550.0.6      005b670c     part_io_f:rdpart.obj
 0003:00019714       __STRLITPACK_1551.0.6      005b6714     part_io_f:rdpart.obj
 0003:0001971c       __STRLITPACK_1552.0.6      005b671c     part_io_f:rdpart.obj
 0003:00019724       __STRLITPACK_1553.0.6      005b6724     part_io_f:rdpart.obj
 0003:0001972c       __STRLITPACK_1554.0.6      005b672c     part_io_f:rdpart.obj
 0003:00019734       __STRLITPACK_1555.0.6      005b6734     part_io_f:rdpart.obj
 0003:0001973c       __STRLITPACK_1556.0.6      005b673c     part_io_f:rdpart.obj
 0003:00019744       __STRLITPACK_1557.0.6      005b6744     part_io_f:rdpart.obj
 0003:0001974c       __STRLITPACK_1558.0.6      005b674c     part_io_f:rdpart.obj
 0003:00019754       __STRLITPACK_1559.0.6      005b6754     part_io_f:rdpart.obj
 0003:0001975c       __STRLITPACK_1560.0.6      005b675c     part_io_f:rdpart.obj
 0003:00019764       __STRLITPACK_1561.0.6      005b6764     part_io_f:rdpart.obj
 0003:0001976c       __STRLITPACK_1562.0.6      005b676c     part_io_f:rdpart.obj
 0003:00019774       __STRLITPACK_1563.0.6      005b6774     part_io_f:rdpart.obj
 0003:0001977c       __STRLITPACK_1564.0.6      005b677c     part_io_f:rdpart.obj
 0003:00019784       __STRLITPACK_1565.0.6      005b6784     part_io_f:rdpart.obj
 0003:0001978c       __STRLITPACK_1566.0.6      005b678c     part_io_f:rdpart.obj
 0003:00019794       __STRLITPACK_1567.0.6      005b6794     part_io_f:rdpart.obj
 0003:0001979c       __STRLITPACK_1568.0.6      005b679c     part_io_f:rdpart.obj
 0003:000197a4       __STRLITPACK_1534.0.6      005b67a4     part_io_f:rdpart.obj
 0003:000197ac       __STRLITPACK_1535.0.6      005b67ac     part_io_f:rdpart.obj
 0003:000197b4       __STRLITPACK_1536.0.6      005b67b4     part_io_f:rdpart.obj
 0003:000197bc       __STRLITPACK_1537.0.6      005b67bc     part_io_f:rdpart.obj
 0003:000197c4       __STRLITPACK_1538.0.6      005b67c4     part_io_f:rdpart.obj
 0003:000197cc       __STRLITPACK_1539.0.6      005b67cc     part_io_f:rdpart.obj
 0003:000197d4       __STRLITPACK_1540.0.6      005b67d4     part_io_f:rdpart.obj
 0003:000197dc       __STRLITPACK_1541.0.6      005b67dc     part_io_f:rdpart.obj
 0003:000197e4       __STRLITPACK_1542.0.6      005b67e4     part_io_f:rdpart.obj
 0003:000197ec       __STRLITPACK_1543.0.6      005b67ec     part_io_f:rdpart.obj
 0003:000197f4       __STRLITPACK_1569.0.6      005b67f4     part_io_f:rdpart.obj
 0003:000197fc       __STRLITPACK_1570.0.6      005b67fc     part_io_f:rdpart.obj
 0003:00019800       __STRLITPACK_1571.0.6      005b6800     part_io_f:rdpart.obj
 0003:00019804       __STRLITPACK_1572.0.6      005b6804     part_io_f:rdpart.obj
 0003:0001980c       __STRLITPACK_1573.0.6      005b680c     part_io_f:rdpart.obj
 0003:00019814       __STRLITPACK_1574.0.6      005b6814     part_io_f:rdpart.obj
 0003:00019818       __STRLITPACK_1575.0.6      005b6818     part_io_f:rdpart.obj
 0003:00019820       __STRLITPACK_1576.0.6      005b6820     part_io_f:rdpart.obj
 0003:00019828       __STRLITPACK_1577.0.6      005b6828     part_io_f:rdpart.obj
 0003:00019830       __STRLITPACK_1578.0.6      005b6830     part_io_f:rdpart.obj
 0003:00019838       __STRLITPACK_1598.0.6      005b6838     part_io_f:rdpart.obj
 0003:00019840       __STRLITPACK_1597.0.6      005b6840     part_io_f:rdpart.obj
 0003:00019848       __STRLITPACK_1585.0.6      005b6848     part_io_f:rdpart.obj
 0003:0001984c       __STRLITPACK_1586.0.6      005b684c     part_io_f:rdpart.obj
 0003:00019854       __STRLITPACK_1587.0.6      005b6854     part_io_f:rdpart.obj
 0003:00019858       __STRLITPACK_1588.0.6      005b6858     part_io_f:rdpart.obj
 0003:00019860       __STRLITPACK_1589.0.6      005b6860     part_io_f:rdpart.obj
 0003:00019868       __STRLITPACK_1590.0.6      005b6868     part_io_f:rdpart.obj
 0003:00019870       __STRLITPACK_1591.0.6      005b6870     part_io_f:rdpart.obj
 0003:00019878       __STRLITPACK_1592.0.6      005b6878     part_io_f:rdpart.obj
 0003:00019880       __STRLITPACK_1593.0.6      005b6880     part_io_f:rdpart.obj
 0003:00019888       __STRLITPACK_1594.0.6      005b6888     part_io_f:rdpart.obj
 0003:00019890       __STRLITPACK_1595.0.6      005b6890     part_io_f:rdpart.obj
 0003:00019898       __STRLITPACK_1581.0.6      005b6898     part_io_f:rdpart.obj
 0003:000198a0       __STRLITPACK_1582.0.6      005b68a0     part_io_f:rdpart.obj
 0003:000198a8       __STRLITPACK_1583.0.6      005b68a8     part_io_f:rdpart.obj
 0003:000198b0       __STRLITPACK_1584.0.6      005b68b0     part_io_f:rdpart.obj
 0003:000198b8       __STRLITPACK_1580.0.6      005b68b8     part_io_f:rdpart.obj
 0003:000198c0       __STRLITPACK_1579.0.6      005b68c0     part_io_f:rdpart.obj
 0003:000198c8       __STRLITPACK_1599.0.6      005b68c8     part_io_f:rdpart.obj
 0003:000198d0       __STRLITPACK_1600.0.6      005b68d0     part_io_f:rdpart.obj
 0003:000198d8       __STRLITPACK_1601.0.6      005b68d8     part_io_f:rdpart.obj
 0003:000198e0       __STRLITPACK_1602.0.6      005b68e0     part_io_f:rdpart.obj
 0003:000198e8       __STRLITPACK_1603.0.6      005b68e8     part_io_f:rdpart.obj
 0003:000198f0       __STRLITPACK_1604.0.6      005b68f0     part_io_f:rdpart.obj
 0003:000198f8       __STRLITPACK_1605.0.6      005b68f8     part_io_f:rdpart.obj
 0003:00019900       __STRLITPACK_1606.0.6      005b6900     part_io_f:rdpart.obj
 0003:00019908       __STRLITPACK_1607.0.6      005b6908     part_io_f:rdpart.obj
 0003:00019910       __STRLITPACK_1608.0.6      005b6910     part_io_f:rdpart.obj
 0003:00019918       __STRLITPACK_1609.0.6      005b6918     part_io_f:rdpart.obj
 0003:00019920       __STRLITPACK_1610.0.6      005b6920     part_io_f:rdpart.obj
 0003:00019928       __STRLITPACK_1612.0.6      005b6928     part_io_f:rdpart.obj
 0003:00019930       __STRLITPACK_1613.0.6      005b6930     part_io_f:rdpart.obj
 0003:00019938       __STRLITPACK_1614.0.6      005b6938     part_io_f:rdpart.obj
 0003:00019940       __STRLITPACK_1615.0.6      005b6940     part_io_f:rdpart.obj
 0003:00019948       __STRLITPACK_1616.0.6      005b6948     part_io_f:rdpart.obj
 0003:00019950       __STRLITPACK_1617.0.6      005b6950     part_io_f:rdpart.obj
 0003:00019958       __STRLITPACK_1618.0.6      005b6958     part_io_f:rdpart.obj
 0003:00019960       __STRLITPACK_1619.0.6      005b6960     part_io_f:rdpart.obj
 0003:00019968       __STRLITPACK_1620.0.6      005b6968     part_io_f:rdpart.obj
 0003:00019970       __STRLITPACK_1611.0.6      005b6970     part_io_f:rdpart.obj
 0003:00019978       __STRLITPACK_1621.0.6      005b6978     part_io_f:rdpart.obj
 0003:00019980       __STRLITPACK_1622.0.6      005b6980     part_io_f:rdpart.obj
 0003:00019988       __STRLITPACK_1623.0.6      005b6988     part_io_f:rdpart.obj
 0003:00019990       __STRLITPACK_1624.0.6      005b6990     part_io_f:rdpart.obj
 0003:00019998       __STRLITPACK_1625.0.6      005b6998     part_io_f:rdpart.obj
 0003:000199a0       __STRLITPACK_1626.0.6      005b69a0     part_io_f:rdpart.obj
 0003:000199a8       __STRLITPACK_1627.0.6      005b69a8     part_io_f:rdpart.obj
 0003:000199b0       __STRLITPACK_1632.0.6      005b69b0     part_io_f:rdpart.obj
 0003:000199b8       __STRLITPACK_1633.0.6      005b69b8     part_io_f:rdpart.obj
 0003:000199c0       __STRLITPACK_1634.0.6      005b69c0     part_io_f:rdpart.obj
 0003:000199c4       __STRLITPACK_1635.0.6      005b69c4     part_io_f:rdpart.obj
 0003:000199cc       __STRLITPACK_1636.0.6      005b69cc     part_io_f:rdpart.obj
 0003:000199d4       __STRLITPACK_1637.0.6      005b69d4     part_io_f:rdpart.obj
 0003:000199dc       __STRLITPACK_1638.0.6      005b69dc     part_io_f:rdpart.obj
 0003:000199e4       __STRLITPACK_1639.0.6      005b69e4     part_io_f:rdpart.obj
 0003:000199ec       __STRLITPACK_1640.0.6      005b69ec     part_io_f:rdpart.obj
 0003:000199f4       __STRLITPACK_1641.0.6      005b69f4     part_io_f:rdpart.obj
 0003:000199fc       __STRLITPACK_1642.0.6      005b69fc     part_io_f:rdpart.obj
 0003:00019a04       __STRLITPACK_1643.0.6      005b6a04     part_io_f:rdpart.obj
 0003:00019a0c       __STRLITPACK_1644.0.6      005b6a0c     part_io_f:rdpart.obj
 0003:00019a14       __STRLITPACK_1645.0.6      005b6a14     part_io_f:rdpart.obj
 0003:00019a1c       __STRLITPACK_1646.0.6      005b6a1c     part_io_f:rdpart.obj
 0003:00019a24       __STRLITPACK_1647.0.6      005b6a24     part_io_f:rdpart.obj
 0003:00019a2c       __STRLITPACK_1653.0.6      005b6a2c     part_io_f:rdpart.obj
 0003:00019a34       __STRLITPACK_1654.0.6      005b6a34     part_io_f:rdpart.obj
 0003:00019a3c       __STRLITPACK_1655.0.6      005b6a3c     part_io_f:rdpart.obj
 0003:00019a44       __STRLITPACK_1656.0.6      005b6a44     part_io_f:rdpart.obj
 0003:00019a4c       __STRLITPACK_1657.0.6      005b6a4c     part_io_f:rdpart.obj
 0003:00019a54       __STRLITPACK_1658.0.6      005b6a54     part_io_f:rdpart.obj
 0003:00019a5c       __STRLITPACK_1659.0.6      005b6a5c     part_io_f:rdpart.obj
 0003:00019a64       __STRLITPACK_1660.0.6      005b6a64     part_io_f:rdpart.obj
 0003:00019a6c       __STRLITPACK_1661.0.6      005b6a6c     part_io_f:rdpart.obj
 0003:00019a74       __STRLITPACK_1662.0.6      005b6a74     part_io_f:rdpart.obj
 0003:00019a7c       __STRLITPACK_1663.0.6      005b6a7c     part_io_f:rdpart.obj
 0003:00019a84       __STRLITPACK_1664.0.6      005b6a84     part_io_f:rdpart.obj
 0003:00019a8c       __STRLITPACK_1665.0.6      005b6a8c     part_io_f:rdpart.obj
 0003:00019a94       __STRLITPACK_1666.0.6      005b6a94     part_io_f:rdpart.obj
 0003:00019a9c       __STRLITPACK_1667.0.6      005b6a9c     part_io_f:rdpart.obj
 0003:00019aa4       __STRLITPACK_1668.0.6      005b6aa4     part_io_f:rdpart.obj
 0003:00019aac       __STRLITPACK_1669.0.6      005b6aac     part_io_f:rdpart.obj
 0003:00019ab4       __STRLITPACK_1670.0.6      005b6ab4     part_io_f:rdpart.obj
 0003:00019abc       __STRLITPACK_1671.0.6      005b6abc     part_io_f:rdpart.obj
 0003:00019ac4       __STRLITPACK_1672.0.6      005b6ac4     part_io_f:rdpart.obj
 0003:00019acc       __STRLITPACK_1673.0.6      005b6acc     part_io_f:rdpart.obj
 0003:00019ad4       __STRLITPACK_1674.0.6      005b6ad4     part_io_f:rdpart.obj
 0003:00019adc       __STRLITPACK_1675.0.6      005b6adc     part_io_f:rdpart.obj
 0003:00019ae4       __NLITPACK_5.0.6           005b6ae4     part_io_f:rdpart.obj
 0003:00019ae8       __STRLITPACK_1676.0.6      005b6ae8     part_io_f:rdpart.obj
 0003:00019af0       __STRLITPACK_1677.0.6      005b6af0     part_io_f:rdpart.obj
 0003:00019af8       __STRLITPACK_1678.0.6      005b6af8     part_io_f:rdpart.obj
 0003:00019b00       __STRLITPACK_1679.0.6      005b6b00     part_io_f:rdpart.obj
 0003:00019b08       __STRLITPACK_1680.0.6      005b6b08     part_io_f:rdpart.obj
 0003:00019b10       __STRLITPACK_1681.0.6      005b6b10     part_io_f:rdpart.obj
 0003:00019b18       __STRLITPACK_1682.0.6      005b6b18     part_io_f:rdpart.obj
 0003:00019b20       __STRLITPACK_1683.0.6      005b6b20     part_io_f:rdpart.obj
 0003:00019b28       __STRLITPACK_1684.0.6      005b6b28     part_io_f:rdpart.obj
 0003:00019b30       __STRLITPACK_1685.0.6      005b6b30     part_io_f:rdpart.obj
 0003:00019b38       __STRLITPACK_1686.0.6      005b6b38     part_io_f:rdpart.obj
 0003:00019b40       __STRLITPACK_1687.0.6      005b6b40     part_io_f:rdpart.obj
 0003:00019b48       __STRLITPACK_1688.0.6      005b6b48     part_io_f:rdpart.obj
 0003:00019b50       __STRLITPACK_1689.0.6      005b6b50     part_io_f:rdpart.obj
 0003:00019b58       __STRLITPACK_1690.0.6      005b6b58     part_io_f:rdpart.obj
 0003:00019b5c       __STRLITPACK_1691.0.6      005b6b5c     part_io_f:rdpart.obj
 0003:00019b60       __STRLITPACK_1692.0.6      005b6b60     part_io_f:rdpart.obj
 0003:00019b68       __STRLITPACK_1693.0.6      005b6b68     part_io_f:rdpart.obj
 0003:00019b70       __STRLITPACK_1694.0.6      005b6b70     part_io_f:rdpart.obj
 0003:00019b78       __STRLITPACK_1695.0.6      005b6b78     part_io_f:rdpart.obj
 0003:00019b80       __STRLITPACK_1696.0.6      005b6b80     part_io_f:rdpart.obj
 0003:00019b88       __STRLITPACK_1697.0.6      005b6b88     part_io_f:rdpart.obj
 0003:00019b90       __STRLITPACK_1699.0.6      005b6b90     part_io_f:rdpart.obj
 0003:00019b98       __STRLITPACK_1700.0.6      005b6b98     part_io_f:rdpart.obj
 0003:00019ba0       __STRLITPACK_1701.0.6      005b6ba0     part_io_f:rdpart.obj
 0003:00019ba8       __STRLITPACK_1702.0.6      005b6ba8     part_io_f:rdpart.obj
 0003:00019bac       __STRLITPACK_1703.0.6      005b6bac     part_io_f:rdpart.obj
 0003:00019bb4       __STRLITPACK_1704.0.6      005b6bb4     part_io_f:rdpart.obj
 0003:00019bbc       __STRLITPACK_1709.0.6      005b6bbc     part_io_f:rdpart.obj
 0003:00019bc4       __STRLITPACK_1710.0.6      005b6bc4     part_io_f:rdpart.obj
 0003:00019bcc       __STRLITPACK_1711.0.6      005b6bcc     part_io_f:rdpart.obj
 0003:00019bd4       __STRLITPACK_1712.0.6      005b6bd4     part_io_f:rdpart.obj
 0003:00019bdc       __STRLITPACK_1713.0.6      005b6bdc     part_io_f:rdpart.obj
 0003:00019be4       __STRLITPACK_1714.0.6      005b6be4     part_io_f:rdpart.obj
 0003:00019bec       __STRLITPACK_1715.0.6      005b6bec     part_io_f:rdpart.obj
 0003:00019bf4       __STRLITPACK_1716.0.6      005b6bf4     part_io_f:rdpart.obj
 0003:00019bfc       __STRLITPACK_1717.0.6      005b6bfc     part_io_f:rdpart.obj
 0003:00019c04       __STRLITPACK_1718.0.6      005b6c04     part_io_f:rdpart.obj
 0003:00019c0c       __STRLITPACK_1719.0.6      005b6c0c     part_io_f:rdpart.obj
 0003:00019c10       __STRLITPACK_1720.0.6      005b6c10     part_io_f:rdpart.obj
 0003:00019c18       __STRLITPACK_1721.0.6      005b6c18     part_io_f:rdpart.obj
 0003:00019c1c       __STRLITPACK_1722.0.6      005b6c1c     part_io_f:rdpart.obj
 0003:00019c24       __STRLITPACK_1723.0.6      005b6c24     part_io_f:rdpart.obj
 0003:00019c2c       __STRLITPACK_1724.0.6      005b6c2c     part_io_f:rdpart.obj
 0003:00019c34       __STRLITPACK_1725.0.6      005b6c34     part_io_f:rdpart.obj
 0003:00019c3c       __STRLITPACK_1726.0.6      005b6c3c     part_io_f:rdpart.obj
 0003:00019c44       __STRLITPACK_1727.0.6      005b6c44     part_io_f:rdpart.obj
 0003:00019c4c       __STRLITPACK_1729.0.6      005b6c4c     part_io_f:rdpart.obj
 0003:00019c50       __STRLITPACK_1730.0.6      005b6c50     part_io_f:rdpart.obj
 0003:00019c54       __STRLITPACK_1731.0.6      005b6c54     part_io_f:rdpart.obj
 0003:00019c5c       __STRLITPACK_1732.0.6      005b6c5c     part_io_f:rdpart.obj
 0003:00019c64       __STRLITPACK_1733.0.6      005b6c64     part_io_f:rdpart.obj
 0003:00019c6c       __STRLITPACK_1734.0.6      005b6c6c     part_io_f:rdpart.obj
 0003:00019c74       __STRLITPACK_1735.0.6      005b6c74     part_io_f:rdpart.obj
 0003:00019c78       __STRLITPACK_1736.0.6      005b6c78     part_io_f:rdpart.obj
 0003:00019c80       __STRLITPACK_1737.0.6      005b6c80     part_io_f:rdpart.obj
 0003:00019c88       __STRLITPACK_1738.0.6      005b6c88     part_io_f:rdpart.obj
 0003:00019c90       __STRLITPACK_1739.0.6      005b6c90     part_io_f:rdpart.obj
 0003:00019c98       __STRLITPACK_1740.0.6      005b6c98     part_io_f:rdpart.obj
 0003:00019c9c       __STRLITPACK_1741.0.6      005b6c9c     part_io_f:rdpart.obj
 0003:00019ca4       __STRLITPACK_1742.0.6      005b6ca4     part_io_f:rdpart.obj
 0003:00019cac       __STRLITPACK_1743.0.6      005b6cac     part_io_f:rdpart.obj
 0003:00019cb4       __STRLITPACK_1744.0.6      005b6cb4     part_io_f:rdpart.obj
 0003:00019cbc       __STRLITPACK_1747.0.6      005b6cbc     part_io_f:rdpart.obj
 0003:00019cc4       __STRLITPACK_1748.0.6      005b6cc4     part_io_f:rdpart.obj
 0003:00019ccc       __STRLITPACK_1749.0.6      005b6ccc     part_io_f:rdpart.obj
 0003:00019cd4       __STRLITPACK_1750.0.6      005b6cd4     part_io_f:rdpart.obj
 0003:00019cdc       __STRLITPACK_1751.0.6      005b6cdc     part_io_f:rdpart.obj
 0003:00019ce0       __STRLITPACK_1752.0.6      005b6ce0     part_io_f:rdpart.obj
 0003:00019ce8       __STRLITPACK_1753.0.6      005b6ce8     part_io_f:rdpart.obj
 0003:00019cf0       __STRLITPACK_1754.0.6      005b6cf0     part_io_f:rdpart.obj
 0003:00019cf8       __STRLITPACK_1755.0.6      005b6cf8     part_io_f:rdpart.obj
 0003:00019d00       __STRLITPACK_1756.0.6      005b6d00     part_io_f:rdpart.obj
 0003:00019d04       __STRLITPACK_1757.0.6      005b6d04     part_io_f:rdpart.obj
 0003:00019d0c       __STRLITPACK_1758.0.6      005b6d0c     part_io_f:rdpart.obj
 0003:00019d14       __STRLITPACK_1759.0.6      005b6d14     part_io_f:rdpart.obj
 0003:00019d1c       __STRLITPACK_1760.0.6      005b6d1c     part_io_f:rdpart.obj
 0003:00019d24       __STRLITPACK_1763.0.6      005b6d24     part_io_f:rdpart.obj
 0003:00019d2c       __STRLITPACK_1764.0.6      005b6d2c     part_io_f:rdpart.obj
 0003:00019d34       __STRLITPACK_1765.0.6      005b6d34     part_io_f:rdpart.obj
 0003:00019d3c       __STRLITPACK_1766.0.6      005b6d3c     part_io_f:rdpart.obj
 0003:00019d44       __STRLITPACK_1767.0.6      005b6d44     part_io_f:rdpart.obj
 0003:00019d4c       __STRLITPACK_1768.0.6      005b6d4c     part_io_f:rdpart.obj
 0003:00019d54       __STRLITPACK_1769.0.6      005b6d54     part_io_f:rdpart.obj
 0003:00019d5c       __STRLITPACK_1770.0.6      005b6d5c     part_io_f:rdpart.obj
 0003:00019d64       __STRLITPACK_1771.0.6      005b6d64     part_io_f:rdpart.obj
 0003:00019d6c       __STRLITPACK_1772.0.6      005b6d6c     part_io_f:rdpart.obj
 0003:00019d74       __STRLITPACK_1773.0.6      005b6d74     part_io_f:rdpart.obj
 0003:00019d7c       __STRLITPACK_1774.0.6      005b6d7c     part_io_f:rdpart.obj
 0003:00019d84       __STRLITPACK_1775.0.6      005b6d84     part_io_f:rdpart.obj
 0003:00019d8c       __STRLITPACK_1784.0.6      005b6d8c     part_io_f:rdpart.obj
 0003:00019d94       __STRLITPACK_1785.0.6      005b6d94     part_io_f:rdpart.obj
 0003:00019d9c       __STRLITPACK_1786.0.6      005b6d9c     part_io_f:rdpart.obj
 0003:00019dac       __NLITPACK_6.0.6           005b6dac     part_io_f:rdpart.obj
 0003:00019db0       __STRLITPACK_1787.0.6      005b6db0     part_io_f:rdpart.obj
 0003:00019db8       __STRLITPACK_1788.0.6      005b6db8     part_io_f:rdpart.obj
 0003:00019dbc       __STRLITPACK_1789.0.6      005b6dbc     part_io_f:rdpart.obj
 0003:00019dc0       __STRLITPACK_1790.0.6      005b6dc0     part_io_f:rdpart.obj
 0003:00019dc4       __STRLITPACK_1791.0.6      005b6dc4     part_io_f:rdpart.obj
 0003:00019dc8       __STRLITPACK_1792.0.6      005b6dc8     part_io_f:rdpart.obj
 0003:00019dcc       __STRLITPACK_1793.0.6      005b6dcc     part_io_f:rdpart.obj
 0003:00019dd0       __STRLITPACK_1794.0.6      005b6dd0     part_io_f:rdpart.obj
 0003:00019dd8       __STRLITPACK_1795.0.6      005b6dd8     part_io_f:rdpart.obj
 0003:00019de0       __STRLITPACK_1796.0.6      005b6de0     part_io_f:rdpart.obj
 0003:00019de8       __STRLITPACK_1797.0.6      005b6de8     part_io_f:rdpart.obj
 0003:00019df0       __STRLITPACK_1798.0.6      005b6df0     part_io_f:rdpart.obj
 0003:00019df8       __STRLITPACK_1799.0.6      005b6df8     part_io_f:rdpart.obj
 0003:00019e00       __STRLITPACK_1800.0.6      005b6e00     part_io_f:rdpart.obj
 0003:00019e08       __STRLITPACK_1801.0.6      005b6e08     part_io_f:rdpart.obj
 0003:00019e10       __STRLITPACK_1802.0.6      005b6e10     part_io_f:rdpart.obj
 0003:00019e18       __STRLITPACK_1803.0.6      005b6e18     part_io_f:rdpart.obj
 0003:00019e20       __STRLITPACK_1804.0.6      005b6e20     part_io_f:rdpart.obj
 0003:00019e30       __STRLITPACK_1805.0.6      005b6e30     part_io_f:rdpart.obj
 0003:00019e38       __STRLITPACK_1806.0.6      005b6e38     part_io_f:rdpart.obj
 0003:00019e3c       __STRLITPACK_1807.0.6      005b6e3c     part_io_f:rdpart.obj
 0003:00019e40       __STRLITPACK_1808.0.6      005b6e40     part_io_f:rdpart.obj
 0003:00019e44       __STRLITPACK_1809.0.6      005b6e44     part_io_f:rdpart.obj
 0003:00019e48       __STRLITPACK_1810.0.6      005b6e48     part_io_f:rdpart.obj
 0003:00019e4c       __STRLITPACK_1811.0.6      005b6e4c     part_io_f:rdpart.obj
 0003:00019e50       __STRLITPACK_1812.0.6      005b6e50     part_io_f:rdpart.obj
 0003:00019e58       __STRLITPACK_1813.0.6      005b6e58     part_io_f:rdpart.obj
 0003:00019e60       __STRLITPACK_1814.0.6      005b6e60     part_io_f:rdpart.obj
 0003:00019e68       __STRLITPACK_1815.0.6      005b6e68     part_io_f:rdpart.obj
 0003:00019e70       __STRLITPACK_1816.0.6      005b6e70     part_io_f:rdpart.obj
 0003:00019e78       __STRLITPACK_1817.0.6      005b6e78     part_io_f:rdpart.obj
 0003:00019e80       __STRLITPACK_1818.0.6      005b6e80     part_io_f:rdpart.obj
 0003:00019e88       __STRLITPACK_1819.0.6      005b6e88     part_io_f:rdpart.obj
 0003:00019e90       __STRLITPACK_1829.0.6      005b6e90     part_io_f:rdpart.obj
 0003:00019e94       __STRLITPACK_1830.0.6      005b6e94     part_io_f:rdpart.obj
 0003:00019e9c       __STRLITPACK_1831.0.6      005b6e9c     part_io_f:rdpart.obj
 0003:00019ea4       __STRLITPACK_1832.0.6      005b6ea4     part_io_f:rdpart.obj
 0003:00019eac       __STRLITPACK_1833.0.6      005b6eac     part_io_f:rdpart.obj
 0003:00019eb0       __STRLITPACK_1834.0.6      005b6eb0     part_io_f:rdpart.obj
 0003:00019eb8       __STRLITPACK_1835.0.6      005b6eb8     part_io_f:rdpart.obj
 0003:00019ec0       __STRLITPACK_1836.0.6      005b6ec0     part_io_f:rdpart.obj
 0003:00019ec8       __STRLITPACK_1837.0.6      005b6ec8     part_io_f:rdpart.obj
 0003:00019ed0       __STRLITPACK_1838.0.6      005b6ed0     part_io_f:rdpart.obj
 0003:00019ed8       __STRLITPACK_1839.0.6      005b6ed8     part_io_f:rdpart.obj
 0003:00019edc       __STRLITPACK_1840.0.6      005b6edc     part_io_f:rdpart.obj
 0003:00019ee0       __STRLITPACK_1841.0.6      005b6ee0     part_io_f:rdpart.obj
 0003:00019ee4       __STRLITPACK_1844.0.6      005b6ee4     part_io_f:rdpart.obj
 0003:00019eec       __STRLITPACK_1845.0.6      005b6eec     part_io_f:rdpart.obj
 0003:00019ef4       __STRLITPACK_1846.0.6      005b6ef4     part_io_f:rdpart.obj
 0003:00019ef8       __STRLITPACK_1847.0.6      005b6ef8     part_io_f:rdpart.obj
 0003:00019f00       __STRLITPACK_1848.0.6      005b6f00     part_io_f:rdpart.obj
 0003:00019f08       __STRLITPACK_1849.0.6      005b6f08     part_io_f:rdpart.obj
 0003:00019f10       __STRLITPACK_1850.0.6      005b6f10     part_io_f:rdpart.obj
 0003:00019f18       __STRLITPACK_1857.0.6      005b6f18     part_io_f:rdpart.obj
 0003:00019f20       __STRLITPACK_1858.0.6      005b6f20     part_io_f:rdpart.obj
 0003:00019f28       __STRLITPACK_1859.0.6      005b6f28     part_io_f:rdpart.obj
 0003:00019f2c       __STRLITPACK_1860.0.6      005b6f2c     part_io_f:rdpart.obj
 0003:00019f34       __STRLITPACK_1861.0.6      005b6f34     part_io_f:rdpart.obj
 0003:00019f3c       __STRLITPACK_1862.0.6      005b6f3c     part_io_f:rdpart.obj
 0003:00019f44       __STRLITPACK_1863.0.6      005b6f44     part_io_f:rdpart.obj
 0003:00019f4c       __STRLITPACK_1864.0.6      005b6f4c     part_io_f:rdpart.obj
 0003:00019f54       __STRLITPACK_1865.0.6      005b6f54     part_io_f:rdpart.obj
 0003:00019f58       __STRLITPACK_1871.0.6      005b6f58     part_io_f:rdpart.obj
 0003:00019f60       __STRLITPACK_1872.0.6      005b6f60     part_io_f:rdpart.obj
 0003:00019f68       __STRLITPACK_1873.0.6      005b6f68     part_io_f:rdpart.obj
 0003:00019f70       __STRLITPACK_1874.0.6      005b6f70     part_io_f:rdpart.obj
 0003:00019f78       __STRLITPACK_1875.0.6      005b6f78     part_io_f:rdpart.obj
 0003:00019f80       __STRLITPACK_1876.0.6      005b6f80     part_io_f:rdpart.obj
 0003:00019f84       __STRLITPACK_1877.0.6      005b6f84     part_io_f:rdpart.obj
 0003:00019f8c       __STRLITPACK_1878.0.6      005b6f8c     part_io_f:rdpart.obj
 0003:00019f94       __STRLITPACK_2039.0.6      005b6f94     part_io_f:rdpart.obj
 0003:00019f9c       __STRLITPACK_2040.0.6      005b6f9c     part_io_f:rdpart.obj
 0003:00019fa4       __STRLITPACK_2041.0.6      005b6fa4     part_io_f:rdpart.obj
 0003:00019fac       __STRLITPACK_2042.0.6      005b6fac     part_io_f:rdpart.obj
 0003:00019fb4       __STRLITPACK_2043.0.6      005b6fb4     part_io_f:rdpart.obj
 0003:00019fbc       __STRLITPACK_2044.0.6      005b6fbc     part_io_f:rdpart.obj
 0003:00019fc4       __STRLITPACK_2045.0.6      005b6fc4     part_io_f:rdpart.obj
 0003:00019fcc       __STRLITPACK_2046.0.6      005b6fcc     part_io_f:rdpart.obj
 0003:00019fd4       __STRLITPACK_2047.0.6      005b6fd4     part_io_f:rdpart.obj
 0003:00019fdc       __STRLITPACK_2048.0.6      005b6fdc     part_io_f:rdpart.obj
 0003:00019fe4       __STRLITPACK_2049.0.6      005b6fe4     part_io_f:rdpart.obj
 0003:00019fec       __STRLITPACK_2050.0.6      005b6fec     part_io_f:rdpart.obj
 0003:00019ff4       __STRLITPACK_2051.0.6      005b6ff4     part_io_f:rdpart.obj
 0003:00019ffc       __STRLITPACK_2052.0.6      005b6ffc     part_io_f:rdpart.obj
 0003:0001a004       __STRLITPACK_2053.0.6      005b7004     part_io_f:rdpart.obj
 0003:0001a00c       __STRLITPACK_2054.0.6      005b700c     part_io_f:rdpart.obj
 0003:0001a014       __STRLITPACK_2055.0.6      005b7014     part_io_f:rdpart.obj
 0003:0001a01c       __STRLITPACK_2056.0.6      005b701c     part_io_f:rdpart.obj
 0003:0001a024       __STRLITPACK_2057.0.6      005b7024     part_io_f:rdpart.obj
 0003:0001a02c       __STRLITPACK_2058.0.6      005b702c     part_io_f:rdpart.obj
 0003:0001a034       __STRLITPACK_2059.0.6      005b7034     part_io_f:rdpart.obj
 0003:0001a03c       __STRLITPACK_2060.0.6      005b703c     part_io_f:rdpart.obj
 0003:0001a044       __STRLITPACK_2061.0.6      005b7044     part_io_f:rdpart.obj
 0003:0001a04c       __STRLITPACK_2062.0.6      005b704c     part_io_f:rdpart.obj
 0003:0001a054       __STRLITPACK_2063.0.6      005b7054     part_io_f:rdpart.obj
 0003:0001a05c       __STRLITPACK_2064.0.6      005b705c     part_io_f:rdpart.obj
 0003:0001a064       __STRLITPACK_2065.0.6      005b7064     part_io_f:rdpart.obj
 0003:0001a06c       __STRLITPACK_2066.0.6      005b706c     part_io_f:rdpart.obj
 0003:0001a074       __STRLITPACK_2067.0.6      005b7074     part_io_f:rdpart.obj
 0003:0001a07c       __STRLITPACK_2068.0.6      005b707c     part_io_f:rdpart.obj
 0003:0001a084       __STRLITPACK_2069.0.6      005b7084     part_io_f:rdpart.obj
 0003:0001a08c       __STRLITPACK_2070.0.6      005b708c     part_io_f:rdpart.obj
 0003:0001a094       __STRLITPACK_2071.0.6      005b7094     part_io_f:rdpart.obj
 0003:0001a09c       __STRLITPACK_2072.0.6      005b709c     part_io_f:rdpart.obj
 0003:0001a0a4       __STRLITPACK_2073.0.6      005b70a4     part_io_f:rdpart.obj
 0003:0001a0ac       __STRLITPACK_2074.0.6      005b70ac     part_io_f:rdpart.obj
 0003:0001a0b4       __STRLITPACK_2075.0.6      005b70b4     part_io_f:rdpart.obj
 0003:0001a0bc       __STRLITPACK_2076.0.6      005b70bc     part_io_f:rdpart.obj
 0003:0001a0c4       __STRLITPACK_2077.0.6      005b70c4     part_io_f:rdpart.obj
 0003:0001a0cc       __STRLITPACK_2078.0.6      005b70cc     part_io_f:rdpart.obj
 0003:0001a0d4       __STRLITPACK_2079.0.6      005b70d4     part_io_f:rdpart.obj
 0003:0001a0dc       __STRLITPACK_2080.0.6      005b70dc     part_io_f:rdpart.obj
 0003:0001a0e4       __STRLITPACK_2081.0.6      005b70e4     part_io_f:rdpart.obj
 0003:0001a0ec       __STRLITPACK_2082.0.6      005b70ec     part_io_f:rdpart.obj
 0003:0001a0f4       __STRLITPACK_2083.0.6      005b70f4     part_io_f:rdpart.obj
 0003:0001a0fc       __STRLITPACK_2084.0.6      005b70fc     part_io_f:rdpart.obj
 0003:0001a104       __STRLITPACK_2085.0.6      005b7104     part_io_f:rdpart.obj
 0003:0001a10c       __STRLITPACK_2086.0.6      005b710c     part_io_f:rdpart.obj
 0003:0001a114       __STRLITPACK_2087.0.6      005b7114     part_io_f:rdpart.obj
 0003:0001a11c       __STRLITPACK_2088.0.6      005b711c     part_io_f:rdpart.obj
 0003:0001a124       __STRLITPACK_2089.0.6      005b7124     part_io_f:rdpart.obj
 0003:0001a12c       __STRLITPACK_2090.0.6      005b712c     part_io_f:rdpart.obj
 0003:0001a134       __STRLITPACK_2091.0.6      005b7134     part_io_f:rdpart.obj
 0003:0001a13c       __STRLITPACK_2092.0.6      005b713c     part_io_f:rdpart.obj
 0003:0001a144       __STRLITPACK_2093.0.6      005b7144     part_io_f:rdpart.obj
 0003:0001a14c       __STRLITPACK_2094.0.6      005b714c     part_io_f:rdpart.obj
 0003:0001a154       __STRLITPACK_2095.0.6      005b7154     part_io_f:rdpart.obj
 0003:0001a15c       __STRLITPACK_2096.0.6      005b715c     part_io_f:rdpart.obj
 0003:0001a164       __STRLITPACK_2097.0.6      005b7164     part_io_f:rdpart.obj
 0003:0001a16c       __STRLITPACK_2098.0.6      005b716c     part_io_f:rdpart.obj
 0003:0001a174       __STRLITPACK_2099.0.6      005b7174     part_io_f:rdpart.obj
 0003:0001a17c       __STRLITPACK_2100.0.6      005b717c     part_io_f:rdpart.obj
 0003:0001a184       __STRLITPACK_2101.0.6      005b7184     part_io_f:rdpart.obj
 0003:0001a18c       __STRLITPACK_2102.0.6      005b718c     part_io_f:rdpart.obj
 0003:0001a194       __STRLITPACK_2103.0.6      005b7194     part_io_f:rdpart.obj
 0003:0001a19c       __STRLITPACK_2104.0.6      005b719c     part_io_f:rdpart.obj
 0003:0001a1a4       __STRLITPACK_2105.0.6      005b71a4     part_io_f:rdpart.obj
 0003:0001a1ac       __STRLITPACK_2106.0.6      005b71ac     part_io_f:rdpart.obj
 0003:0001a1b4       __STRLITPACK_2107.0.6      005b71b4     part_io_f:rdpart.obj
 0003:0001a1bc       __STRLITPACK_2108.0.6      005b71bc     part_io_f:rdpart.obj
 0003:0001a1c4       __STRLITPACK_2109.0.6      005b71c4     part_io_f:rdpart.obj
 0003:0001a1cc       __STRLITPACK_2110.0.6      005b71cc     part_io_f:rdpart.obj
 0003:0001a1d4       __STRLITPACK_2111.0.6      005b71d4     part_io_f:rdpart.obj
 0003:0001a1dc       __STRLITPACK_2112.0.6      005b71dc     part_io_f:rdpart.obj
 0003:0001a1e4       __STRLITPACK_2113.0.6      005b71e4     part_io_f:rdpart.obj
 0003:0001a1ec       __STRLITPACK_2114.0.6      005b71ec     part_io_f:rdpart.obj
 0003:0001a1f4       __STRLITPACK_2115.0.6      005b71f4     part_io_f:rdpart.obj
 0003:0001a1fc       __STRLITPACK_2116.0.6      005b71fc     part_io_f:rdpart.obj
 0003:0001a204       __STRLITPACK_2117.0.6      005b7204     part_io_f:rdpart.obj
 0003:0001a20c       __STRLITPACK_2118.0.6      005b720c     part_io_f:rdpart.obj
 0003:0001a214       __STRLITPACK_2119.0.6      005b7214     part_io_f:rdpart.obj
 0003:0001a21c       __STRLITPACK_2120.0.6      005b721c     part_io_f:rdpart.obj
 0003:0001a224       __STRLITPACK_2121.0.6      005b7224     part_io_f:rdpart.obj
 0003:0001a22c       __STRLITPACK_2122.0.6      005b722c     part_io_f:rdpart.obj
 0003:0001a234       __STRLITPACK_2123.0.6      005b7234     part_io_f:rdpart.obj
 0003:0001a23c       __STRLITPACK_2124.0.6      005b723c     part_io_f:rdpart.obj
 0003:0001a244       __STRLITPACK_2125.0.6      005b7244     part_io_f:rdpart.obj
 0003:0001a24c       __STRLITPACK_2126.0.6      005b724c     part_io_f:rdpart.obj
 0003:0001a254       __STRLITPACK_2127.0.6      005b7254     part_io_f:rdpart.obj
 0003:0001a25c       __STRLITPACK_2128.0.6      005b725c     part_io_f:rdpart.obj
 0003:0001a264       __STRLITPACK_2129.0.6      005b7264     part_io_f:rdpart.obj
 0003:0001a26c       __STRLITPACK_2130.0.6      005b726c     part_io_f:rdpart.obj
 0003:0001a274       __STRLITPACK_2131.0.6      005b7274     part_io_f:rdpart.obj
 0003:0001a27c       __STRLITPACK_2132.0.6      005b727c     part_io_f:rdpart.obj
 0003:0001a284       __STRLITPACK_2133.0.6      005b7284     part_io_f:rdpart.obj
 0003:0001a28c       __STRLITPACK_2134.0.6      005b728c     part_io_f:rdpart.obj
 0003:0001a294       __STRLITPACK_2135.0.6      005b7294     part_io_f:rdpart.obj
 0003:0001a29c       __STRLITPACK_2136.0.6      005b729c     part_io_f:rdpart.obj
 0003:0001a2a4       __STRLITPACK_2137.0.6      005b72a4     part_io_f:rdpart.obj
 0003:0001a2ac       __STRLITPACK_2138.0.6      005b72ac     part_io_f:rdpart.obj
 0003:0001a2b4       __STRLITPACK_2139.0.6      005b72b4     part_io_f:rdpart.obj
 0003:0001a2bc       __STRLITPACK_2140.0.6      005b72bc     part_io_f:rdpart.obj
 0003:0001a2c4       __STRLITPACK_2141.0.6      005b72c4     part_io_f:rdpart.obj
 0003:0001a2cc       __STRLITPACK_2142.0.6      005b72cc     part_io_f:rdpart.obj
 0003:0001a2d4       __STRLITPACK_2143.0.6      005b72d4     part_io_f:rdpart.obj
 0003:0001a2dc       __STRLITPACK_1879.0.6      005b72dc     part_io_f:rdpart.obj
 0003:0001a2e4       __STRLITPACK_1880.0.6      005b72e4     part_io_f:rdpart.obj
 0003:0001a2ec       __STRLITPACK_1886.0.6      005b72ec     part_io_f:rdpart.obj
 0003:0001a2f4       __STRLITPACK_1887.0.6      005b72f4     part_io_f:rdpart.obj
 0003:0001a2fc       __STRLITPACK_1888.0.6      005b72fc     part_io_f:rdpart.obj
 0003:0001a304       __STRLITPACK_1889.0.6      005b7304     part_io_f:rdpart.obj
 0003:0001a30c       __STRLITPACK_1890.0.6      005b730c     part_io_f:rdpart.obj
 0003:0001a314       __STRLITPACK_1891.0.6      005b7314     part_io_f:rdpart.obj
 0003:0001a31c       __STRLITPACK_1892.0.6      005b731c     part_io_f:rdpart.obj
 0003:0001a324       __STRLITPACK_1893.0.6      005b7324     part_io_f:rdpart.obj
 0003:0001a32c       __STRLITPACK_1894.0.6      005b732c     part_io_f:rdpart.obj
 0003:0001a334       __STRLITPACK_1895.0.6      005b7334     part_io_f:rdpart.obj
 0003:0001a33c       __STRLITPACK_1896.0.6      005b733c     part_io_f:rdpart.obj
 0003:0001a344       __STRLITPACK_1897.0.6      005b7344     part_io_f:rdpart.obj
 0003:0001a34c       __STRLITPACK_1899.0.6      005b734c     part_io_f:rdpart.obj
 0003:0001a354       __STRLITPACK_1900.0.6      005b7354     part_io_f:rdpart.obj
 0003:0001a35c       __STRLITPACK_1901.0.6      005b735c     part_io_f:rdpart.obj
 0003:0001a364       __STRLITPACK_1902.0.6      005b7364     part_io_f:rdpart.obj
 0003:0001a36c       __STRLITPACK_1903.0.6      005b736c     part_io_f:rdpart.obj
 0003:0001a374       __STRLITPACK_1904.0.6      005b7374     part_io_f:rdpart.obj
 0003:0001a37c       __STRLITPACK_1905.0.6      005b737c     part_io_f:rdpart.obj
 0003:0001a384       __STRLITPACK_1906.0.6      005b7384     part_io_f:rdpart.obj
 0003:0001a38c       __STRLITPACK_1907.0.6      005b738c     part_io_f:rdpart.obj
 0003:0001a394       __STRLITPACK_1908.0.6      005b7394     part_io_f:rdpart.obj
 0003:0001a398       __STRLITPACK_1909.0.6      005b7398     part_io_f:rdpart.obj
 0003:0001a3a0       __STRLITPACK_1910.0.6      005b73a0     part_io_f:rdpart.obj
 0003:0001a3a8       __STRLITPACK_1911.0.6      005b73a8     part_io_f:rdpart.obj
 0003:0001a3b0       __STRLITPACK_1912.0.6      005b73b0     part_io_f:rdpart.obj
 0003:0001a3b8       __STRLITPACK_1913.0.6      005b73b8     part_io_f:rdpart.obj
 0003:0001a3c0       __STRLITPACK_1914.0.6      005b73c0     part_io_f:rdpart.obj
 0003:0001a3c4       __STRLITPACK_1915.0.6      005b73c4     part_io_f:rdpart.obj
 0003:0001a3cc       __STRLITPACK_1916.0.6      005b73cc     part_io_f:rdpart.obj
 0003:0001a3d4       __STRLITPACK_1917.0.6      005b73d4     part_io_f:rdpart.obj
 0003:0001a3dc       __STRLITPACK_1918.0.6      005b73dc     part_io_f:rdpart.obj
 0003:0001a3e4       __STRLITPACK_1919.0.6      005b73e4     part_io_f:rdpart.obj
 0003:0001a3ec       __STRLITPACK_1920.0.6      005b73ec     part_io_f:rdpart.obj
 0003:0001a3f4       __STRLITPACK_1921.0.6      005b73f4     part_io_f:rdpart.obj
 0003:0001a3fc       __STRLITPACK_1922.0.6      005b73fc     part_io_f:rdpart.obj
 0003:0001a404       __STRLITPACK_1923.0.6      005b7404     part_io_f:rdpart.obj
 0003:0001a408       __STRLITPACK_1924.0.6      005b7408     part_io_f:rdpart.obj
 0003:0001a410       __STRLITPACK_1925.0.6      005b7410     part_io_f:rdpart.obj
 0003:0001a418       __STRLITPACK_1926.0.6      005b7418     part_io_f:rdpart.obj
 0003:0001a420       __STRLITPACK_1927.0.6      005b7420     part_io_f:rdpart.obj
 0003:0001a428       __STRLITPACK_1928.0.6      005b7428     part_io_f:rdpart.obj
 0003:0001a430       __STRLITPACK_1929.0.6      005b7430     part_io_f:rdpart.obj
 0003:0001a438       __STRLITPACK_1930.0.6      005b7438     part_io_f:rdpart.obj
 0003:0001a440       __STRLITPACK_1931.0.6      005b7440     part_io_f:rdpart.obj
 0003:0001a448       __NLITPACK_7.0.6           005b7448     part_io_f:rdpart.obj
 0003:0001a44c       __STRLITPACK_1932.0.6      005b744c     part_io_f:rdpart.obj
 0003:0001a450       __STRLITPACK_1933.0.6      005b7450     part_io_f:rdpart.obj
 0003:0001a458       __STRLITPACK_1934.0.6      005b7458     part_io_f:rdpart.obj
 0003:0001a460       __STRLITPACK_1935.0.6      005b7460     part_io_f:rdpart.obj
 0003:0001a468       __STRLITPACK_1936.0.6      005b7468     part_io_f:rdpart.obj
 0003:0001a470       __STRLITPACK_1938.0.6      005b7470     part_io_f:rdpart.obj
 0003:0001a474       __STRLITPACK_1939.0.6      005b7474     part_io_f:rdpart.obj
 0003:0001a47c       __STRLITPACK_1940.0.6      005b747c     part_io_f:rdpart.obj
 0003:0001a484       __STRLITPACK_1941.0.6      005b7484     part_io_f:rdpart.obj
 0003:0001a48c       __STRLITPACK_1942.0.6      005b748c     part_io_f:rdpart.obj
 0003:0001a494       __STRLITPACK_1943.0.6      005b7494     part_io_f:rdpart.obj
 0003:0001a49c       __STRLITPACK_1944.0.6      005b749c     part_io_f:rdpart.obj
 0003:0001a4a4       __STRLITPACK_1945.0.6      005b74a4     part_io_f:rdpart.obj
 0003:0001a4ac       __STRLITPACK_1946.0.6      005b74ac     part_io_f:rdpart.obj
 0003:0001a4b0       __STRLITPACK_1947.0.6      005b74b0     part_io_f:rdpart.obj
 0003:0001a4b4       __STRLITPACK_1948.0.6      005b74b4     part_io_f:rdpart.obj
 0003:0001a4bc       __STRLITPACK_1949.0.6      005b74bc     part_io_f:rdpart.obj
 0003:0001a4c4       __STRLITPACK_1950.0.6      005b74c4     part_io_f:rdpart.obj
 0003:0001a4cc       __STRLITPACK_1951.0.6      005b74cc     part_io_f:rdpart.obj
 0003:0001a4d0       __STRLITPACK_1952.0.6      005b74d0     part_io_f:rdpart.obj
 0003:0001a4d8       __STRLITPACK_1953.0.6      005b74d8     part_io_f:rdpart.obj
 0003:0001a4e0       __STRLITPACK_1954.0.6      005b74e0     part_io_f:rdpart.obj
 0003:0001a4e8       __STRLITPACK_1955.0.6      005b74e8     part_io_f:rdpart.obj
 0003:0001a4f0       __STRLITPACK_1956.0.6      005b74f0     part_io_f:rdpart.obj
 0003:0001a4f8       __STRLITPACK_1959.0.6      005b74f8     part_io_f:rdpart.obj
 0003:0001a4fc       __STRLITPACK_1967.0.6      005b74fc     part_io_f:rdpart.obj
 0003:0001a504       __STRLITPACK_1968.0.6      005b7504     part_io_f:rdpart.obj
 0003:0001a508       __STRLITPACK_1969.0.6      005b7508     part_io_f:rdpart.obj
 0003:0001a510       __STRLITPACK_1970.0.6      005b7510     part_io_f:rdpart.obj
 0003:0001a518       __STRLITPACK_1971.0.6      005b7518     part_io_f:rdpart.obj
 0003:0001a520       __STRLITPACK_1972.0.6      005b7520     part_io_f:rdpart.obj
 0003:0001a528       __STRLITPACK_1973.0.6      005b7528     part_io_f:rdpart.obj
 0003:0001a530       __STRLITPACK_1974.0.6      005b7530     part_io_f:rdpart.obj
 0003:0001a538       __NLITPACK_8.0.6           005b7538     part_io_f:rdpart.obj
 0003:0001a53c       __NLITPACK_9.0.6           005b753c     part_io_f:rdpart.obj
 0003:0001a540       __NLITPACK_10.0.6          005b7540     part_io_f:rdpart.obj
 0003:0001a544       __NLITPACK_11.0.6          005b7544     part_io_f:rdpart.obj
 0003:0001a548       __STRLITPACK_1975.0.6      005b7548     part_io_f:rdpart.obj
 0003:0001a550       __STRLITPACK_1976.0.6      005b7550     part_io_f:rdpart.obj
 0003:0001a558       __STRLITPACK_1977.0.6      005b7558     part_io_f:rdpart.obj
 0003:0001a560       __STRLITPACK_1978.0.6      005b7560     part_io_f:rdpart.obj
 0003:0001a568       __STRLITPACK_1979.0.6      005b7568     part_io_f:rdpart.obj
 0003:0001a570       __STRLITPACK_1980.0.6      005b7570     part_io_f:rdpart.obj
 0003:0001a578       __STRLITPACK_1981.0.6      005b7578     part_io_f:rdpart.obj
 0003:0001a580       __STRLITPACK_1982.0.6      005b7580     part_io_f:rdpart.obj
 0003:0001a588       __STRLITPACK_1983.0.6      005b7588     part_io_f:rdpart.obj
 0003:0001a590       __STRLITPACK_1596.0.6      005b7590     part_io_f:rdpart.obj
 0003:0001a598       __STRLITPACK_1698.0.6      005b7598     part_io_f:rdpart.obj
 0003:0001a5a0       __STRLITPACK_1780.0.6      005b75a0     part_io_f:rdpart.obj
 0003:0001a5b0       __STRLITPACK_1781.0.6      005b75b0     part_io_f:rdpart.obj
 0003:0001a5b8       __STRLITPACK_1782.0.6      005b75b8     part_io_f:rdpart.obj
 0003:0001a5c0       __STRLITPACK_1783.0.6      005b75c0     part_io_f:rdpart.obj
 0003:0001a5c8       __STRLITPACK_1776.0.6      005b75c8     part_io_f:rdpart.obj
 0003:0001a5d8       __STRLITPACK_1777.0.6      005b75d8     part_io_f:rdpart.obj
 0003:0001a5e0       __STRLITPACK_1778.0.6      005b75e0     part_io_f:rdpart.obj
 0003:0001a5e8       __STRLITPACK_1779.0.6      005b75e8     part_io_f:rdpart.obj
 0003:0001a5f0       __STRLITPACK_1960.0.6      005b75f0     part_io_f:rdpart.obj
 0003:0001a5f8       __STRLITPACK_1961.0.6      005b75f8     part_io_f:rdpart.obj
 0003:0001a600       __STRLITPACK_1962.0.6      005b7600     part_io_f:rdpart.obj
 0003:0001a608       __STRLITPACK_1963.0.6      005b7608     part_io_f:rdpart.obj
 0003:0001a610       __STRLITPACK_1964.0.6      005b7610     part_io_f:rdpart.obj
 0003:0001a618       __STRLITPACK_1965.0.6      005b7618     part_io_f:rdpart.obj
 0003:0001a620       __STRLITPACK_1966.0.6      005b7620     part_io_f:rdpart.obj
 0003:0001a628       __STRLITPACK_1958.0.6      005b7628     part_io_f:rdpart.obj
 0003:0001a62c       __STRLITPACK_1957.0.6      005b762c     part_io_f:rdpart.obj
 0003:0001a630       __STRLITPACK_1937.0.6      005b7630     part_io_f:rdpart.obj
 0003:0001a634       __STRLITPACK_1544.0.6      005b7634     part_io_f:rdpart.obj
 0003:0001a63c       __STRLITPACK_1545.0.6      005b763c     part_io_f:rdpart.obj
 0003:0001a644       __STRLITPACK_1546.0.6      005b7644     part_io_f:rdpart.obj
 0003:0001a64c       __STRLITPACK_1898.0.6      005b764c     part_io_f:rdpart.obj
 0003:0001a650       __STRLITPACK_1881.0.6      005b7650     part_io_f:rdpart.obj
 0003:0001a658       __STRLITPACK_1882.0.6      005b7658     part_io_f:rdpart.obj
 0003:0001a660       __STRLITPACK_1883.0.6      005b7660     part_io_f:rdpart.obj
 0003:0001a668       __STRLITPACK_1884.0.6      005b7668     part_io_f:rdpart.obj
 0003:0001a670       __STRLITPACK_1885.0.6      005b7670     part_io_f:rdpart.obj
 0003:0001a678       __STRLITPACK_1866.0.6      005b7678     part_io_f:rdpart.obj
 0003:0001a680       __STRLITPACK_1867.0.6      005b7680     part_io_f:rdpart.obj
 0003:0001a688       __STRLITPACK_1868.0.6      005b7688     part_io_f:rdpart.obj
 0003:0001a690       __STRLITPACK_1869.0.6      005b7690     part_io_f:rdpart.obj
 0003:0001a698       __STRLITPACK_1870.0.6      005b7698     part_io_f:rdpart.obj
 0003:0001a6a0       __STRLITPACK_1842.0.6      005b76a0     part_io_f:rdpart.obj
 0003:0001a6a8       __STRLITPACK_1843.0.6      005b76a8     part_io_f:rdpart.obj
 0003:0001a6b0       __STRLITPACK_1851.0.6      005b76b0     part_io_f:rdpart.obj
 0003:0001a6b8       __STRLITPACK_1852.0.6      005b76b8     part_io_f:rdpart.obj
 0003:0001a6c0       __STRLITPACK_1853.0.6      005b76c0     part_io_f:rdpart.obj
 0003:0001a6c8       __STRLITPACK_1854.0.6      005b76c8     part_io_f:rdpart.obj
 0003:0001a6d0       __STRLITPACK_1855.0.6      005b76d0     part_io_f:rdpart.obj
 0003:0001a6d8       __STRLITPACK_1856.0.6      005b76d8     part_io_f:rdpart.obj
 0003:0001a6e0       __STRLITPACK_1828.0.6      005b76e0     part_io_f:rdpart.obj
 0003:0001a6e4       __STRLITPACK_1820.0.6      005b76e4     part_io_f:rdpart.obj
 0003:0001a6ec       __STRLITPACK_1821.0.6      005b76ec     part_io_f:rdpart.obj
 0003:0001a6f4       __STRLITPACK_1822.0.6      005b76f4     part_io_f:rdpart.obj
 0003:0001a6fc       __STRLITPACK_1823.0.6      005b76fc     part_io_f:rdpart.obj
 0003:0001a704       __STRLITPACK_1824.0.6      005b7704     part_io_f:rdpart.obj
 0003:0001a70c       __STRLITPACK_1825.0.6      005b770c     part_io_f:rdpart.obj
 0003:0001a714       __STRLITPACK_1826.0.6      005b7714     part_io_f:rdpart.obj
 0003:0001a71c       __STRLITPACK_1827.0.6      005b771c     part_io_f:rdpart.obj
 0003:0001a724       __STRLITPACK_1761.0.6      005b7724     part_io_f:rdpart.obj
 0003:0001a72c       __STRLITPACK_1762.0.6      005b772c     part_io_f:rdpart.obj
 0003:0001a734       __STRLITPACK_1745.0.6      005b7734     part_io_f:rdpart.obj
 0003:0001a73c       __STRLITPACK_1746.0.6      005b773c     part_io_f:rdpart.obj
 0003:0001a744       __STRLITPACK_1728.0.6      005b7744     part_io_f:rdpart.obj
 0003:0001a748       __STRLITPACK_1705.0.6      005b7748     part_io_f:rdpart.obj
 0003:0001a750       __STRLITPACK_1706.0.6      005b7750     part_io_f:rdpart.obj
 0003:0001a758       __STRLITPACK_1707.0.6      005b7758     part_io_f:rdpart.obj
 0003:0001a760       __STRLITPACK_1708.0.6      005b7760     part_io_f:rdpart.obj
 0003:0001a768       __STRLITPACK_1651.0.6      005b7768     part_io_f:rdpart.obj
 0003:0001a770       __STRLITPACK_1652.0.6      005b7770     part_io_f:rdpart.obj
 0003:0001a778       __STRLITPACK_1650.0.6      005b7778     part_io_f:rdpart.obj
 0003:0001a780       __STRLITPACK_1648.0.6      005b7780     part_io_f:rdpart.obj
 0003:0001a788       __STRLITPACK_1649.0.6      005b7788     part_io_f:rdpart.obj
 0003:0001a790       __STRLITPACK_1628.0.6      005b7790     part_io_f:rdpart.obj
 0003:0001a798       __STRLITPACK_1629.0.6      005b7798     part_io_f:rdpart.obj
 0003:0001a7a0       __STRLITPACK_1630.0.6      005b77a0     part_io_f:rdpart.obj
 0003:0001a7a8       __STRLITPACK_1631.0.6      005b77a8     part_io_f:rdpart.obj
 0003:0001a7b0       __STRLITPACK_1532.0.6      005b77b0     part_io_f:rdpart.obj
 0003:0001a7b8       __STRLITPACK_1530.0.6      005b77b8     part_io_f:rdpart.obj
 0003:0001a7bc       __STRLITPACK_1531.0.6      005b77bc     part_io_f:rdpart.obj
 0003:0001a7c0       __STRLITPACK_1529.0.6      005b77c0     part_io_f:rdpart.obj
 0003:0001a7d0       __STRLITPACK_33.0.2        005b77d0     part_io_f:rdpart.obj
 0003:0001a7d8       __STRLITPACK_34.0.2        005b77d8     part_io_f:rdpart.obj
 0003:0001a7e0       __STRLITPACK_35.0.2        005b77e0     part_io_f:rdpart.obj
 0003:0001a7e8       __STRLITPACK_36.0.2        005b77e8     part_io_f:rdpart.obj
 0003:0001a7f0       __STRLITPACK_37.0.2        005b77f0     part_io_f:rdpart.obj
 0003:0001a7f8       __STRLITPACK_38.0.2        005b77f8     part_io_f:rdpart.obj
 0003:0001a800       __STRLITPACK_39.0.2        005b7800     part_io_f:rdpart.obj
 0003:0001a808       __STRLITPACK_40.0.2        005b7808     part_io_f:rdpart.obj
 0003:0001a810       __STRLITPACK_41.0.2        005b7810     part_io_f:rdpart.obj
 0003:0001a818       __STRLITPACK_42.0.2        005b7818     part_io_f:rdpart.obj
 0003:0001a820       __STRLITPACK_43.0.2        005b7820     part_io_f:rdpart.obj
 0003:0001a828       __STRLITPACK_44.0.2        005b7828     part_io_f:rdpart.obj
 0003:0001a830       __STRLITPACK_45.0.2        005b7830     part_io_f:rdpart.obj
 0003:0001a838       __NLITPACK_0.0.2           005b7838     part_io_f:rdpart.obj
 0003:0001a840       __STRLITPACK_1287          005b7840     part_io_f:rdpart.obj
 0003:0001a880       __STRLITPACK_1138          005b7880     part_io_f:rdpart.obj
 0003:0001a8e0       __STRLITPACK_1134          005b78e0     part_io_f:rdpart.obj
 0003:0001a940       __STRLITPACK_1129          005b7940     part_io_f:rdpart.obj
 0003:0001a9a0       __STRLITPACK_1125          005b79a0     part_io_f:rdpart.obj
 0003:0001aa00       __STRLITPACK_1091          005b7a00     part_io_f:rdpart.obj
 0003:0001aa60       __STRLITPACK_1087          005b7a60     part_io_f:rdpart.obj
 0003:0001aac0       __STRLITPACK_1072          005b7ac0     part_io_f:rdpart.obj
 0003:0001ab20       __STRLITPACK_1068          005b7b20     part_io_f:rdpart.obj
 0003:0001ab80       __STRLITPACK_372           005b7b80     part_io_f:rdpart.obj
 0003:0001abc0       __STRLITPACK_278           005b7bc0     part_io_f:rdpart.obj
 0003:0001ac20       __STRLITPACK_256           005b7c20     part_io_f:rdpart.obj
 0003:0001ac80       __STRLITPACK_254           005b7c80     part_io_f:rdpart.obj
 0003:0001ace0       _2il0floatpacket.35        005b7ce0     part_io_f:rdpart.obj
 0003:0001acf0       _2il0floatpacket.36        005b7cf0     part_io_f:rdpart.obj
 0003:0001ad00       _2il0floatpacket.38        005b7d00     part_io_f:rdpart.obj
 0003:0001ad10       _2il0floatpacket.0         005b7d10     part_io_f:rdpart.obj
 0003:0001ad18       _2il0floatpacket.1         005b7d18     part_io_f:rdpart.obj
 0003:0001ad20       _2il0floatpacket.2         005b7d20     part_io_f:rdpart.obj
 0003:0001ad28       _2il0floatpacket.3         005b7d28     part_io_f:rdpart.obj
 0003:0001ad30       _2il0floatpacket.23        005b7d30     part_io_f:rdpart.obj
 0003:0001ad38       _2il0floatpacket.24        005b7d38     part_io_f:rdpart.obj
 0003:0001ad40       _2il0floatpacket.25        005b7d40     part_io_f:rdpart.obj
 0003:0001ad48       _2il0floatpacket.26        005b7d48     part_io_f:rdpart.obj
 0003:0001ad50       _2il0floatpacket.27        005b7d50     part_io_f:rdpart.obj
 0003:0001ad58       _2il0floatpacket.28        005b7d58     part_io_f:rdpart.obj
 0003:0001ad60       _2il0floatpacket.29        005b7d60     part_io_f:rdpart.obj
 0003:0001ad68       _2il0floatpacket.30        005b7d68     part_io_f:rdpart.obj
 0003:0001ad70       _2il0floatpacket.31        005b7d70     part_io_f:rdpart.obj
 0003:0001ad78       _2il0floatpacket.32        005b7d78     part_io_f:rdpart.obj
 0003:0001ad80       _2il0floatpacket.33        005b7d80     part_io_f:rdpart.obj
 0003:0001ad88       __STRLITPACK_4.0.1         005b7d88     part_io_f:rdpart.obj
 0003:0001ad90       __STRLITPACK_1             005b7d90     part_io_f:rdpart.obj
 0003:0001ad94       __STRLITPACK_0             005b7d94     part_io_f:rdpart.obj
 0003:0001ad98       __STRLITPACK_125.0.3       005b7d98     part_io_f:rdpart.obj
 0003:0001ada0       __STRLITPACK_126.0.3       005b7da0     part_io_f:rdpart.obj
 0003:0001ada8       __STRLITPACK_127.0.3       005b7da8     part_io_f:rdpart.obj
 0003:0001adb0       __STRLITPACK_149.0.3       005b7db0     part_io_f:rdpart.obj
 0003:0001adb8       __STRLITPACK_66            005b7db8     part_io_f:rdpart.obj
 0003:0001ade0       __STRLITPACK_150.0.3       005b7de0     part_io_f:rdpart.obj
 0003:0001ade8       __STRLITPACK_151.0.3       005b7de8     part_io_f:rdpart.obj
 0003:0001adf0       __STRLITPACK_62            005b7df0     part_io_f:rdpart.obj
 0003:0001ae14       __STRLITPACK_152.0.3       005b7e14     part_io_f:rdpart.obj
 0003:0001ae1c       __STRLITPACK_58            005b7e1c     part_io_f:rdpart.obj
 0003:0001ae34       __STRLITPACK_153.0.3       005b7e34     part_io_f:rdpart.obj
 0003:0001ae3c       __STRLITPACK_54            005b7e3c     part_io_f:rdpart.obj
 0003:0001ae64       __STRLITPACK_154.0.3       005b7e64     part_io_f:rdpart.obj
 0003:0001ae6c       __STRLITPACK_155.0.3       005b7e6c     part_io_f:rdpart.obj
 0003:0001ae74       __STRLITPACK_50            005b7e74     part_io_f:rdpart.obj
 0003:0001ae98       __STRLITPACK_156.0.3       005b7e98     part_io_f:rdpart.obj
 0003:0001aea0       __STRLITPACK_46            005b7ea0     part_io_f:rdpart.obj
 0003:0001aeb8       __NLITPACK_1.0.3           005b7eb8     part_io_f:rdpart.obj
 0003:0001aebc       __STRLITPACK_138.0.3       005b7ebc     part_io_f:rdpart.obj
 0003:0001aec4       __STRLITPACK_92            005b7ec4     part_io_f:rdpart.obj
 0003:0001aeec       __STRLITPACK_139.0.3       005b7eec     part_io_f:rdpart.obj
 0003:0001aef4       __STRLITPACK_140.0.3       005b7ef4     part_io_f:rdpart.obj
 0003:0001aefc       __STRLITPACK_141.0.3       005b7efc     part_io_f:rdpart.obj
 0003:0001af04       __STRLITPACK_86            005b7f04     part_io_f:rdpart.obj
 0003:0001af24       __STRLITPACK_142.0.3       005b7f24     part_io_f:rdpart.obj
 0003:0001af2c       __STRLITPACK_143.0.3       005b7f2c     part_io_f:rdpart.obj
 0003:0001af34       __STRLITPACK_82            005b7f34     part_io_f:rdpart.obj
 0003:0001af4c       __STRLITPACK_144.0.3       005b7f4c     part_io_f:rdpart.obj
 0003:0001af54       __STRLITPACK_78            005b7f54     part_io_f:rdpart.obj
 0003:0001af7c       __STRLITPACK_145.0.3       005b7f7c     part_io_f:rdpart.obj
 0003:0001af84       __STRLITPACK_146.0.3       005b7f84     part_io_f:rdpart.obj
 0003:0001af8c       __STRLITPACK_74            005b7f8c     part_io_f:rdpart.obj
 0003:0001afa8       __STRLITPACK_147.0.3       005b7fa8     part_io_f:rdpart.obj
 0003:0001afb0       __STRLITPACK_148.0.3       005b7fb0     part_io_f:rdpart.obj
 0003:0001afb8       __STRLITPACK_70            005b7fb8     part_io_f:rdpart.obj
 0003:0001afd0       __STRLITPACK_128.0.3       005b7fd0     part_io_f:rdpart.obj
 0003:0001afd8       __STRLITPACK_116           005b7fd8     part_io_f:rdpart.obj
 0003:0001b000       __STRLITPACK_129.0.3       005b8000     part_io_f:rdpart.obj
 0003:0001b008       __STRLITPACK_130.0.3       005b8008     part_io_f:rdpart.obj
 0003:0001b010       __STRLITPACK_112           005b8010     part_io_f:rdpart.obj
 0003:0001b02c       __STRLITPACK_131.0.3       005b802c     part_io_f:rdpart.obj
 0003:0001b034       __STRLITPACK_132.0.3       005b8034     part_io_f:rdpart.obj
 0003:0001b03c       __STRLITPACK_108           005b803c     part_io_f:rdpart.obj
 0003:0001b054       __STRLITPACK_133.0.3       005b8054     part_io_f:rdpart.obj
 0003:0001b05c       __STRLITPACK_104           005b805c     part_io_f:rdpart.obj
 0003:0001b084       __STRLITPACK_134.0.3       005b8084     part_io_f:rdpart.obj
 0003:0001b08c       __STRLITPACK_135.0.3       005b808c     part_io_f:rdpart.obj
 0003:0001b094       __STRLITPACK_100           005b8094     part_io_f:rdpart.obj
 0003:0001b0b0       __STRLITPACK_136.0.3       005b80b0     part_io_f:rdpart.obj
 0003:0001b0b8       __STRLITPACK_137.0.3       005b80b8     part_io_f:rdpart.obj
 0003:0001b0c0       __STRLITPACK_96            005b80c0     part_io_f:rdpart.obj
 0003:0001b0d8       __STRLITPACK_183.0.4       005b80d8     part_io_f:rdpart.obj
 0003:0001b0e0       __STRLITPACK_177           005b80e0     part_io_f:rdpart.obj
 0003:0001b108       __STRLITPACK_184.0.4       005b8108     part_io_f:rdpart.obj
 0003:0001b110       __STRLITPACK_185.0.4       005b8110     part_io_f:rdpart.obj
 0003:0001b118       __STRLITPACK_173           005b8118     part_io_f:rdpart.obj
 0003:0001b134       __STRLITPACK_186.0.4       005b8134     part_io_f:rdpart.obj
 0003:0001b13c       __STRLITPACK_187.0.4       005b813c     part_io_f:rdpart.obj
 0003:0001b144       __STRLITPACK_169           005b8144     part_io_f:rdpart.obj
 0003:0001b15c       __STRLITPACK_188.0.4       005b815c     part_io_f:rdpart.obj
 0003:0001b164       __STRLITPACK_165           005b8164     part_io_f:rdpart.obj
 0003:0001b18c       __STRLITPACK_189.0.4       005b818c     part_io_f:rdpart.obj
 0003:0001b194       __STRLITPACK_190.0.4       005b8194     part_io_f:rdpart.obj
 0003:0001b19c       __STRLITPACK_161           005b819c     part_io_f:rdpart.obj
 0003:0001b1b8       __STRLITPACK_191.0.4       005b81b8     part_io_f:rdpart.obj
 0003:0001b1c0       __STRLITPACK_192.0.4       005b81c0     part_io_f:rdpart.obj
 0003:0001b1c8       __STRLITPACK_157           005b81c8     part_io_f:rdpart.obj
 0003:0001b1e0       __NLITPACK_2.0.4           005b81e0     part_io_f:rdpart.obj
 0003:0001b1e4       __STRLITPACK_212           005b81e4     part_io_f:rdpart.obj
 0003:0001b1f0       __STRLITPACK_211           005b81f0     part_io_f:rdpart.obj
 0003:0001b1f4       __STRLITPACK_210           005b81f4     part_io_f:rdpart.obj
 0003:0001b1fc       __STRLITPACK_209           005b81fc     part_io_f:rdpart.obj
 0003:0001b200       __STRLITPACK_205           005b8200     part_io_f:rdpart.obj
 0003:0001b21c       __STRLITPACK_201           005b821c     part_io_f:rdpart.obj
 0003:0001b238       __STRLITPACK_197           005b8238     part_io_f:rdpart.obj
 0003:0001b258       __STRLITPACK_193           005b8258     part_io_f:rdpart.obj
 0003:0001b278       _2il0floatpacket.14        005b8278     part_io_f:rdpart.obj
 0003:0001b27c       _2il0floatpacket.15        005b827c     part_io_f:rdpart.obj
 0003:0001b280       _2il0floatpacket.16        005b8280     part_io_f:rdpart.obj
 0003:0001b284       _2il0floatpacket.17        005b8284     part_io_f:rdpart.obj
 0003:0001b288       _2il0floatpacket.18        005b8288     part_io_f:rdpart.obj
 0003:0001b28c       _2il0floatpacket.19        005b828c     part_io_f:rdpart.obj
 0003:0001b290       _2il0floatpacket.20        005b8290     part_io_f:rdpart.obj
 0003:0001b294       _2il0floatpacket.21        005b8294     part_io_f:rdpart.obj
 0003:0001b298       _2il0floatpacket.22        005b8298     part_io_f:rdpart.obj
 0003:0001b29c       _2il0floatpacket.34        005b829c     part_io_f:rdpart.obj
 0003:0001b2a0       _2il0floatpacket.37        005b82a0     part_io_f:rdpart.obj
 0003:0001b2a4       __STRLITPACK_1481          005b82a4     part_io_f:rdpart.obj
 0003:0001b2ac       __STRLITPACK_1478          005b82ac     part_io_f:rdpart.obj
 0003:0001b2b0       __STRLITPACK_1477          005b82b0     part_io_f:rdpart.obj
 0003:0001b2c4       __STRLITPACK_1475          005b82c4     part_io_f:rdpart.obj
 0003:0001b2cc       __STRLITPACK_1471          005b82cc     part_io_f:rdpart.obj
 0003:0001b2e4       __STRLITPACK_1467          005b82e4     part_io_f:rdpart.obj
 0003:0001b304       __STRLITPACK_1462          005b8304     part_io_f:rdpart.obj
 0003:0001b324       __STRLITPACK_1461          005b8324     part_io_f:rdpart.obj
 0003:0001b330       __STRLITPACK_1457          005b8330     part_io_f:rdpart.obj
 0003:0001b348       __STRLITPACK_1453          005b8348     part_io_f:rdpart.obj
 0003:0001b368       __STRLITPACK_1448          005b8368     part_io_f:rdpart.obj
 0003:0001b388       __STRLITPACK_1447          005b8388     part_io_f:rdpart.obj
 0003:0001b394       __STRLITPACK_1496          005b8394     part_io_f:rdpart.obj
 0003:0001b398       __STRLITPACK_522           005b8398     part_io_f:rdpart.obj
 0003:0001b3bc       __STRLITPACK_520           005b83bc     part_io_f:rdpart.obj
 0003:0001b3d4       __STRLITPACK_518           005b83d4     part_io_f:rdpart.obj
 0003:0001b404       __STRLITPACK_516           005b8404     part_io_f:rdpart.obj
 0003:0001b438       __STRLITPACK_514           005b8438     part_io_f:rdpart.obj
 0003:0001b46c       __STRLITPACK_512           005b846c     part_io_f:rdpart.obj
 0003:0001b4ac       __STRLITPACK_509           005b84ac     part_io_f:rdpart.obj
 0003:0001b4e4       __STRLITPACK_508           005b84e4     part_io_f:rdpart.obj
 0003:0001b514       __STRLITPACK_506           005b8514     part_io_f:rdpart.obj
 0003:0001b54c       __STRLITPACK_504           005b854c     part_io_f:rdpart.obj
 0003:0001b584       __STRLITPACK_502           005b8584     part_io_f:rdpart.obj
 0003:0001b5bc       __STRLITPACK_500           005b85bc     part_io_f:rdpart.obj
 0003:0001b5f4       __STRLITPACK_498           005b85f4     part_io_f:rdpart.obj
 0003:0001b628       __STRLITPACK_496           005b8628     part_io_f:rdpart.obj
 0003:0001b660       __STRLITPACK_494           005b8660     part_io_f:rdpart.obj
 0003:0001b698       __STRLITPACK_492           005b8698     part_io_f:rdpart.obj
 0003:0001b6cc       __STRLITPACK_490           005b86cc     part_io_f:rdpart.obj
 0003:0001b704       __STRLITPACK_488           005b8704     part_io_f:rdpart.obj
 0003:0001b73c       __STRLITPACK_485           005b873c     part_io_f:rdpart.obj
 0003:0001b760       __STRLITPACK_484           005b8760     part_io_f:rdpart.obj
 0003:0001b77c       __STRLITPACK_481           005b877c     part_io_f:rdpart.obj
 0003:0001b7a8       __STRLITPACK_480           005b87a8     part_io_f:rdpart.obj
 0003:0001b7c4       __STRLITPACK_477           005b87c4     part_io_f:rdpart.obj
 0003:0001b7e4       __STRLITPACK_476           005b87e4     part_io_f:rdpart.obj
 0003:0001b800       __STRLITPACK_473           005b8800     part_io_f:rdpart.obj
 0003:0001b820       __STRLITPACK_472           005b8820     part_io_f:rdpart.obj
 0003:0001b83c       __STRLITPACK_470           005b883c     part_io_f:rdpart.obj
 0003:0001b870       __STRLITPACK_467           005b8870     part_io_f:rdpart.obj
 0003:0001b890       __STRLITPACK_466           005b8890     part_io_f:rdpart.obj
 0003:0001b8ac       __STRLITPACK_463           005b88ac     part_io_f:rdpart.obj
 0003:0001b8cc       __STRLITPACK_462           005b88cc     part_io_f:rdpart.obj
 0003:0001b8e8       __STRLITPACK_459           005b88e8     part_io_f:rdpart.obj
 0003:0001b908       __STRLITPACK_458           005b8908     part_io_f:rdpart.obj
 0003:0001b924       __STRLITPACK_455           005b8924     part_io_f:rdpart.obj
 0003:0001b944       __STRLITPACK_454           005b8944     part_io_f:rdpart.obj
 0003:0001b960       __STRLITPACK_451           005b8960     part_io_f:rdpart.obj
 0003:0001b980       __STRLITPACK_450           005b8980     part_io_f:rdpart.obj
 0003:0001b99c       __STRLITPACK_447           005b899c     part_io_f:rdpart.obj
 0003:0001b9bc       __STRLITPACK_446           005b89bc     part_io_f:rdpart.obj
 0003:0001b9d8       __STRLITPACK_443           005b89d8     part_io_f:rdpart.obj
 0003:0001ba08       __STRLITPACK_442           005b8a08     part_io_f:rdpart.obj
 0003:0001ba24       __STRLITPACK_439           005b8a24     part_io_f:rdpart.obj
 0003:0001ba48       __STRLITPACK_438           005b8a48     part_io_f:rdpart.obj
 0003:0001ba64       __STRLITPACK_436           005b8a64     part_io_f:rdpart.obj
 0003:0001ba9c       __STRLITPACK_434           005b8a9c     part_io_f:rdpart.obj
 0003:0001bacc       __STRLITPACK_432           005b8acc     part_io_f:rdpart.obj
 0003:0001bb04       __STRLITPACK_430           005b8b04     part_io_f:rdpart.obj
 0003:0001bb3c       __STRLITPACK_428           005b8b3c     part_io_f:rdpart.obj
 0003:0001bb78       __STRLITPACK_426           005b8b78     part_io_f:rdpart.obj
 0003:0001bbb8       __STRLITPACK_424           005b8bb8     part_io_f:rdpart.obj
 0003:0001bbf8       __STRLITPACK_422           005b8bf8     part_io_f:rdpart.obj
 0003:0001bc38       __STRLITPACK_419           005b8c38     part_io_f:rdpart.obj
 0003:0001bc6c       __STRLITPACK_418           005b8c6c     part_io_f:rdpart.obj
 0003:0001bca4       __STRLITPACK_415           005b8ca4     part_io_f:rdpart.obj
 0003:0001bce4       __STRLITPACK_414           005b8ce4     part_io_f:rdpart.obj
 0003:0001bd00       __STRLITPACK_1445          005b8d00     part_io_f:rdpart.obj
 0003:0001bd30       __STRLITPACK_1443          005b8d30     part_io_f:rdpart.obj
 0003:0001bd60       __STRLITPACK_1441          005b8d60     part_io_f:rdpart.obj
 0003:0001bd80       __STRLITPACK_1437          005b8d80     part_io_f:rdpart.obj
 0003:0001bdb0       __STRLITPACK_1433          005b8db0     part_io_f:rdpart.obj
 0003:0001bddc       __STRLITPACK_1431          005b8ddc     part_io_f:rdpart.obj
 0003:0001bde0       __STRLITPACK_1429          005b8de0     part_io_f:rdpart.obj
 0003:0001be00       __STRLITPACK_1427          005b8e00     part_io_f:rdpart.obj
 0003:0001be04       __STRLITPACK_1424          005b8e04     part_io_f:rdpart.obj
 0003:0001be24       __STRLITPACK_1423          005b8e24     part_io_f:rdpart.obj
 0003:0001be30       __STRLITPACK_1420          005b8e30     part_io_f:rdpart.obj
 0003:0001be50       __STRLITPACK_1419          005b8e50     part_io_f:rdpart.obj
 0003:0001be5c       __STRLITPACK_1417          005b8e5c     part_io_f:rdpart.obj
 0003:0001be60       __STRLITPACK_1415          005b8e60     part_io_f:rdpart.obj
 0003:0001be64       __STRLITPACK_1413          005b8e64     part_io_f:rdpart.obj
 0003:0001be84       __STRLITPACK_1411          005b8e84     part_io_f:rdpart.obj
 0003:0001be88       __STRLITPACK_1408          005b8e88     part_io_f:rdpart.obj
 0003:0001bea8       __STRLITPACK_1407          005b8ea8     part_io_f:rdpart.obj
 0003:0001beb4       __STRLITPACK_1404          005b8eb4     part_io_f:rdpart.obj
 0003:0001bed4       __STRLITPACK_1403          005b8ed4     part_io_f:rdpart.obj
 0003:0001bee0       __STRLITPACK_1401          005b8ee0     part_io_f:rdpart.obj
 0003:0001bee4       __STRLITPACK_1397          005b8ee4     part_io_f:rdpart.obj
 0003:0001bf0c       __STRLITPACK_1373          005b8f0c     part_io_f:rdpart.obj
 0003:0001bf10       __STRLITPACK_1371          005b8f10     part_io_f:rdpart.obj
 0003:0001bf48       __STRLITPACK_1369          005b8f48     part_io_f:rdpart.obj
 0003:0001bf68       __STRLITPACK_1367          005b8f68     part_io_f:rdpart.obj
 0003:0001bf6c       __STRLITPACK_1365          005b8f6c     part_io_f:rdpart.obj
 0003:0001bf70       __STRLITPACK_1363          005b8f70     part_io_f:rdpart.obj
 0003:0001bf94       __STRLITPACK_1361          005b8f94     part_io_f:rdpart.obj
 0003:0001bf98       __STRLITPACK_1359          005b8f98     part_io_f:rdpart.obj
 0003:0001bf9c       __STRLITPACK_1357          005b8f9c     part_io_f:rdpart.obj
 0003:0001bfcc       __STRLITPACK_1355          005b8fcc     part_io_f:rdpart.obj
 0003:0001bffc       __STRLITPACK_1353          005b8ffc     part_io_f:rdpart.obj
 0003:0001c02c       __STRLITPACK_1351          005b902c     part_io_f:rdpart.obj
 0003:0001c05c       __STRLITPACK_1349          005b905c     part_io_f:rdpart.obj
 0003:0001c060       __STRLITPACK_1347          005b9060     part_io_f:rdpart.obj
 0003:0001c064       __STRLITPACK_1345          005b9064     part_io_f:rdpart.obj
 0003:0001c088       __STRLITPACK_1343          005b9088     part_io_f:rdpart.obj
 0003:0001c08c       __STRLITPACK_1341          005b908c     part_io_f:rdpart.obj
 0003:0001c0b8       __STRLITPACK_1339          005b90b8     part_io_f:rdpart.obj
 0003:0001c0e4       __STRLITPACK_1395          005b90e4     part_io_f:rdpart.obj
 0003:0001c0e8       __STRLITPACK_1392          005b90e8     part_io_f:rdpart.obj
 0003:0001c0fc       __STRLITPACK_1391          005b90fc     part_io_f:rdpart.obj
 0003:0001c104       __STRLITPACK_1389          005b9104     part_io_f:rdpart.obj
 0003:0001c118       __STRLITPACK_1387          005b9118     part_io_f:rdpart.obj
 0003:0001c11c       __STRLITPACK_1385          005b911c     part_io_f:rdpart.obj
 0003:0001c120       __STRLITPACK_1383          005b9120     part_io_f:rdpart.obj
 0003:0001c144       __STRLITPACK_1381          005b9144     part_io_f:rdpart.obj
 0003:0001c148       __STRLITPACK_1337          005b9148     part_io_f:rdpart.obj
 0003:0001c14c       __STRLITPACK_1335          005b914c     part_io_f:rdpart.obj
 0003:0001c164       __STRLITPACK_1331          005b9164     part_io_f:rdpart.obj
 0003:0001c180       __STRLITPACK_1330          005b9180     part_io_f:rdpart.obj
 0003:0001c188       __STRLITPACK_1329          005b9188     part_io_f:rdpart.obj
 0003:0001c190       __STRLITPACK_1289          005b9190     part_io_f:rdpart.obj
 0003:0001c1bc       __STRLITPACK_1309          005b91bc     part_io_f:rdpart.obj
 0003:0001c1dc       __STRLITPACK_1305          005b91dc     part_io_f:rdpart.obj
 0003:0001c1fc       __STRLITPACK_1303          005b91fc     part_io_f:rdpart.obj
 0003:0001c224       __STRLITPACK_1301          005b9224     part_io_f:rdpart.obj
 0003:0001c24c       __STRLITPACK_1299          005b924c     part_io_f:rdpart.obj
 0003:0001c274       __STRLITPACK_1297          005b9274     part_io_f:rdpart.obj
 0003:0001c29c       __STRLITPACK_1295          005b929c     part_io_f:rdpart.obj
 0003:0001c2cc       __STRLITPACK_1293          005b92cc     part_io_f:rdpart.obj
 0003:0001c2fc       __STRLITPACK_1319          005b92fc     part_io_f:rdpart.obj
 0003:0001c330       __STRLITPACK_1317          005b9330     part_io_f:rdpart.obj
 0003:0001c368       __STRLITPACK_1315          005b9368     part_io_f:rdpart.obj
 0003:0001c39c       __STRLITPACK_1313          005b939c     part_io_f:rdpart.obj
 0003:0001c3d4       __STRLITPACK_1321          005b93d4     part_io_f:rdpart.obj
 0003:0001c404       __STRLITPACK_1323          005b9404     part_io_f:rdpart.obj
 0003:0001c428       __STRLITPACK_1286          005b9428     part_io_f:rdpart.obj
 0003:0001c430       __STRLITPACK_1285          005b9430     part_io_f:rdpart.obj
 0003:0001c438       __STRLITPACK_1284          005b9438     part_io_f:rdpart.obj
 0003:0001c440       __STRLITPACK_1282          005b9440     part_io_f:rdpart.obj
 0003:0001c46c       __STRLITPACK_1280          005b946c     part_io_f:rdpart.obj
 0003:0001c498       __STRLITPACK_1279          005b9498     part_io_f:rdpart.obj
 0003:0001c4a0       __STRLITPACK_1278          005b94a0     part_io_f:rdpart.obj
 0003:0001c4a8       __STRLITPACK_1273          005b94a8     part_io_f:rdpart.obj
 0003:0001c4ac       __STRLITPACK_1269          005b94ac     part_io_f:rdpart.obj
 0003:0001c4b0       __STRLITPACK_1263          005b94b0     part_io_f:rdpart.obj
 0003:0001c4dc       __STRLITPACK_1261          005b94dc     part_io_f:rdpart.obj
 0003:0001c4f8       __STRLITPACK_1259          005b94f8     part_io_f:rdpart.obj
 0003:0001c514       __STRLITPACK_1257          005b9514     part_io_f:rdpart.obj
 0003:0001c544       __STRLITPACK_1265          005b9544     part_io_f:rdpart.obj
 0003:0001c554       __STRLITPACK_1239          005b9554     part_io_f:rdpart.obj
 0003:0001c55c       __STRLITPACK_1238          005b955c     part_io_f:rdpart.obj
 0003:0001c564       __STRLITPACK_1237          005b9564     part_io_f:rdpart.obj
 0003:0001c56c       __STRLITPACK_1236          005b956c     part_io_f:rdpart.obj
 0003:0001c574       __STRLITPACK_1235          005b9574     part_io_f:rdpart.obj
 0003:0001c57c       __STRLITPACK_1232          005b957c     part_io_f:rdpart.obj
 0003:0001c584       __STRLITPACK_1231          005b9584     part_io_f:rdpart.obj
 0003:0001c58c       __STRLITPACK_1227          005b958c     part_io_f:rdpart.obj
 0003:0001c598       __STRLITPACK_1223          005b9598     part_io_f:rdpart.obj
 0003:0001c5c8       __STRLITPACK_1219          005b95c8     part_io_f:rdpart.obj
 0003:0001c5fc       __STRLITPACK_1215          005b95fc     part_io_f:rdpart.obj
 0003:0001c630       __STRLITPACK_1211          005b9630     part_io_f:rdpart.obj
 0003:0001c664       __STRLITPACK_1207          005b9664     part_io_f:rdpart.obj
 0003:0001c698       __STRLITPACK_1203          005b9698     part_io_f:rdpart.obj
 0003:0001c6cc       __STRLITPACK_1187          005b96cc     part_io_f:rdpart.obj
 0003:0001c700       __STRLITPACK_1183          005b9700     part_io_f:rdpart.obj
 0003:0001c734       __STRLITPACK_1179          005b9734     part_io_f:rdpart.obj
 0003:0001c768       __STRLITPACK_1175          005b9768     part_io_f:rdpart.obj
 0003:0001c79c       __STRLITPACK_1171          005b979c     part_io_f:rdpart.obj
 0003:0001c7d0       __STRLITPACK_1167          005b97d0     part_io_f:rdpart.obj
 0003:0001c804       __STRLITPACK_1163          005b9804     part_io_f:rdpart.obj
 0003:0001c838       __STRLITPACK_1159          005b9838     part_io_f:rdpart.obj
 0003:0001c850       __STRLITPACK_1155          005b9850     part_io_f:rdpart.obj
 0003:0001c884       __STRLITPACK_1151          005b9884     part_io_f:rdpart.obj
 0003:0001c8b8       __STRLITPACK_1150          005b98b8     part_io_f:rdpart.obj
 0003:0001c8c0       __STRLITPACK_1146          005b98c0     part_io_f:rdpart.obj
 0003:0001c8e4       __STRLITPACK_1142          005b98e4     part_io_f:rdpart.obj
 0003:0001c904       __STRLITPACK_1133          005b9904     part_io_f:rdpart.obj
 0003:0001c918       __STRLITPACK_1124          005b9918     part_io_f:rdpart.obj
 0003:0001c92c       __STRLITPACK_1120          005b992c     part_io_f:rdpart.obj
 0003:0001c954       __STRLITPACK_1116          005b9954     part_io_f:rdpart.obj
 0003:0001c97c       __STRLITPACK_1111          005b997c     part_io_f:rdpart.obj
 0003:0001c9b0       __STRLITPACK_1110          005b99b0     part_io_f:rdpart.obj
 0003:0001c9e4       __STRLITPACK_1105          005b99e4     part_io_f:rdpart.obj
 0003:0001ca14       __STRLITPACK_1104          005b9a14     part_io_f:rdpart.obj
 0003:0001ca48       __STRLITPACK_1103          005b9a48     part_io_f:rdpart.obj
 0003:0001ca58       __STRLITPACK_1099          005b9a58     part_io_f:rdpart.obj
 0003:0001ca7c       __STRLITPACK_1095          005b9a7c     part_io_f:rdpart.obj
 0003:0001caa0       __STRLITPACK_1086          005b9aa0     part_io_f:rdpart.obj
 0003:0001cab4       __STRLITPACK_1085          005b9ab4     part_io_f:rdpart.obj
 0003:0001cac0       __STRLITPACK_1084          005b9ac0     part_io_f:rdpart.obj
 0003:0001cacc       __STRLITPACK_1083          005b9acc     part_io_f:rdpart.obj
 0003:0001cad8       __STRLITPACK_1082          005b9ad8     part_io_f:rdpart.obj
 0003:0001cae4       __STRLITPACK_1081          005b9ae4     part_io_f:rdpart.obj
 0003:0001caf0       __STRLITPACK_1080          005b9af0     part_io_f:rdpart.obj
 0003:0001cafc       __STRLITPACK_1079          005b9afc     part_io_f:rdpart.obj
 0003:0001cb08       __STRLITPACK_1078          005b9b08     part_io_f:rdpart.obj
 0003:0001cb14       __STRLITPACK_1077          005b9b14     part_io_f:rdpart.obj
 0003:0001cb18       __STRLITPACK_1076          005b9b18     part_io_f:rdpart.obj
 0003:0001cb20       __STRLITPACK_1058          005b9b20     part_io_f:rdpart.obj
 0003:0001cb50       __STRLITPACK_1046          005b9b50     part_io_f:rdpart.obj
 0003:0001cb54       __STRLITPACK_1039          005b9b54     part_io_f:rdpart.obj
 0003:0001cb5c       __STRLITPACK_1038          005b9b5c     part_io_f:rdpart.obj
 0003:0001cb64       __STRLITPACK_1037          005b9b64     part_io_f:rdpart.obj
 0003:0001cb6c       __STRLITPACK_1036          005b9b6c     part_io_f:rdpart.obj
 0003:0001cb70       __STRLITPACK_1035          005b9b70     part_io_f:rdpart.obj
 0003:0001cb7c       __STRLITPACK_1034          005b9b7c     part_io_f:rdpart.obj
 0003:0001cb84       __STRLITPACK_1033          005b9b84     part_io_f:rdpart.obj
 0003:0001cb8c       __STRLITPACK_1032          005b9b8c     part_io_f:rdpart.obj
 0003:0001cb90       __STRLITPACK_1031          005b9b90     part_io_f:rdpart.obj
 0003:0001cb98       __STRLITPACK_1030          005b9b98     part_io_f:rdpart.obj
 0003:0001cba0       __STRLITPACK_1029          005b9ba0     part_io_f:rdpart.obj
 0003:0001cbac       __STRLITPACK_1028          005b9bac     part_io_f:rdpart.obj
 0003:0001cbb8       __STRLITPACK_1027          005b9bb8     part_io_f:rdpart.obj
 0003:0001cbc4       __STRLITPACK_1026          005b9bc4     part_io_f:rdpart.obj
 0003:0001cbd0       __STRLITPACK_1025          005b9bd0     part_io_f:rdpart.obj
 0003:0001cbd4       __STRLITPACK_1019          005b9bd4     part_io_f:rdpart.obj
 0003:0001cbdc       __STRLITPACK_1018          005b9bdc     part_io_f:rdpart.obj
 0003:0001cbe4       __STRLITPACK_1017          005b9be4     part_io_f:rdpart.obj
 0003:0001cbec       __STRLITPACK_1016          005b9bec     part_io_f:rdpart.obj
 0003:0001cbf4       __STRLITPACK_1015          005b9bf4     part_io_f:rdpart.obj
 0003:0001cbfc       __STRLITPACK_1007          005b9bfc     part_io_f:rdpart.obj
 0003:0001cc18       __STRLITPACK_995           005b9c18     part_io_f:rdpart.obj
 0003:0001cc20       __STRLITPACK_994           005b9c20     part_io_f:rdpart.obj
 0003:0001cc28       __STRLITPACK_993           005b9c28     part_io_f:rdpart.obj
 0003:0001cc30       __STRLITPACK_992           005b9c30     part_io_f:rdpart.obj
 0003:0001cc38       __STRLITPACK_991           005b9c38     part_io_f:rdpart.obj
 0003:0001cc40       __STRLITPACK_990           005b9c40     part_io_f:rdpart.obj
 0003:0001cc48       __STRLITPACK_989           005b9c48     part_io_f:rdpart.obj
 0003:0001cc50       __STRLITPACK_988           005b9c50     part_io_f:rdpart.obj
 0003:0001cc58       __STRLITPACK_987           005b9c58     part_io_f:rdpart.obj
 0003:0001cc60       __STRLITPACK_986           005b9c60     part_io_f:rdpart.obj
 0003:0001cc68       __STRLITPACK_985           005b9c68     part_io_f:rdpart.obj
 0003:0001cc70       __STRLITPACK_412           005b9c70     part_io_f:rdpart.obj
 0003:0001cca4       __STRLITPACK_410           005b9ca4     part_io_f:rdpart.obj
 0003:0001ccdc       __STRLITPACK_408           005b9cdc     part_io_f:rdpart.obj
 0003:0001cd14       __STRLITPACK_405           005b9d14     part_io_f:rdpart.obj
 0003:0001cd38       __STRLITPACK_404           005b9d38     part_io_f:rdpart.obj
 0003:0001cd54       __STRLITPACK_401           005b9d54     part_io_f:rdpart.obj
 0003:0001cd84       __STRLITPACK_400           005b9d84     part_io_f:rdpart.obj
 0003:0001cda0       __STRLITPACK_398           005b9da0     part_io_f:rdpart.obj
 0003:0001cdd8       __STRLITPACK_396           005b9dd8     part_io_f:rdpart.obj
 0003:0001ce10       __STRLITPACK_393           005b9e10     part_io_f:rdpart.obj
 0003:0001ce38       __STRLITPACK_392           005b9e38     part_io_f:rdpart.obj
 0003:0001ce54       __STRLITPACK_389           005b9e54     part_io_f:rdpart.obj
 0003:0001ce8c       __STRLITPACK_388           005b9e8c     part_io_f:rdpart.obj
 0003:0001cea8       __STRLITPACK_385           005b9ea8     part_io_f:rdpart.obj
 0003:0001cedc       __STRLITPACK_384           005b9edc     part_io_f:rdpart.obj
 0003:0001cef8       __STRLITPACK_381           005b9ef8     part_io_f:rdpart.obj
 0003:0001cf28       __STRLITPACK_380           005b9f28     part_io_f:rdpart.obj
 0003:0001cf44       __STRLITPACK_377           005b9f44     part_io_f:rdpart.obj
 0003:0001cf6c       __STRLITPACK_376           005b9f6c     part_io_f:rdpart.obj
 0003:0001cf88       __STRLITPACK_373           005b9f88     part_io_f:rdpart.obj
 0003:0001cfbc       __STRLITPACK_369           005b9fbc     part_io_f:rdpart.obj
 0003:0001cfe8       __STRLITPACK_368           005b9fe8     part_io_f:rdpart.obj
 0003:0001d004       __STRLITPACK_366           005ba004     part_io_f:rdpart.obj
 0003:0001d038       __STRLITPACK_363           005ba038     part_io_f:rdpart.obj
 0003:0001d06c       __STRLITPACK_362           005ba06c     part_io_f:rdpart.obj
 0003:0001d088       __STRLITPACK_360           005ba088     part_io_f:rdpart.obj
 0003:0001d0c0       __STRLITPACK_357           005ba0c0     part_io_f:rdpart.obj
 0003:0001d0f4       __STRLITPACK_356           005ba0f4     part_io_f:rdpart.obj
 0003:0001d110       __STRLITPACK_353           005ba110     part_io_f:rdpart.obj
 0003:0001d144       __STRLITPACK_352           005ba144     part_io_f:rdpart.obj
 0003:0001d160       __STRLITPACK_349           005ba160     part_io_f:rdpart.obj
 0003:0001d180       __STRLITPACK_348           005ba180     part_io_f:rdpart.obj
 0003:0001d19c       __STRLITPACK_345           005ba19c     part_io_f:rdpart.obj
 0003:0001d1d4       __STRLITPACK_344           005ba1d4     part_io_f:rdpart.obj
 0003:0001d1ec       __STRLITPACK_341           005ba1ec     part_io_f:rdpart.obj
 0003:0001d220       __STRLITPACK_340           005ba220     part_io_f:rdpart.obj
 0003:0001d238       __STRLITPACK_337           005ba238     part_io_f:rdpart.obj
 0003:0001d268       __STRLITPACK_336           005ba268     part_io_f:rdpart.obj
 0003:0001d284       __STRLITPACK_333           005ba284     part_io_f:rdpart.obj
 0003:0001d2b4       __STRLITPACK_332           005ba2b4     part_io_f:rdpart.obj
 0003:0001d2d0       __STRLITPACK_329           005ba2d0     part_io_f:rdpart.obj
 0003:0001d304       __STRLITPACK_328           005ba304     part_io_f:rdpart.obj
 0003:0001d320       __STRLITPACK_326           005ba320     part_io_f:rdpart.obj
 0003:0001d34c       __STRLITPACK_323           005ba34c     part_io_f:rdpart.obj
 0003:0001d378       __STRLITPACK_322           005ba378     part_io_f:rdpart.obj
 0003:0001d394       __STRLITPACK_319           005ba394     part_io_f:rdpart.obj
 0003:0001d3bc       __STRLITPACK_318           005ba3bc     part_io_f:rdpart.obj
 0003:0001d3d8       __STRLITPACK_315           005ba3d8     part_io_f:rdpart.obj
 0003:0001d410       __STRLITPACK_314           005ba410     part_io_f:rdpart.obj
 0003:0001d448       __STRLITPACK_311           005ba448     part_io_f:rdpart.obj
 0003:0001d474       __STRLITPACK_310           005ba474     part_io_f:rdpart.obj
 0003:0001d490       __STRLITPACK_307           005ba490     part_io_f:rdpart.obj
 0003:0001d4bc       __STRLITPACK_306           005ba4bc     part_io_f:rdpart.obj
 0003:0001d4e8       __STRLITPACK_303           005ba4e8     part_io_f:rdpart.obj
 0003:0001d514       __STRLITPACK_302           005ba514     part_io_f:rdpart.obj
 0003:0001d530       __STRLITPACK_299           005ba530     part_io_f:rdpart.obj
 0003:0001d55c       __STRLITPACK_298           005ba55c     part_io_f:rdpart.obj
 0003:0001d578       __STRLITPACK_295           005ba578     part_io_f:rdpart.obj
 0003:0001d5ac       __STRLITPACK_294           005ba5ac     part_io_f:rdpart.obj
 0003:0001d5d4       __STRLITPACK_291           005ba5d4     part_io_f:rdpart.obj
 0003:0001d5f8       __STRLITPACK_290           005ba5f8     part_io_f:rdpart.obj
 0003:0001d614       __STRLITPACK_287           005ba614     part_io_f:rdpart.obj
 0003:0001d638       __STRLITPACK_286           005ba638     part_io_f:rdpart.obj
 0003:0001d654       __STRLITPACK_283           005ba654     part_io_f:rdpart.obj
 0003:0001d67c       __STRLITPACK_282           005ba67c     part_io_f:rdpart.obj
 0003:0001d6b4       __STRLITPACK_280           005ba6b4     part_io_f:rdpart.obj
 0003:0001d6e8       __STRLITPACK_276           005ba6e8     part_io_f:rdpart.obj
 0003:0001d724       __STRLITPACK_274           005ba724     part_io_f:rdpart.obj
 0003:0001d748       __STRLITPACK_272           005ba748     part_io_f:rdpart.obj
 0003:0001d76c       __STRLITPACK_270           005ba76c     part_io_f:rdpart.obj
 0003:0001d790       __STRLITPACK_268           005ba790     part_io_f:rdpart.obj
 0003:0001d7b4       __STRLITPACK_266           005ba7b4     part_io_f:rdpart.obj
 0003:0001d7d8       __STRLITPACK_264           005ba7d8     part_io_f:rdpart.obj
 0003:0001d804       __STRLITPACK_262           005ba804     part_io_f:rdpart.obj
 0003:0001d830       __STRLITPACK_260           005ba830     part_io_f:rdpart.obj
 0003:0001d86c       __STRLITPACK_258           005ba86c     part_io_f:rdpart.obj
 0003:0001d8a8       __STRLITPACK_252           005ba8a8     part_io_f:rdpart.obj
 0003:0001d8e8       __STRLITPACK_250           005ba8e8     part_io_f:rdpart.obj
 0003:0001d928       __STRLITPACK_248           005ba928     part_io_f:rdpart.obj
 0003:0001d960       __STRLITPACK_246           005ba960     part_io_f:rdpart.obj
 0003:0001d998       __STRLITPACK_244           005ba998     part_io_f:rdpart.obj
 0003:0001d9cc       __STRLITPACK_242           005ba9cc     part_io_f:rdpart.obj
 0003:0001da00       __STRLITPACK_239           005baa00     part_io_f:rdpart.obj
 0003:0001da14       __STRLITPACK_238           005baa14     part_io_f:rdpart.obj
 0003:0001da2c       __STRLITPACK_235           005baa2c     part_io_f:rdpart.obj
 0003:0001da40       __STRLITPACK_234           005baa40     part_io_f:rdpart.obj
 0003:0001da58       __STRLITPACK_229           005baa58     part_io_f:rdpart.obj
 0003:0001da64       __STRLITPACK_228           005baa64     part_io_f:rdpart.obj
 0003:0001da8c       __STRLITPACK_223           005baa8c     part_io_f:rdpart.obj
 0003:0001da98       __STRLITPACK_222           005baa98     part_io_f:rdpart.obj
 0003:0001dac0       __STRLITPACK_984           005baac0     part_io_f:rdpart.obj
 0003:0001dac8       __STRLITPACK_983           005baac8     part_io_f:rdpart.obj
 0003:0001dad0       __STRLITPACK_982           005baad0     part_io_f:rdpart.obj
 0003:0001dad8       __STRLITPACK_981           005baad8     part_io_f:rdpart.obj
 0003:0001dae0       __STRLITPACK_980           005baae0     part_io_f:rdpart.obj
 0003:0001dae8       __STRLITPACK_979           005baae8     part_io_f:rdpart.obj
 0003:0001daf0       __STRLITPACK_978           005baaf0     part_io_f:rdpart.obj
 0003:0001daf8       __STRLITPACK_977           005baaf8     part_io_f:rdpart.obj
 0003:0001db00       __STRLITPACK_976           005bab00     part_io_f:rdpart.obj
 0003:0001db08       __STRLITPACK_975           005bab08     part_io_f:rdpart.obj
 0003:0001db10       __STRLITPACK_974           005bab10     part_io_f:rdpart.obj
 0003:0001db18       __STRLITPACK_973           005bab18     part_io_f:rdpart.obj
 0003:0001db20       __STRLITPACK_972           005bab20     part_io_f:rdpart.obj
 0003:0001db28       __STRLITPACK_971           005bab28     part_io_f:rdpart.obj
 0003:0001db30       __STRLITPACK_970           005bab30     part_io_f:rdpart.obj
 0003:0001db38       __STRLITPACK_969           005bab38     part_io_f:rdpart.obj
 0003:0001db40       __STRLITPACK_968           005bab40     part_io_f:rdpart.obj
 0003:0001db48       __STRLITPACK_964           005bab48     part_io_f:rdpart.obj
 0003:0001db58       __STRLITPACK_960           005bab58     part_io_f:rdpart.obj
 0003:0001db7c       __STRLITPACK_956           005bab7c     part_io_f:rdpart.obj
 0003:0001dba0       __STRLITPACK_955           005baba0     part_io_f:rdpart.obj
 0003:0001dba8       __STRLITPACK_954           005baba8     part_io_f:rdpart.obj
 0003:0001dbb0       __STRLITPACK_953           005babb0     part_io_f:rdpart.obj
 0003:0001dbb8       __STRLITPACK_949           005babb8     part_io_f:rdpart.obj
 0003:0001dbd4       __STRLITPACK_945           005babd4     part_io_f:rdpart.obj
 0003:0001dbe0       __STRLITPACK_942           005babe0     part_io_f:rdpart.obj
 0003:0001dbe8       __STRLITPACK_941           005babe8     part_io_f:rdpart.obj
 0003:0001dbf0       __STRLITPACK_940           005babf0     part_io_f:rdpart.obj
 0003:0001dbf8       __STRLITPACK_939           005babf8     part_io_f:rdpart.obj
 0003:0001dc00       __STRLITPACK_938           005bac00     part_io_f:rdpart.obj
 0003:0001dc08       __STRLITPACK_937           005bac08     part_io_f:rdpart.obj
 0003:0001dc10       __STRLITPACK_936           005bac10     part_io_f:rdpart.obj
 0003:0001dc18       __STRLITPACK_935           005bac18     part_io_f:rdpart.obj
 0003:0001dc20       __STRLITPACK_934           005bac20     part_io_f:rdpart.obj
 0003:0001dc28       __STRLITPACK_933           005bac28     part_io_f:rdpart.obj
 0003:0001dc30       __STRLITPACK_932           005bac30     part_io_f:rdpart.obj
 0003:0001dc38       __STRLITPACK_931           005bac38     part_io_f:rdpart.obj
 0003:0001dc40       __STRLITPACK_930           005bac40     part_io_f:rdpart.obj
 0003:0001dc48       __STRLITPACK_929           005bac48     part_io_f:rdpart.obj
 0003:0001dc50       __STRLITPACK_928           005bac50     part_io_f:rdpart.obj
 0003:0001dc58       __STRLITPACK_927           005bac58     part_io_f:rdpart.obj
 0003:0001dc60       __STRLITPACK_926           005bac60     part_io_f:rdpart.obj
 0003:0001dc68       __STRLITPACK_922           005bac68     part_io_f:rdpart.obj
 0003:0001dc78       __STRLITPACK_919           005bac78     part_io_f:rdpart.obj
 0003:0001dc80       __STRLITPACK_918           005bac80     part_io_f:rdpart.obj
 0003:0001dc88       __STRLITPACK_917           005bac88     part_io_f:rdpart.obj
 0003:0001dc90       __STRLITPACK_906           005bac90     part_io_f:rdpart.obj
 0003:0001dc98       __STRLITPACK_905           005bac98     part_io_f:rdpart.obj
 0003:0001dca0       __STRLITPACK_904           005baca0     part_io_f:rdpart.obj
 0003:0001dca8       __STRLITPACK_903           005baca8     part_io_f:rdpart.obj
 0003:0001dcb0       __STRLITPACK_902           005bacb0     part_io_f:rdpart.obj
 0003:0001dcb8       __STRLITPACK_901           005bacb8     part_io_f:rdpart.obj
 0003:0001dcc0       __STRLITPACK_900           005bacc0     part_io_f:rdpart.obj
 0003:0001dccc       __STRLITPACK_884           005baccc     part_io_f:rdpart.obj
 0003:0001dcd4       __STRLITPACK_883           005bacd4     part_io_f:rdpart.obj
 0003:0001dcdc       __STRLITPACK_882           005bacdc     part_io_f:rdpart.obj
 0003:0001dce4       __STRLITPACK_881           005bace4     part_io_f:rdpart.obj
 0003:0001dcec       __STRLITPACK_880           005bacec     part_io_f:rdpart.obj
 0003:0001dcf4       __STRLITPACK_879           005bacf4     part_io_f:rdpart.obj
 0003:0001dcfc       __STRLITPACK_878           005bacfc     part_io_f:rdpart.obj
 0003:0001dd04       __STRLITPACK_877           005bad04     part_io_f:rdpart.obj
 0003:0001dd0c       __STRLITPACK_876           005bad0c     part_io_f:rdpart.obj
 0003:0001dd14       __STRLITPACK_875           005bad14     part_io_f:rdpart.obj
 0003:0001dd20       __STRLITPACK_874           005bad20     part_io_f:rdpart.obj
 0003:0001dd28       __STRLITPACK_873           005bad28     part_io_f:rdpart.obj
 0003:0001dd34       __STRLITPACK_872           005bad34     part_io_f:rdpart.obj
 0003:0001dd3c       __STRLITPACK_871           005bad3c     part_io_f:rdpart.obj
 0003:0001dd44       __STRLITPACK_870           005bad44     part_io_f:rdpart.obj
 0003:0001dd4c       __STRLITPACK_869           005bad4c     part_io_f:rdpart.obj
 0003:0001dd54       __STRLITPACK_868           005bad54     part_io_f:rdpart.obj
 0003:0001dd5c       __STRLITPACK_867           005bad5c     part_io_f:rdpart.obj
 0003:0001dd64       __STRLITPACK_866           005bad64     part_io_f:rdpart.obj
 0003:0001dd6c       __STRLITPACK_865           005bad6c     part_io_f:rdpart.obj
 0003:0001dd74       __STRLITPACK_864           005bad74     part_io_f:rdpart.obj
 0003:0001dd7c       __STRLITPACK_863           005bad7c     part_io_f:rdpart.obj
 0003:0001dd84       __STRLITPACK_862           005bad84     part_io_f:rdpart.obj
 0003:0001dd8c       __STRLITPACK_861           005bad8c     part_io_f:rdpart.obj
 0003:0001dd94       __STRLITPACK_860           005bad94     part_io_f:rdpart.obj
 0003:0001dd9c       __STRLITPACK_859           005bad9c     part_io_f:rdpart.obj
 0003:0001dda4       __STRLITPACK_858           005bada4     part_io_f:rdpart.obj
 0003:0001ddac       __STRLITPACK_857           005badac     part_io_f:rdpart.obj
 0003:0001ddb4       __STRLITPACK_856           005badb4     part_io_f:rdpart.obj
 0003:0001ddbc       __STRLITPACK_855           005badbc     part_io_f:rdpart.obj
 0003:0001ddc4       __STRLITPACK_854           005badc4     part_io_f:rdpart.obj
 0003:0001ddcc       __STRLITPACK_853           005badcc     part_io_f:rdpart.obj
 0003:0001ddd4       __STRLITPACK_852           005badd4     part_io_f:rdpart.obj
 0003:0001dddc       __STRLITPACK_851           005baddc     part_io_f:rdpart.obj
 0003:0001dde4       __STRLITPACK_850           005bade4     part_io_f:rdpart.obj
 0003:0001ddec       __STRLITPACK_849           005badec     part_io_f:rdpart.obj
 0003:0001ddf4       __STRLITPACK_848           005badf4     part_io_f:rdpart.obj
 0003:0001ddfc       __STRLITPACK_847           005badfc     part_io_f:rdpart.obj
 0003:0001de04       __STRLITPACK_846           005bae04     part_io_f:rdpart.obj
 0003:0001de0c       __STRLITPACK_845           005bae0c     part_io_f:rdpart.obj
 0003:0001de14       __STRLITPACK_844           005bae14     part_io_f:rdpart.obj
 0003:0001de1c       __STRLITPACK_843           005bae1c     part_io_f:rdpart.obj
 0003:0001de24       __STRLITPACK_842           005bae24     part_io_f:rdpart.obj
 0003:0001de2c       __STRLITPACK_841           005bae2c     part_io_f:rdpart.obj
 0003:0001de34       __STRLITPACK_840           005bae34     part_io_f:rdpart.obj
 0003:0001de3c       __STRLITPACK_839           005bae3c     part_io_f:rdpart.obj
 0003:0001de44       __STRLITPACK_838           005bae44     part_io_f:rdpart.obj
 0003:0001de4c       __STRLITPACK_837           005bae4c     part_io_f:rdpart.obj
 0003:0001de54       __STRLITPACK_836           005bae54     part_io_f:rdpart.obj
 0003:0001de60       __STRLITPACK_835           005bae60     part_io_f:rdpart.obj
 0003:0001de6c       __STRLITPACK_834           005bae6c     part_io_f:rdpart.obj
 0003:0001de78       __STRLITPACK_833           005bae78     part_io_f:rdpart.obj
 0003:0001de84       __STRLITPACK_832           005bae84     part_io_f:rdpart.obj
 0003:0001de90       __STRLITPACK_828           005bae90     part_io_f:rdpart.obj
 0003:0001debc       __STRLITPACK_824           005baebc     part_io_f:rdpart.obj
 0003:0001dee8       __STRLITPACK_820           005baee8     part_io_f:rdpart.obj
 0003:0001deec       __STRLITPACK_816           005baeec     part_io_f:rdpart.obj
 0003:0001df0c       __STRLITPACK_812           005baf0c     part_io_f:rdpart.obj
 0003:0001df10       __STRLITPACK_808           005baf10     part_io_f:rdpart.obj
 0003:0001df30       __STRLITPACK_804           005baf30     part_io_f:rdpart.obj
 0003:0001df34       __STRLITPACK_1291          005baf34     part_io_f:rdpart.obj
 0003:0001df60       __STRLITPACK_1042          005baf60     part_io_f:rdpart.obj
 0003:0001df64       __STRLITPACK_1040          005baf64     part_io_f:rdpart.obj
 0003:0001df9c       __STRLITPACK_1045          005baf9c     part_io_f:rdpart.obj
 0003:0001dfa0       __STRLITPACK_1043          005bafa0     part_io_f:rdpart.obj
 0003:0001dfd8       __STRLITPACK_913           005bafd8     part_io_f:rdpart.obj
 0003:0001e00c       __STRLITPACK_909           005bb00c     part_io_f:rdpart.obj
 0003:0001e010       __STRLITPACK_1379          005bb010     part_io_f:rdpart.obj
 0003:0001e014       __STRLITPACK_1377          005bb014     part_io_f:rdpart.obj
 0003:0001e04c       __STRLITPACK_1375          005bb04c     part_io_f:rdpart.obj
 0003:0001e050       __STRLITPACK_1011          005bb050     part_io_f:rdpart.obj
 0003:0001e068       __STRLITPACK_1003          005bb068     part_io_f:rdpart.obj
 0003:0001e06c       __STRLITPACK_1002          005bb06c     part_io_f:rdpart.obj
 0003:0001e084       __STRLITPACK_1001          005bb084     part_io_f:rdpart.obj
 0003:0001e09c       __STRLITPACK_1000          005bb09c     part_io_f:rdpart.obj
 0003:0001e0b4       __STRLITPACK_996           005bb0b4     part_io_f:rdpart.obj
 0003:0001e0d4       __STRLITPACK_1024          005bb0d4     part_io_f:rdpart.obj
 0003:0001e0d8       __STRLITPACK_1022          005bb0d8     part_io_f:rdpart.obj
 0003:0001e108       __STRLITPACK_1020          005bb108     part_io_f:rdpart.obj
 0003:0001e138       __STRLITPACK_1052          005bb138     part_io_f:rdpart.obj
 0003:0001e164       __STRLITPACK_1050          005bb164     part_io_f:rdpart.obj
 0003:0001e190       __STRLITPACK_1056          005bb190     part_io_f:rdpart.obj
 0003:0001e1bc       __STRLITPACK_1054          005bb1bc     part_io_f:rdpart.obj
 0003:0001e1e8       __STRLITPACK_1064          005bb1e8     part_io_f:rdpart.obj
 0003:0001e204       __STRLITPACK_1060          005bb204     part_io_f:rdpart.obj
 0003:0001e21c       __STRLITPACK_1191          005bb21c     part_io_f:rdpart.obj
 0003:0001e250       __STRLITPACK_1195          005bb250     part_io_f:rdpart.obj
 0003:0001e27c       __STRLITPACK_1199          005bb27c     part_io_f:rdpart.obj
 0003:0001e2b0       __STRLITPACK_1251          005bb2b0     part_io_f:rdpart.obj
 0003:0001e2c8       __STRLITPACK_1250          005bb2c8     part_io_f:rdpart.obj
 0003:0001e2d0       __STRLITPACK_1249          005bb2d0     part_io_f:rdpart.obj
 0003:0001e2d8       __STRLITPACK_1248          005bb2d8     part_io_f:rdpart.obj
 0003:0001e2e0       __STRLITPACK_1244          005bb2e0     part_io_f:rdpart.obj
 0003:0001e308       __STRLITPACK_1240          005bb308     part_io_f:rdpart.obj
 0003:0001e33c       __STRLITPACK_1399          005bb33c     part_io_f:rdpart.obj
 0003:0001e368       __STRLITPACK_27            005bb368     part_io_f:rdpart.obj
 0003:0001e390       __STRLITPACK_21            005bb390     part_io_f:rdpart.obj
 0003:0001e3b0       __STRLITPACK_17            005bb3b0     part_io_f:rdpart.obj
 0003:0001e3c8       __STRLITPACK_13            005bb3c8     part_io_f:rdpart.obj
 0003:0001e3f0       __STRLITPACK_9             005bb3f0     part_io_f:rdpart.obj
 0003:0001e40c       __STRLITPACK_5             005bb40c     part_io_f:rdpart.obj
 0003:0001e440       __NLITPACK_0.0.1           005bb440     part_io_f:getdps.obj
 0003:0001e444       __STRLITPACK_9.0.1         005bb444     part_io_f:getdps.obj
 0003:0001e44c       __STRLITPACK_10.0.1        005bb44c     part_io_f:getdps.obj
 0003:0001e454       __STRLITPACK_11.0.1        005bb454     part_io_f:getdps.obj
 0003:0001e45c       __STRLITPACK_12.0.1        005bb45c     part_io_f:getdps.obj
 0003:0001e464       __STRLITPACK_13.0.1        005bb464     part_io_f:getdps.obj
 0003:0001e46c       __STRLITPACK_14.0.1        005bb46c     part_io_f:getdps.obj
 0003:0001e474       __STRLITPACK_18.0.1        005bb474     part_io_f:getdps.obj
 0003:0001e47c       __STRLITPACK_20.0.1        005bb47c     part_io_f:getdps.obj
 0003:0001e484       __STRLITPACK_21.0.1        005bb484     part_io_f:getdps.obj
 0003:0001e48c       __STRLITPACK_22.0.1        005bb48c     part_io_f:getdps.obj
 0003:0001e494       __STRLITPACK_23.0.1        005bb494     part_io_f:getdps.obj
 0003:0001e49c       __STRLITPACK_24.0.1        005bb49c     part_io_f:getdps.obj
 0003:0001e4a4       __NLITPACK_1.0.1           005bb4a4     part_io_f:getdps.obj
 0003:0001e4a8       __STRLITPACK_19.0.1        005bb4a8     part_io_f:getdps.obj
 0003:0001e4b0       __STRLITPACK_15.0.1        005bb4b0     part_io_f:getdps.obj
 0003:0001e4b8       __STRLITPACK_16.0.1        005bb4b8     part_io_f:getdps.obj
 0003:0001e4c0       __STRLITPACK_17.0.1        005bb4c0     part_io_f:getdps.obj
 0003:0001e4c8       __STRLITPACK_8             005bb4c8     part_io_f:getdps.obj
 0003:0001e4d0       __STRLITPACK_4             005bb4d0     part_io_f:getdps.obj
 0003:0001e4f8       __STRLITPACK_2             005bb4f8     part_io_f:getdps.obj
 0003:0001e524       __STRLITPACK_0             005bb524     part_io_f:getdps.obj
 0003:0001e54c       __STRLITPACK_6             005bb54c     part_io_f:getdps.obj
 0003:0001e57c       __NLITPACK_1.0.1           005bb57c     part_io_f:wrttrk.obj
 0003:0001e580       __NLITPACK_0.0.1           005bb580     part_io_f:wrttrk.obj
 0003:0001e584       __NLITPACK_3.0.1           005bb584     part_io_f:wrttrk.obj
 0003:0001e588       __NLITPACK_2.0.1           005bb588     part_io_f:wrttrk.obj
 0003:0001e58c       __STRLITPACK_18.0.1        005bb58c     part_io_f:wrttrk.obj
 0003:0001e594       __STRLITPACK_19.0.1        005bb594     part_io_f:wrttrk.obj
 0003:0001e59c       _2il0floatpacket.0         005bb59c     part_io_f:wrttrk.obj
 0003:0001e5a0       __STRLITPACK_11            005bb5a0     part_io_f:wrttrk.obj
 0003:0001e5a8       __STRLITPACK_79.0.2        005bb5a8     part_io_f:openfl.obj
 0003:0001e5c0       __STRLITPACK_80.0.2        005bb5c0     part_io_f:openfl.obj
 0003:0001e5d4       __STRLITPACK_81.0.2        005bb5d4     part_io_f:openfl.obj
 0003:0001e5dc       __STRLITPACK_82.0.2        005bb5dc     part_io_f:openfl.obj
 0003:0001e5e4       __STRLITPACK_83.0.2        005bb5e4     part_io_f:openfl.obj
 0003:0001e5ec       __STRLITPACK_84.0.2        005bb5ec     part_io_f:openfl.obj
 0003:0001e5f4       __STRLITPACK_85.0.2        005bb5f4     part_io_f:openfl.obj
 0003:0001e5fc       __STRLITPACK_86.0.2        005bb5fc     part_io_f:openfl.obj
 0003:0001e604       __STRLITPACK_87.0.2        005bb604     part_io_f:openfl.obj
 0003:0001e61c       __STRLITPACK_88.0.2        005bb61c     part_io_f:openfl.obj
 0003:0001e630       __STRLITPACK_95.0.2        005bb630     part_io_f:openfl.obj
 0003:0001e638       __STRLITPACK_96.0.2        005bb638     part_io_f:openfl.obj
 0003:0001e640       __STRLITPACK_89.0.2        005bb640     part_io_f:openfl.obj
 0003:0001e648       __STRLITPACK_90.0.2        005bb648     part_io_f:openfl.obj
 0003:0001e650       __STRLITPACK_91.0.2        005bb650     part_io_f:openfl.obj
 0003:0001e658       __STRLITPACK_92.0.2        005bb658     part_io_f:openfl.obj
 0003:0001e660       __STRLITPACK_93.0.2        005bb660     part_io_f:openfl.obj
 0003:0001e668       __STRLITPACK_94.0.2        005bb668     part_io_f:openfl.obj
 0003:0001e670       __STRLITPACK_73.0.2        005bb670     part_io_f:openfl.obj
 0003:0001e688       __STRLITPACK_74.0.2        005bb688     part_io_f:openfl.obj
 0003:0001e69c       __STRLITPACK_97.0.2        005bb69c     part_io_f:openfl.obj
 0003:0001e6a4       __STRLITPACK_98.0.2        005bb6a4     part_io_f:openfl.obj
 0003:0001e6ac       __STRLITPACK_99.0.2        005bb6ac     part_io_f:openfl.obj
 0003:0001e6b4       __STRLITPACK_100.0.2       005bb6b4     part_io_f:openfl.obj
 0003:0001e6bc       __STRLITPACK_101.0.2       005bb6bc     part_io_f:openfl.obj
 0003:0001e6c4       __STRLITPACK_102.0.2       005bb6c4     part_io_f:openfl.obj
 0003:0001e6cc       __NLITPACK_0.0.2           005bb6cc     part_io_f:openfl.obj
 0003:0001e6d0       __STRLITPACK_75.0.2        005bb6d0     part_io_f:openfl.obj
 0003:0001e6d8       __STRLITPACK_76.0.2        005bb6d8     part_io_f:openfl.obj
 0003:0001e6e0       __STRLITPACK_77.0.2        005bb6e0     part_io_f:openfl.obj
 0003:0001e6e8       __STRLITPACK_78.0.2        005bb6e8     part_io_f:openfl.obj
 0003:0001e6f0       _2il0floatpacket.0         005bb6f0     part_io_f:openfl.obj
 0003:0001e6f8       _2il0floatpacket.1         005bb6f8     part_io_f:openfl.obj
 0003:0001e700       _2il0floatpacket.2         005bb700     part_io_f:openfl.obj
 0003:0001e708       _2il0floatpacket.3         005bb708     part_io_f:openfl.obj
 0003:0001e710       __STRLITPACK_72            005bb710     part_io_f:openfl.obj
 0003:0001e718       __STRLITPACK_63            005bb718     part_io_f:openfl.obj
 0003:0001e724       __STRLITPACK_62            005bb724     part_io_f:openfl.obj
 0003:0001e72c       __STRLITPACK_61            005bb72c     part_io_f:openfl.obj
 0003:0001e730       __STRLITPACK_60            005bb730     part_io_f:openfl.obj
 0003:0001e738       __STRLITPACK_59            005bb738     part_io_f:openfl.obj
 0003:0001e73c       __STRLITPACK_55            005bb73c     part_io_f:openfl.obj
 0003:0001e758       __STRLITPACK_51            005bb758     part_io_f:openfl.obj
 0003:0001e774       __STRLITPACK_47            005bb774     part_io_f:openfl.obj
 0003:0001e794       __STRLITPACK_43            005bb794     part_io_f:openfl.obj
 0003:0001e7b4       __STRLITPACK_42            005bb7b4     part_io_f:openfl.obj
 0003:0001e7d4       __STRLITPACK_41            005bb7d4     part_io_f:openfl.obj
 0003:0001e7e0       __STRLITPACK_40            005bb7e0     part_io_f:openfl.obj
 0003:0001e7e8       __STRLITPACK_39            005bb7e8     part_io_f:openfl.obj
 0003:0001e7ec       __STRLITPACK_38            005bb7ec     part_io_f:openfl.obj
 0003:0001e7f4       __STRLITPACK_37            005bb7f4     part_io_f:openfl.obj
 0003:0001e7f8       __STRLITPACK_16            005bb7f8     part_io_f:openfl.obj
 0003:0001e818       __STRLITPACK_33            005bb818     part_io_f:openfl.obj
 0003:0001e834       __STRLITPACK_29            005bb834     part_io_f:openfl.obj
 0003:0001e850       __STRLITPACK_25            005bb850     part_io_f:openfl.obj
 0003:0001e870       __STRLITPACK_21            005bb870     part_io_f:openfl.obj
 0003:0001e890       __STRLITPACK_20            005bb890     part_io_f:openfl.obj
 0003:0001e8b0       __STRLITPACK_71            005bb8b0     part_io_f:openfl.obj
 0003:0001e8bc       __STRLITPACK_70            005bb8bc     part_io_f:openfl.obj
 0003:0001e8c4       __STRLITPACK_69            005bb8c4     part_io_f:openfl.obj
 0003:0001e8cc       __STRLITPACK_12            005bb8cc     part_io_f:openfl.obj
 0003:0001e8e8       __STRLITPACK_8             005bb8e8     part_io_f:openfl.obj
 0003:0001e904       __STRLITPACK_4             005bb904     part_io_f:openfl.obj
 0003:0001e924       __STRLITPACK_0             005bb924     part_io_f:openfl.obj
 0003:0001e944       __STRLITPACK_67            005bb944     part_io_f:openfl.obj
 0003:0001e96c       __STRLITPACK_65            005bb96c     part_io_f:openfl.obj
 0003:0001e978       __STRLITPACK_64            005bb978     part_io_f:openfl.obj
 0003:0001e9a0       __STRLITPACK_64.0.2        005bb9a0     part_io_f:part12.obj
 0003:0001e9a8       __STRLITPACK_65.0.2        005bb9a8     part_io_f:part12.obj
 0003:0001e9b0       __STRLITPACK_66.0.2        005bb9b0     part_io_f:part12.obj
 0003:0001e9bc       __STRLITPACK_67.0.2        005bb9bc     part_io_f:part12.obj
 0003:0001e9c4       __STRLITPACK_68.0.2        005bb9c4     part_io_f:part12.obj
 0003:0001e9cc       __NLITPACK_0.0.2           005bb9cc     part_io_f:part12.obj
 0003:0001e9d0       __STRLITPACK_69.0.2        005bb9d0     part_io_f:part12.obj
 0003:0001e9d4       __STRLITPACK_70.0.2        005bb9d4     part_io_f:part12.obj
 0003:0001e9dc       __STRLITPACK_71.0.2        005bb9dc     part_io_f:part12.obj
 0003:0001e9e0       __STRLITPACK_72.0.2        005bb9e0     part_io_f:part12.obj
 0003:0001e9e8       __STRLITPACK_73.0.2        005bb9e8     part_io_f:part12.obj
 0003:0001e9f0       __STRLITPACK_74.0.2        005bb9f0     part_io_f:part12.obj
 0003:0001e9f4       __STRLITPACK_75.0.2        005bb9f4     part_io_f:part12.obj
 0003:0001e9fc       __STRLITPACK_76.0.2        005bb9fc     part_io_f:part12.obj
 0003:0001ea00       __NLITPACK_1.0.2           005bba00     part_io_f:part12.obj
 0003:0001ea04       __NLITPACK_3.0.2           005bba04     part_io_f:part12.obj
 0003:0001ea08       __NLITPACK_2.0.2           005bba08     part_io_f:part12.obj
 0003:0001ea0c       __NLITPACK_4.0.2           005bba0c     part_io_f:part12.obj
 0003:0001ea10       __NLITPACK_6.0.2           005bba10     part_io_f:part12.obj
 0003:0001ea14       __NLITPACK_5.0.2           005bba14     part_io_f:part12.obj
 0003:0001ea18       __NLITPACK_7.0.2           005bba18     part_io_f:part12.obj
 0003:0001ea1c       __NLITPACK_8.0.2           005bba1c     part_io_f:part12.obj
 0003:0001ea20       __STRLITPACK_77.0.2        005bba20     part_io_f:part12.obj
 0003:0001ea28       __STRLITPACK_78.0.2        005bba28     part_io_f:part12.obj
 0003:0001ea30       __STRLITPACK_79.0.2        005bba30     part_io_f:part12.obj
 0003:0001ea38       __STRLITPACK_80.0.2        005bba38     part_io_f:part12.obj
 0003:0001ea40       __STRLITPACK_81.0.2        005bba40     part_io_f:part12.obj
 0003:0001ea48       __STRLITPACK_82.0.2        005bba48     part_io_f:part12.obj
 0003:0001ea50       __STRLITPACK_83.0.2        005bba50     part_io_f:part12.obj
 0003:0001ea58       __STRLITPACK_84.0.2        005bba58     part_io_f:part12.obj
 0003:0001ea60       __STRLITPACK_85.0.2        005bba60     part_io_f:part12.obj
 0003:0001ea68       __STRLITPACK_86.0.2        005bba68     part_io_f:part12.obj
 0003:0001ea70       __STRLITPACK_87.0.2        005bba70     part_io_f:part12.obj
 0003:0001ea78       __STRLITPACK_88.0.2        005bba78     part_io_f:part12.obj
 0003:0001ea80       __STRLITPACK_89.0.2        005bba80     part_io_f:part12.obj
 0003:0001ea88       __STRLITPACK_90.0.2        005bba88     part_io_f:part12.obj
 0003:0001ea90       __STRLITPACK_92.0.2        005bba90     part_io_f:part12.obj
 0003:0001ea98       __STRLITPACK_93.0.2        005bba98     part_io_f:part12.obj
 0003:0001eaa0       __STRLITPACK_94.0.2        005bbaa0     part_io_f:part12.obj
 0003:0001eaa8       __STRLITPACK_95.0.2        005bbaa8     part_io_f:part12.obj
 0003:0001eab0       __STRLITPACK_96.0.2        005bbab0     part_io_f:part12.obj
 0003:0001eab8       __STRLITPACK_97.0.2        005bbab8     part_io_f:part12.obj
 0003:0001eac0       __STRLITPACK_100.0.2       005bbac0     part_io_f:part12.obj
 0003:0001eac8       __STRLITPACK_101.0.2       005bbac8     part_io_f:part12.obj
 0003:0001ead0       __STRLITPACK_102.0.2       005bbad0     part_io_f:part12.obj
 0003:0001ead8       __STRLITPACK_103.0.2       005bbad8     part_io_f:part12.obj
 0003:0001eae0       __STRLITPACK_104.0.2       005bbae0     part_io_f:part12.obj
 0003:0001eae8       __STRLITPACK_105.0.2       005bbae8     part_io_f:part12.obj
 0003:0001eaf0       __STRLITPACK_98.0.2        005bbaf0     part_io_f:part12.obj
 0003:0001eaf8       __STRLITPACK_99.0.2        005bbaf8     part_io_f:part12.obj
 0003:0001eb00       __STRLITPACK_91.0.2        005bbb00     part_io_f:part12.obj
 0003:0001eb10       _2il0floatpacket.4         005bbb10     part_io_f:part12.obj
 0003:0001eb20       _2__cnst_pck.1             005bbb20     part_io_f:part12.obj
 0003:0001eb40       _2il0floatpacket.5         005bbb40     part_io_f:part12.obj
 0003:0001eb48       _2il0floatpacket.6         005bbb48     part_io_f:part12.obj
 0003:0001eb50       _2il0floatpacket.7         005bbb50     part_io_f:part12.obj
 0003:0001eb58       _2il0floatpacket.8         005bbb58     part_io_f:part12.obj
 0003:0001eb60       _2il0floatpacket.9         005bbb60     part_io_f:part12.obj
 0003:0001eb68       _2il0floatpacket.10        005bbb68     part_io_f:part12.obj
 0003:0001eb70       _2il0floatpacket.11        005bbb70     part_io_f:part12.obj
 0003:0001eb78       _2il0floatpacket.12        005bbb78     part_io_f:part12.obj
 0003:0001eb80       _2il0floatpacket.2         005bbb80     part_io_f:part12.obj
 0003:0001eb84       _2il0floatpacket.3         005bbb84     part_io_f:part12.obj
 0003:0001eb88       _2il0floatpacket.13        005bbb88     part_io_f:part12.obj
 0003:0001eb8c       __STRLITPACK_62            005bbb8c     part_io_f:part12.obj
 0003:0001eb94       __STRLITPACK_61            005bbb94     part_io_f:part12.obj
 0003:0001eb9c       __STRLITPACK_60            005bbb9c     part_io_f:part12.obj
 0003:0001eba4       __STRLITPACK_59            005bbba4     part_io_f:part12.obj
 0003:0001ebb0       __STRLITPACK_58            005bbbb0     part_io_f:part12.obj
 0003:0001ebc0       __STRLITPACK_57            005bbbc0     part_io_f:part12.obj
 0003:0001ebc8       __STRLITPACK_56            005bbbc8     part_io_f:part12.obj
 0003:0001ebd4       __STRLITPACK_55            005bbbd4     part_io_f:part12.obj
 0003:0001ebe0       __STRLITPACK_54            005bbbe0     part_io_f:part12.obj
 0003:0001ebe8       __STRLITPACK_53            005bbbe8     part_io_f:part12.obj
 0003:0001ebf4       __STRLITPACK_52            005bbbf4     part_io_f:part12.obj
 0003:0001ec00       __STRLITPACK_51            005bbc00     part_io_f:part12.obj
 0003:0001ec0c       __STRLITPACK_50            005bbc0c     part_io_f:part12.obj
 0003:0001ec18       __STRLITPACK_49            005bbc18     part_io_f:part12.obj
 0003:0001ec20       __STRLITPACK_48            005bbc20     part_io_f:part12.obj
 0003:0001ec28       __STRLITPACK_47            005bbc28     part_io_f:part12.obj
 0003:0001ec30       __STRLITPACK_46            005bbc30     part_io_f:part12.obj
 0003:0001ec38       __STRLITPACK_42            005bbc38     part_io_f:part12.obj
 0003:0001ec40       __STRLITPACK_41            005bbc40     part_io_f:part12.obj
 0003:0001ec48       __STRLITPACK_40            005bbc48     part_io_f:part12.obj
 0003:0001ec50       __STRLITPACK_39            005bbc50     part_io_f:part12.obj
 0003:0001ec58       __STRLITPACK_38            005bbc58     part_io_f:part12.obj
 0003:0001ec60       __STRLITPACK_36            005bbc60     part_io_f:part12.obj
 0003:0001ec7c       __STRLITPACK_31            005bbc7c     part_io_f:part12.obj
 0003:0001ec80       __STRLITPACK_30            005bbc80     part_io_f:part12.obj
 0003:0001ec88       __STRLITPACK_29            005bbc88     part_io_f:part12.obj
 0003:0001ec90       __STRLITPACK_27            005bbc90     part_io_f:part12.obj
 0003:0001ec9c       __STRLITPACK_25            005bbc9c     part_io_f:part12.obj
 0003:0001eca8       __STRLITPACK_23            005bbca8     part_io_f:part12.obj
 0003:0001ecb4       __STRLITPACK_21            005bbcb4     part_io_f:part12.obj
 0003:0001ecc0       __STRLITPACK_19            005bbcc0     part_io_f:part12.obj
 0003:0001eccc       __STRLITPACK_17            005bbccc     part_io_f:part12.obj
 0003:0001ecd8       __STRLITPACK_15            005bbcd8     part_io_f:part12.obj
 0003:0001ece4       __STRLITPACK_13            005bbce4     part_io_f:part12.obj
 0003:0001ecf0       __STRLITPACK_11            005bbcf0     part_io_f:part12.obj
 0003:0001ecfc       __STRLITPACK_9             005bbcfc     part_io_f:part12.obj
 0003:0001ed10       __STRLITPACK_92.0.2        005bbd10     part_io_f:part13.obj
 0003:0001ed18       __STRLITPACK_93.0.2        005bbd18     part_io_f:part13.obj
 0003:0001ed24       __STRLITPACK_94.0.2        005bbd24     part_io_f:part13.obj
 0003:0001ed2c       __STRLITPACK_95.0.2        005bbd2c     part_io_f:part13.obj
 0003:0001ed34       __NLITPACK_0.0.2           005bbd34     part_io_f:part13.obj
 0003:0001ed38       __STRLITPACK_96.0.2        005bbd38     part_io_f:part13.obj
 0003:0001ed40       __STRLITPACK_97.0.2        005bbd40     part_io_f:part13.obj
 0003:0001ed48       __STRLITPACK_98.0.2        005bbd48     part_io_f:part13.obj
 0003:0001ed50       __STRLITPACK_99.0.2        005bbd50     part_io_f:part13.obj
 0003:0001ed58       __STRLITPACK_100.0.2       005bbd58     part_io_f:part13.obj
 0003:0001ed60       __STRLITPACK_101.0.2       005bbd60     part_io_f:part13.obj
 0003:0001ed68       __STRLITPACK_102.0.2       005bbd68     part_io_f:part13.obj
 0003:0001ed70       __STRLITPACK_103.0.2       005bbd70     part_io_f:part13.obj
 0003:0001ed78       __STRLITPACK_104.0.2       005bbd78     part_io_f:part13.obj
 0003:0001ed80       __STRLITPACK_105.0.2       005bbd80     part_io_f:part13.obj
 0003:0001ed88       __STRLITPACK_106.0.2       005bbd88     part_io_f:part13.obj
 0003:0001ed90       __STRLITPACK_107.0.2       005bbd90     part_io_f:part13.obj
 0003:0001ed94       __STRLITPACK_108.0.2       005bbd94     part_io_f:part13.obj
 0003:0001ed9c       __STRLITPACK_109.0.2       005bbd9c     part_io_f:part13.obj
 0003:0001eda0       __STRLITPACK_110.0.2       005bbda0     part_io_f:part13.obj
 0003:0001eda8       __STRLITPACK_111.0.2       005bbda8     part_io_f:part13.obj
 0003:0001edb0       __STRLITPACK_112.0.2       005bbdb0     part_io_f:part13.obj
 0003:0001edb8       __STRLITPACK_113.0.2       005bbdb8     part_io_f:part13.obj
 0003:0001edc0       __STRLITPACK_114.0.2       005bbdc0     part_io_f:part13.obj
 0003:0001edc8       __STRLITPACK_115.0.2       005bbdc8     part_io_f:part13.obj
 0003:0001edd0       __NLITPACK_1.0.2           005bbdd0     part_io_f:part13.obj
 0003:0001edd4       __NLITPACK_3.0.2           005bbdd4     part_io_f:part13.obj
 0003:0001edd8       __NLITPACK_2.0.2           005bbdd8     part_io_f:part13.obj
 0003:0001eddc       __NLITPACK_4.0.2           005bbddc     part_io_f:part13.obj
 0003:0001ede0       __NLITPACK_6.0.2           005bbde0     part_io_f:part13.obj
 0003:0001ede4       __NLITPACK_5.0.2           005bbde4     part_io_f:part13.obj
 0003:0001ede8       __NLITPACK_7.0.2           005bbde8     part_io_f:part13.obj
 0003:0001edec       __STRLITPACK_116.0.2       005bbdec     part_io_f:part13.obj
 0003:0001edf4       __STRLITPACK_117.0.2       005bbdf4     part_io_f:part13.obj
 0003:0001edfc       __STRLITPACK_118.0.2       005bbdfc     part_io_f:part13.obj
 0003:0001ee04       __STRLITPACK_119.0.2       005bbe04     part_io_f:part13.obj
 0003:0001ee0c       __STRLITPACK_120.0.2       005bbe0c     part_io_f:part13.obj
 0003:0001ee14       __STRLITPACK_121.0.2       005bbe14     part_io_f:part13.obj
 0003:0001ee1c       __STRLITPACK_122.0.2       005bbe1c     part_io_f:part13.obj
 0003:0001ee24       __STRLITPACK_123.0.2       005bbe24     part_io_f:part13.obj
 0003:0001ee2c       __STRLITPACK_124.0.2       005bbe2c     part_io_f:part13.obj
 0003:0001ee34       __STRLITPACK_125.0.2       005bbe34     part_io_f:part13.obj
 0003:0001ee3c       __STRLITPACK_126.0.2       005bbe3c     part_io_f:part13.obj
 0003:0001ee44       __STRLITPACK_127.0.2       005bbe44     part_io_f:part13.obj
 0003:0001ee4c       __STRLITPACK_128.0.2       005bbe4c     part_io_f:part13.obj
 0003:0001ee54       __STRLITPACK_129.0.2       005bbe54     part_io_f:part13.obj
 0003:0001ee5c       __STRLITPACK_130.0.2       005bbe5c     part_io_f:part13.obj
 0003:0001ee64       __STRLITPACK_131.0.2       005bbe64     part_io_f:part13.obj
 0003:0001ee6c       __STRLITPACK_132.0.2       005bbe6c     part_io_f:part13.obj
 0003:0001ee74       __STRLITPACK_133.0.2       005bbe74     part_io_f:part13.obj
 0003:0001ee7c       __STRLITPACK_134.0.2       005bbe7c     part_io_f:part13.obj
 0003:0001ee84       __STRLITPACK_135.0.2       005bbe84     part_io_f:part13.obj
 0003:0001ee8c       __STRLITPACK_136.0.2       005bbe8c     part_io_f:part13.obj
 0003:0001ee94       __STRLITPACK_137.0.2       005bbe94     part_io_f:part13.obj
 0003:0001ee9c       __STRLITPACK_138.0.2       005bbe9c     part_io_f:part13.obj
 0003:0001eea4       __STRLITPACK_139.0.2       005bbea4     part_io_f:part13.obj
 0003:0001eeac       __STRLITPACK_140.0.2       005bbeac     part_io_f:part13.obj
 0003:0001eeb4       __STRLITPACK_141.0.2       005bbeb4     part_io_f:part13.obj
 0003:0001eebc       __STRLITPACK_142.0.2       005bbebc     part_io_f:part13.obj
 0003:0001eec4       __STRLITPACK_143.0.2       005bbec4     part_io_f:part13.obj
 0003:0001eecc       __STRLITPACK_144.0.2       005bbecc     part_io_f:part13.obj
 0003:0001eed4       __STRLITPACK_145.0.2       005bbed4     part_io_f:part13.obj
 0003:0001eedc       __STRLITPACK_146.0.2       005bbedc     part_io_f:part13.obj
 0003:0001eee4       __STRLITPACK_147.0.2       005bbee4     part_io_f:part13.obj
 0003:0001eeec       __STRLITPACK_148.0.2       005bbeec     part_io_f:part13.obj
 0003:0001eef4       __STRLITPACK_149.0.2       005bbef4     part_io_f:part13.obj
 0003:0001ef00       _2il0floatpacket.2         005bbf00     part_io_f:part13.obj
 0003:0001ef10       _2__cnst_pck.0             005bbf10     part_io_f:part13.obj
 0003:0001ef30       __STRLITPACK_47            005bbf30     part_io_f:part13.obj
 0003:0001ef48       _2il0floatpacket.3         005bbf48     part_io_f:part13.obj
 0003:0001ef50       _2il0floatpacket.4         005bbf50     part_io_f:part13.obj
 0003:0001ef58       _2il0floatpacket.5         005bbf58     part_io_f:part13.obj
 0003:0001ef60       _2il0floatpacket.6         005bbf60     part_io_f:part13.obj
 0003:0001ef68       _2il0floatpacket.7         005bbf68     part_io_f:part13.obj
 0003:0001ef70       _2il0floatpacket.8         005bbf70     part_io_f:part13.obj
 0003:0001ef78       _2il0floatpacket.9         005bbf78     part_io_f:part13.obj
 0003:0001ef80       _2il0floatpacket.10        005bbf80     part_io_f:part13.obj
 0003:0001ef88       _2il0floatpacket.11        005bbf88     part_io_f:part13.obj
 0003:0001ef90       _2il0floatpacket.12        005bbf90     part_io_f:part13.obj
 0003:0001ef98       _2il0floatpacket.1         005bbf98     part_io_f:part13.obj
 0003:0001ef9c       _2il0floatpacket.13        005bbf9c     part_io_f:part13.obj
 0003:0001efa0       __STRLITPACK_90            005bbfa0     part_io_f:part13.obj
 0003:0001efa8       __STRLITPACK_89            005bbfa8     part_io_f:part13.obj
 0003:0001efb0       __STRLITPACK_88            005bbfb0     part_io_f:part13.obj
 0003:0001efb8       __STRLITPACK_87            005bbfb8     part_io_f:part13.obj
 0003:0001efc4       __STRLITPACK_86            005bbfc4     part_io_f:part13.obj
 0003:0001efd4       __STRLITPACK_85            005bbfd4     part_io_f:part13.obj
 0003:0001efdc       __STRLITPACK_84            005bbfdc     part_io_f:part13.obj
 0003:0001efe8       __STRLITPACK_83            005bbfe8     part_io_f:part13.obj
 0003:0001eff4       __STRLITPACK_82            005bbff4     part_io_f:part13.obj
 0003:0001effc       __STRLITPACK_81            005bbffc     part_io_f:part13.obj
 0003:0001f008       __STRLITPACK_80            005bc008     part_io_f:part13.obj
 0003:0001f014       __STRLITPACK_79            005bc014     part_io_f:part13.obj
 0003:0001f020       __STRLITPACK_78            005bc020     part_io_f:part13.obj
 0003:0001f02c       __STRLITPACK_77            005bc02c     part_io_f:part13.obj
 0003:0001f034       __STRLITPACK_76            005bc034     part_io_f:part13.obj
 0003:0001f03c       __STRLITPACK_75            005bc03c     part_io_f:part13.obj
 0003:0001f044       __STRLITPACK_74            005bc044     part_io_f:part13.obj
 0003:0001f04c       __STRLITPACK_71            005bc04c     part_io_f:part13.obj
 0003:0001f054       __STRLITPACK_70            005bc054     part_io_f:part13.obj
 0003:0001f05c       __STRLITPACK_69            005bc05c     part_io_f:part13.obj
 0003:0001f064       __STRLITPACK_68            005bc064     part_io_f:part13.obj
 0003:0001f06c       __STRLITPACK_67            005bc06c     part_io_f:part13.obj
 0003:0001f074       __STRLITPACK_65            005bc074     part_io_f:part13.obj
 0003:0001f094       __STRLITPACK_59            005bc094     part_io_f:part13.obj
 0003:0001f0b0       __STRLITPACK_58            005bc0b0     part_io_f:part13.obj
 0003:0001f0b8       __STRLITPACK_57            005bc0b8     part_io_f:part13.obj
 0003:0001f0c4       __STRLITPACK_50            005bc0c4     part_io_f:part13.obj
 0003:0001f0d4       __STRLITPACK_49            005bc0d4     part_io_f:part13.obj
 0003:0001f0e0       __STRLITPACK_42            005bc0e0     part_io_f:part13.obj
 0003:0001f0e4       __STRLITPACK_41            005bc0e4     part_io_f:part13.obj
 0003:0001f0fc       __STRLITPACK_39            005bc0fc     part_io_f:part13.obj
 0003:0001f108       __STRLITPACK_37            005bc108     part_io_f:part13.obj
 0003:0001f12c       __STRLITPACK_33            005bc12c     part_io_f:part13.obj
 0003:0001f158       __STRLITPACK_28            005bc158     part_io_f:part13.obj
 0003:0001f160       __STRLITPACK_27            005bc160     part_io_f:part13.obj
 0003:0001f17c       __STRLITPACK_23            005bc17c     part_io_f:part13.obj
 0003:0001f194       __STRLITPACK_17            005bc194     part_io_f:part13.obj
 0003:0001f19c       __STRLITPACK_16            005bc19c     part_io_f:part13.obj
 0003:0001f1ac       __STRLITPACK_15            005bc1ac     part_io_f:part13.obj
 0003:0001f1c8       __STRLITPACK_91            005bc1c8     part_io_f:part13.obj
 0003:0001f1d0       __STRLITPACK_11            005bc1d0     part_io_f:part13.obj
 0003:0001f1e0       __STRLITPACK_12.0.2        005bc1e0     part_io_f:parths.obj
 0003:0001f1e8       __STRLITPACK_13.0.2        005bc1e8     part_io_f:parths.obj
 0003:0001f1f0       __NLITPACK_0.0.2           005bc1f0     part_io_f:parths.obj
 0003:0001f1f4       __STRLITPACK_14.0.2        005bc1f4     part_io_f:parths.obj
 0003:0001f1fc       __STRLITPACK_15.0.2        005bc1fc     part_io_f:parths.obj
 0003:0001f204       __STRLITPACK_16.0.2        005bc204     part_io_f:parths.obj
 0003:0001f20c       __STRLITPACK_17.0.2        005bc20c     part_io_f:parths.obj
 0003:0001f214       __STRLITPACK_18.0.2        005bc214     part_io_f:parths.obj
 0003:0001f218       __STRLITPACK_19.0.2        005bc218     part_io_f:parths.obj
 0003:0001f220       _2il0floatpacket.1         005bc220     part_io_f:parths.obj
 0003:0001f230       _2il0floatpacket.0         005bc230     part_io_f:parths.obj
 0003:0001f234       _2il0floatpacket.2         005bc234     part_io_f:parths.obj
 0003:0001f238       __STRLITPACK_11            005bc238     part_io_f:parths.obj
 0003:0001f240       __STRLITPACK_9             005bc240     part_io_f:parths.obj
 0003:0001f260       __NLITPACK_1.0.2           005bc260     part_io_f:writrk.obj
 0003:0001f264       __NLITPACK_0.0.2           005bc264     part_io_f:writrk.obj
 0003:0001f268       __NLITPACK_2.0.2           005bc268     part_io_f:writrk.obj
 0003:0001f26c       __NLITPACK_3.0.2           005bc26c     part_io_f:writrk.obj
 0003:0001f270       __NLITPACK_4.0.2           005bc270     part_io_f:writrk.obj
 0003:0001f274       __NLITPACK_5.0.2           005bc274     part_io_f:writrk.obj
 0003:0001f278       __NLITPACK_6.0.2           005bc278     part_io_f:writrk.obj
 0003:0001f27c       __NLITPACK_7.0.2           005bc27c     part_io_f:writrk.obj
 0003:0001f280       __NLITPACK_8.0.2           005bc280     part_io_f:writrk.obj
 0003:0001f284       __NLITPACK_9.0.2           005bc284     part_io_f:writrk.obj
 0003:0001f288       __NLITPACK_10.0.2          005bc288     part_io_f:writrk.obj
 0003:0001f28c       __NLITPACK_11.0.2          005bc28c     part_io_f:writrk.obj
 0003:0001f290       __STRLITPACK_70.0.2        005bc290     part_io_f:writrk.obj
 0003:0001f298       __STRLITPACK_71.0.2        005bc298     part_io_f:writrk.obj
 0003:0001f2a0       __STRLITPACK_72.0.2        005bc2a0     part_io_f:writrk.obj
 0003:0001f2a8       __STRLITPACK_73.0.2        005bc2a8     part_io_f:writrk.obj
 0003:0001f2b0       __STRLITPACK_74.0.2        005bc2b0     part_io_f:writrk.obj
 0003:0001f2b8       __STRLITPACK_75.0.2        005bc2b8     part_io_f:writrk.obj
 0003:0001f2c0       __STRLITPACK_76.0.2        005bc2c0     part_io_f:writrk.obj
 0003:0001f2c8       __STRLITPACK_77.0.2        005bc2c8     part_io_f:writrk.obj
 0003:0001f2d0       __STRLITPACK_78.0.2        005bc2d0     part_io_f:writrk.obj
 0003:0001f2d8       __STRLITPACK_79.0.2        005bc2d8     part_io_f:writrk.obj
 0003:0001f2e0       __STRLITPACK_80.0.2        005bc2e0     part_io_f:writrk.obj
 0003:0001f2e8       __STRLITPACK_81.0.2        005bc2e8     part_io_f:writrk.obj
 0003:0001f2f0       __STRLITPACK_82.0.2        005bc2f0     part_io_f:writrk.obj
 0003:0001f2f8       __STRLITPACK_83.0.2        005bc2f8     part_io_f:writrk.obj
 0003:0001f300       __STRLITPACK_84.0.2        005bc300     part_io_f:writrk.obj
 0003:0001f308       __STRLITPACK_85.0.2        005bc308     part_io_f:writrk.obj
 0003:0001f310       __STRLITPACK_86.0.2        005bc310     part_io_f:writrk.obj
 0003:0001f318       __STRLITPACK_87.0.2        005bc318     part_io_f:writrk.obj
 0003:0001f320       __STRLITPACK_88.0.2        005bc320     part_io_f:writrk.obj
 0003:0001f328       __STRLITPACK_89.0.2        005bc328     part_io_f:writrk.obj
 0003:0001f330       __STRLITPACK_90.0.2        005bc330     part_io_f:writrk.obj
 0003:0001f340       _2il0floatpacket.1         005bc340     part_io_f:writrk.obj
 0003:0001f350       _2il0floatpacket.2         005bc350     part_io_f:writrk.obj
 0003:0001f360       _2il0floatpacket.4         005bc360     part_io_f:writrk.obj
 0003:0001f368       _2il0floatpacket.5         005bc368     part_io_f:writrk.obj
 0003:0001f370       _2il0floatpacket.0         005bc370     part_io_f:writrk.obj
 0003:0001f374       _2il0floatpacket.3         005bc374     part_io_f:writrk.obj
 0003:0001f378       _2il0floatpacket.6         005bc378     part_io_f:writrk.obj
 0003:0001f37c       _2il0floatpacket.7         005bc37c     part_io_f:writrk.obj
 0003:0001f380       _2il0floatpacket.8         005bc380     part_io_f:writrk.obj
 0003:0001f384       _2il0floatpacket.9         005bc384     part_io_f:writrk.obj
 0003:0001f388       _2il0floatpacket.10        005bc388     part_io_f:writrk.obj
 0003:0001f38c       __STRLITPACK_45            005bc38c     part_io_f:writrk.obj
 0003:0001f394       __STRLITPACK_43            005bc394     part_io_f:writrk.obj
 0003:0001f3a8       __STRLITPACK_42            005bc3a8     part_io_f:writrk.obj
 0003:0001f3b0       __STRLITPACK_32            005bc3b0     part_io_f:writrk.obj
 0003:0001f3b8       __STRLITPACK_31            005bc3b8     part_io_f:writrk.obj
 0003:0001f3bc       __STRLITPACK_30            005bc3bc     part_io_f:writrk.obj
 0003:0001f3c0       __STRLITPACK_28            005bc3c0     part_io_f:writrk.obj
 0003:0001f3d0       __STRLITPACK_2.0.2         005bc3d0     part_io_f:delete_file.obj
 0003:0001f3e0       __STRLITPACK_3.0.2         005bc3e0     part_io_f:delete_file.obj
 0003:0001f3ec       __STRLITPACK_4.0.2         005bc3ec     part_io_f:delete_file.obj
 0003:0001f3fc       __STRLITPACK_6.0.2         005bc3fc     part_io_f:delete_file.obj
 0003:0001f404       __STRLITPACK_5.0.2         005bc404     part_io_f:delete_file.obj
 0003:0001f410       __STRLITPACK_1             005bc410     part_io_f:delete_file.obj
 0003:0001f41c       __STRLITPACK_0             005bc41c     part_io_f:delete_file.obj
 0003:0001f440       __STRLITPACK_232.0.7       005bc440     part_io_f:meteo1.obj
 0003:0001f448       __STRLITPACK_233.0.7       005bc448     part_io_f:meteo1.obj
 0003:0001f450       __STRLITPACK_352.0.15      005bc450     part_io_f:meteo1.obj
 0003:0001f458       __STRLITPACK_353.0.15      005bc458     part_io_f:meteo1.obj
 0003:0001f460       __STRLITPACK_355.0.15      005bc460     part_io_f:meteo1.obj
 0003:0001f468       __STRLITPACK_356.0.15      005bc468     part_io_f:meteo1.obj
 0003:0001f470       __STRLITPACK_354.0.15      005bc470     part_io_f:meteo1.obj
 0003:0001f478       __STRLITPACK_357.0.15      005bc478     part_io_f:meteo1.obj
 0003:0001f480       __STRLITPACK_358.0.15      005bc480     part_io_f:meteo1.obj
 0003:0001f488       __STRLITPACK_1442.0.32     005bc488     part_io_f:meteo1.obj
 0003:0001f490       __STRLITPACK_1443.0.32     005bc490     part_io_f:meteo1.obj
 0003:0001f498       __STRLITPACK_1444.0.32     005bc498     part_io_f:meteo1.obj
 0003:0001f4a0       __STRLITPACK_1445.0.32     005bc4a0     part_io_f:meteo1.obj
 0003:0001f4a8       __STRLITPACK_1446.0.32     005bc4a8     part_io_f:meteo1.obj
 0003:0001f4b0       __STRLITPACK_1447.0.32     005bc4b0     part_io_f:meteo1.obj
 0003:0001f4b8       __STRLITPACK_1448.0.32     005bc4b8     part_io_f:meteo1.obj
 0003:0001f4c0       __STRLITPACK_1454.0.36     005bc4c0     part_io_f:meteo1.obj
 0003:0001f4c8       __STRLITPACK_1455.0.36     005bc4c8     part_io_f:meteo1.obj
 0003:0001f4d0       __STRLITPACK_1456.0.36     005bc4d0     part_io_f:meteo1.obj
 0003:0001f4d8       __STRLITPACK_1457.0.36     005bc4d8     part_io_f:meteo1.obj
 0003:0001f4e0       __STRLITPACK_1478.0.46     005bc4e0     part_io_f:meteo1.obj
 0003:0001f4e8       __STRLITPACK_1479.0.46     005bc4e8     part_io_f:meteo1.obj
 0003:0001f4f0       __NLITPACK_3.0.55          005bc4f0     part_io_f:meteo1.obj
 0003:0001f4f4       __STRLITPACK_1424.0.26     005bc4f4     part_io_f:meteo1.obj
 0003:0001f4fc       __STRLITPACK_1425.0.26     005bc4fc     part_io_f:meteo1.obj
 0003:0001f50c       __STRLITPACK_1426.0.26     005bc50c     part_io_f:meteo1.obj
 0003:0001f534       __STRLITPACK_1429.0.30     005bc534     part_io_f:meteo1.obj
 0003:0001f53c       __STRLITPACK_1430.0.30     005bc53c     part_io_f:meteo1.obj
 0003:0001f544       __STRLITPACK_1431.0.30     005bc544     part_io_f:meteo1.obj
 0003:0001f54c       __STRLITPACK_1432.0.30     005bc54c     part_io_f:meteo1.obj
 0003:0001f554       __STRLITPACK_1433.0.30     005bc554     part_io_f:meteo1.obj
 0003:0001f55c       __STRLITPACK_1434.0.30     005bc55c     part_io_f:meteo1.obj
 0003:0001f564       __STRLITPACK_1435.0.30     005bc564     part_io_f:meteo1.obj
 0003:0001f56c       __STRLITPACK_1449.0.35     005bc56c     part_io_f:meteo1.obj
 0003:0001f574       __STRLITPACK_1450.0.35     005bc574     part_io_f:meteo1.obj
 0003:0001f57c       __STRLITPACK_1451.0.35     005bc57c     part_io_f:meteo1.obj
 0003:0001f584       __STRLITPACK_1452.0.35     005bc584     part_io_f:meteo1.obj
 0003:0001f58c       __STRLITPACK_1453.0.35     005bc58c     part_io_f:meteo1.obj
 0003:0001f594       __STRLITPACK_267.0.12      005bc594     part_io_f:meteo1.obj
 0003:0001f59c       __STRLITPACK_268.0.12      005bc59c     part_io_f:meteo1.obj
 0003:0001f5a4       __STRLITPACK_269.0.12      005bc5a4     part_io_f:meteo1.obj
 0003:0001f5ac       __STRLITPACK_270.0.12      005bc5ac     part_io_f:meteo1.obj
 0003:0001f5b4       __STRLITPACK_271.0.12      005bc5b4     part_io_f:meteo1.obj
 0003:0001f5bc       __STRLITPACK_272.0.12      005bc5bc     part_io_f:meteo1.obj
 0003:0001f5c4       __STRLITPACK_273.0.12      005bc5c4     part_io_f:meteo1.obj
 0003:0001f5cc       __STRLITPACK_274.0.12      005bc5cc     part_io_f:meteo1.obj
 0003:0001f5d4       __STRLITPACK_275.0.12      005bc5d4     part_io_f:meteo1.obj
 0003:0001f5dc       __STRLITPACK_276.0.12      005bc5dc     part_io_f:meteo1.obj
 0003:0001f5e4       __STRLITPACK_277.0.12      005bc5e4     part_io_f:meteo1.obj
 0003:0001f5ec       __STRLITPACK_278.0.12      005bc5ec     part_io_f:meteo1.obj
 0003:0001f5f4       __STRLITPACK_279.0.12      005bc5f4     part_io_f:meteo1.obj
 0003:0001f5fc       __STRLITPACK_280.0.12      005bc5fc     part_io_f:meteo1.obj
 0003:0001f604       __STRLITPACK_281.0.12      005bc604     part_io_f:meteo1.obj
 0003:0001f60c       __STRLITPACK_282.0.12      005bc60c     part_io_f:meteo1.obj
 0003:0001f614       __STRLITPACK_283.0.12      005bc614     part_io_f:meteo1.obj
 0003:0001f61c       __STRLITPACK_284.0.12      005bc61c     part_io_f:meteo1.obj
 0003:0001f624       __STRLITPACK_285.0.12      005bc624     part_io_f:meteo1.obj
 0003:0001f62c       __STRLITPACK_286.0.12      005bc62c     part_io_f:meteo1.obj
 0003:0001f634       __STRLITPACK_287.0.12      005bc634     part_io_f:meteo1.obj
 0003:0001f63c       __STRLITPACK_288.0.12      005bc63c     part_io_f:meteo1.obj
 0003:0001f644       __STRLITPACK_289.0.12      005bc644     part_io_f:meteo1.obj
 0003:0001f64c       __STRLITPACK_290.0.12      005bc64c     part_io_f:meteo1.obj
 0003:0001f654       __STRLITPACK_291.0.12      005bc654     part_io_f:meteo1.obj
 0003:0001f65c       __STRLITPACK_292.0.12      005bc65c     part_io_f:meteo1.obj
 0003:0001f664       __STRLITPACK_295.0.12      005bc664     part_io_f:meteo1.obj
 0003:0001f66c       __STRLITPACK_296.0.12      005bc66c     part_io_f:meteo1.obj
 0003:0001f674       __STRLITPACK_297.0.12      005bc674     part_io_f:meteo1.obj
 0003:0001f67c       __STRLITPACK_298.0.12      005bc67c     part_io_f:meteo1.obj
 0003:0001f684       __STRLITPACK_299.0.12      005bc684     part_io_f:meteo1.obj
 0003:0001f68c       __STRLITPACK_300.0.12      005bc68c     part_io_f:meteo1.obj
 0003:0001f694       __STRLITPACK_301.0.12      005bc694     part_io_f:meteo1.obj
 0003:0001f69c       __STRLITPACK_302.0.12      005bc69c     part_io_f:meteo1.obj
 0003:0001f6a4       __STRLITPACK_303.0.12      005bc6a4     part_io_f:meteo1.obj
 0003:0001f6ac       __STRLITPACK_306.0.12      005bc6ac     part_io_f:meteo1.obj
 0003:0001f6b4       __STRLITPACK_304.0.12      005bc6b4     part_io_f:meteo1.obj
 0003:0001f6bc       __STRLITPACK_305.0.12      005bc6bc     part_io_f:meteo1.obj
 0003:0001f6c4       __STRLITPACK_293.0.12      005bc6c4     part_io_f:meteo1.obj
 0003:0001f6cc       __STRLITPACK_294.0.12      005bc6cc     part_io_f:meteo1.obj
 0003:0001f6d4       __STRLITPACK_307.0.13      005bc6d4     part_io_f:meteo1.obj
 0003:0001f6dc       __STRLITPACK_308.0.13      005bc6dc     part_io_f:meteo1.obj
 0003:0001f6e4       __STRLITPACK_309.0.13      005bc6e4     part_io_f:meteo1.obj
 0003:0001f6ec       __STRLITPACK_310.0.13      005bc6ec     part_io_f:meteo1.obj
 0003:0001f6f4       __STRLITPACK_311.0.13      005bc6f4     part_io_f:meteo1.obj
 0003:0001f6fc       __STRLITPACK_313.0.13      005bc6fc     part_io_f:meteo1.obj
 0003:0001f704       __STRLITPACK_314.0.13      005bc704     part_io_f:meteo1.obj
 0003:0001f70c       __STRLITPACK_315.0.13      005bc70c     part_io_f:meteo1.obj
 0003:0001f714       __STRLITPACK_316.0.13      005bc714     part_io_f:meteo1.obj
 0003:0001f71c       __STRLITPACK_317.0.13      005bc71c     part_io_f:meteo1.obj
 0003:0001f724       __STRLITPACK_318.0.13      005bc724     part_io_f:meteo1.obj
 0003:0001f72c       __STRLITPACK_319.0.13      005bc72c     part_io_f:meteo1.obj
 0003:0001f734       __STRLITPACK_320.0.13      005bc734     part_io_f:meteo1.obj
 0003:0001f73c       __STRLITPACK_321.0.13      005bc73c     part_io_f:meteo1.obj
 0003:0001f744       __STRLITPACK_322.0.13      005bc744     part_io_f:meteo1.obj
 0003:0001f74c       __STRLITPACK_323.0.13      005bc74c     part_io_f:meteo1.obj
 0003:0001f754       __STRLITPACK_324.0.13      005bc754     part_io_f:meteo1.obj
 0003:0001f75c       __STRLITPACK_326.0.13      005bc75c     part_io_f:meteo1.obj
 0003:0001f764       __STRLITPACK_327.0.13      005bc764     part_io_f:meteo1.obj
 0003:0001f76c       __STRLITPACK_328.0.13      005bc76c     part_io_f:meteo1.obj
 0003:0001f774       __STRLITPACK_330.0.13      005bc774     part_io_f:meteo1.obj
 0003:0001f77c       __STRLITPACK_331.0.13      005bc77c     part_io_f:meteo1.obj
 0003:0001f784       __STRLITPACK_332.0.13      005bc784     part_io_f:meteo1.obj
 0003:0001f78c       __STRLITPACK_334.0.13      005bc78c     part_io_f:meteo1.obj
 0003:0001f794       __STRLITPACK_335.0.13      005bc794     part_io_f:meteo1.obj
 0003:0001f79c       __STRLITPACK_336.0.13      005bc79c     part_io_f:meteo1.obj
 0003:0001f7a4       __STRLITPACK_337.0.13      005bc7a4     part_io_f:meteo1.obj
 0003:0001f7ac       __STRLITPACK_338.0.13      005bc7ac     part_io_f:meteo1.obj
 0003:0001f7b4       __STRLITPACK_339.0.13      005bc7b4     part_io_f:meteo1.obj
 0003:0001f7bc       __STRLITPACK_340.0.13      005bc7bc     part_io_f:meteo1.obj
 0003:0001f7c4       __STRLITPACK_343.0.13      005bc7c4     part_io_f:meteo1.obj
 0003:0001f7cc       __STRLITPACK_341.0.13      005bc7cc     part_io_f:meteo1.obj
 0003:0001f7d4       __STRLITPACK_342.0.13      005bc7d4     part_io_f:meteo1.obj
 0003:0001f7dc       __STRLITPACK_312.0.13      005bc7dc     part_io_f:meteo1.obj
 0003:0001f7e4       __STRLITPACK_325.0.13      005bc7e4     part_io_f:meteo1.obj
 0003:0001f7ec       __STRLITPACK_329.0.13      005bc7ec     part_io_f:meteo1.obj
 0003:0001f7f4       __STRLITPACK_333.0.13      005bc7f4     part_io_f:meteo1.obj
 0003:0001f7fc       __STRLITPACK_1436.0.31     005bc7fc     part_io_f:meteo1.obj
 0003:0001f804       __STRLITPACK_1437.0.31     005bc804     part_io_f:meteo1.obj
 0003:0001f80c       __STRLITPACK_1438.0.31     005bc80c     part_io_f:meteo1.obj
 0003:0001f814       __STRLITPACK_1439.0.31     005bc814     part_io_f:meteo1.obj
 0003:0001f81c       __STRLITPACK_1440.0.31     005bc81c     part_io_f:meteo1.obj
 0003:0001f824       __STRLITPACK_1441.0.31     005bc824     part_io_f:meteo1.obj
 0003:0001f82c       __NLITPACK_6.0.73          005bc82c     part_io_f:meteo1.obj
 0003:0001f830       __STRLITPACK_1520.0.73     005bc830     part_io_f:meteo1.obj
 0003:0001f838       __STRLITPACK_1521.0.73     005bc838     part_io_f:meteo1.obj
 0003:0001f840       __STRLITPACK_1522.0.73     005bc840     part_io_f:meteo1.obj
 0003:0001f848       __STRLITPACK_1523.0.73     005bc848     part_io_f:meteo1.obj
 0003:0001f850       __STRLITPACK_1524.0.73     005bc850     part_io_f:meteo1.obj
 0003:0001f858       __NLITPACK_7.0.74          005bc858     part_io_f:meteo1.obj
 0003:0001f874       __NLITPACK_9.0.76          005bc874     part_io_f:meteo1.obj
 0003:0001f878       __STRLITPACK_1525.0.76     005bc878     part_io_f:meteo1.obj
 0003:0001f880       __STRLITPACK_1526.0.76     005bc880     part_io_f:meteo1.obj
 0003:0001f888       __STRLITPACK_1527.0.76     005bc888     part_io_f:meteo1.obj
 0003:0001f890       __STRLITPACK_1528.0.76     005bc890     part_io_f:meteo1.obj
 0003:0001f898       __STRLITPACK_1529.0.76     005bc898     part_io_f:meteo1.obj
 0003:0001f89c       __STRLITPACK_1530.0.76     005bc89c     part_io_f:meteo1.obj
 0003:0001f8a4       __STRLITPACK_1531.0.76     005bc8a4     part_io_f:meteo1.obj
 0003:0001f8a8       __STRLITPACK_1532.0.76     005bc8a8     part_io_f:meteo1.obj
 0003:0001f8b0       __STRLITPACK_1533.0.76     005bc8b0     part_io_f:meteo1.obj
 0003:0001f8b8       __STRLITPACK_1534.0.76     005bc8b8     part_io_f:meteo1.obj
 0003:0001f8c0       __STRLITPACK_1535.0.76     005bc8c0     part_io_f:meteo1.obj
 0003:0001f8c8       __STRLITPACK_1536.0.76     005bc8c8     part_io_f:meteo1.obj
 0003:0001f8d0       __STRLITPACK_1537.0.76     005bc8d0     part_io_f:meteo1.obj
 0003:0001f8d8       __NLITPACK_8.0.76          005bc8d8     part_io_f:meteo1.obj
 0003:0001f8f4       __STRLITPACK_1458.0.37     005bc8f4     part_io_f:meteo1.obj
 0003:0001f8fc       __STRLITPACK_1464.0.37     005bc8fc     part_io_f:meteo1.obj
 0003:0001f904       __STRLITPACK_1465.0.37     005bc904     part_io_f:meteo1.obj
 0003:0001f908       __STRLITPACK_1466.0.37     005bc908     part_io_f:meteo1.obj
 0003:0001f910       __STRLITPACK_1467.0.37     005bc910     part_io_f:meteo1.obj
 0003:0001f918       __STRLITPACK_1468.0.37     005bc918     part_io_f:meteo1.obj
 0003:0001f91c       __STRLITPACK_1459.0.37     005bc91c     part_io_f:meteo1.obj
 0003:0001f924       __STRLITPACK_1460.0.37     005bc924     part_io_f:meteo1.obj
 0003:0001f92c       __STRLITPACK_1461.0.37     005bc92c     part_io_f:meteo1.obj
 0003:0001f934       __STRLITPACK_1462.0.37     005bc934     part_io_f:meteo1.obj
 0003:0001f93c       __STRLITPACK_1463.0.37     005bc93c     part_io_f:meteo1.obj
 0003:0001f940       __STRLITPACK_209.0.4       005bc940     part_io_f:meteo1.obj
 0003:0001f948       __STRLITPACK_210.0.4       005bc948     part_io_f:meteo1.obj
 0003:0001f960       __STRLITPACK_44            005bc960     part_io_f:meteo1.obj
 0003:0001f9c0       __STRLITPACK_6             005bc9c0     part_io_f:meteo1.obj
 0003:0001fa20       __STRLITPACK_2             005bca20     part_io_f:meteo1.obj
 0003:0001fa60       __STRLITPACK_10            005bca60     part_io_f:meteo1.obj
 0003:0001fac0       __STRLITPACK_1417          005bcac0     part_io_f:meteo1.obj
 0003:0001fb20       __STRLITPACK_100           005bcb20     part_io_f:meteo1.obj
 0003:0001fb80       __STRLITPACK_59            005bcb80     part_io_f:meteo1.obj
 0003:0001fbe0       __STRLITPACK_1513          005bcbe0     part_io_f:meteo1.obj
 0003:0001fc50       _2il0floatpacket.2         005bcc50     part_io_f:meteo1.obj
 0003:0001fc60       _2il0floatpacket.34        005bcc60     part_io_f:meteo1.obj
 0003:0001fc70       _2__cnst_pck.33            005bcc70     part_io_f:meteo1.obj
 0003:0001fcd0       _2il0floatpacket.71        005bccd0     part_io_f:meteo1.obj
 0003:0001fce0       _2il0floatpacket.72        005bcce0     part_io_f:meteo1.obj
 0003:0001fcf0       _2il0floatpacket.74        005bccf0     part_io_f:meteo1.obj
 0003:0001fd00       _2il0floatpacket.75        005bcd00     part_io_f:meteo1.obj
 0003:0001fd10       _2il0floatpacket.76        005bcd10     part_io_f:meteo1.obj
 0003:0001fd20       _2__cnst_pck.123           005bcd20     part_io_f:meteo1.obj
 0003:0001fd80       _2il0floatpacket.162       005bcd80     part_io_f:meteo1.obj
 0003:0001fd90       _2il0floatpacket.164       005bcd90     part_io_f:meteo1.obj
 0003:0001fda0       _2il0floatpacket.165       005bcda0     part_io_f:meteo1.obj
 0003:0001fdb0       _2il0floatpacket.177       005bcdb0     part_io_f:meteo1.obj
 0003:0001fdc0       _2il0floatpacket.182       005bcdc0     part_io_f:meteo1.obj
 0003:0001fdd0       _2il0floatpacket.184       005bcdd0     part_io_f:meteo1.obj
 0003:0001fde0       _2il0floatpacket.186       005bcde0     part_io_f:meteo1.obj
 0003:0001fdf0       _2il0floatpacket.191       005bcdf0     part_io_f:meteo1.obj
 0003:0001fe00       _2il0floatpacket.192       005bce00     part_io_f:meteo1.obj
 0003:0001fe10       _2il0floatpacket.194       005bce10     part_io_f:meteo1.obj
 0003:0001fe20       _2il0floatpacket.195       005bce20     part_io_f:meteo1.obj
 0003:0001fe30       _2il0floatpacket.196       005bce30     part_io_f:meteo1.obj
 0003:0001fe40       _2__cnst_pck.149           005bce40     part_io_f:meteo1.obj
 0003:0001fe80       _2il0floatpacket.208       005bce80     part_io_f:meteo1.obj
 0003:0001fe90       _2il0floatpacket.209       005bce90     part_io_f:meteo1.obj
 0003:0001fea0       _2il0floatpacket.315       005bcea0     part_io_f:meteo1.obj
 0003:0001feb0       _2il0floatpacket.341       005bceb0     part_io_f:meteo1.obj
 0003:0001fec0       _2il0floatpacket.379       005bcec0     part_io_f:meteo1.obj
 0003:0001fed0       _2il0floatpacket.501       005bced0     part_io_f:meteo1.obj
 0003:0001fee0       _2il0floatpacket.502       005bcee0     part_io_f:meteo1.obj
 0003:0001fef0       _2il0floatpacket.503       005bcef0     part_io_f:meteo1.obj
 0003:0001ff00       _2__cnst_pck.484           005bcf00     part_io_f:meteo1.obj
 0003:0001ff60       _2il0floatpacket.1014      005bcf60     part_io_f:meteo1.obj
 0003:0001ff70       _2il0floatpacket.1015      005bcf70     part_io_f:meteo1.obj
 0003:0001ff80       _2il0floatpacket.1016      005bcf80     part_io_f:meteo1.obj
 0003:0001ff90       _2il0floatpacket.1017      005bcf90     part_io_f:meteo1.obj
 0003:0001ffa0       _2il0floatpacket.0         005bcfa0     part_io_f:meteo1.obj
 0003:0001ffa8       _2il0floatpacket.1         005bcfa8     part_io_f:meteo1.obj
 0003:0001ffb0       _2il0floatpacket.3         005bcfb0     part_io_f:meteo1.obj
 0003:0001ffb8       _2il0floatpacket.4         005bcfb8     part_io_f:meteo1.obj
 0003:0001ffc0       _2il0floatpacket.5         005bcfc0     part_io_f:meteo1.obj
 0003:0001ffc8       _2il0floatpacket.6         005bcfc8     part_io_f:meteo1.obj
 0003:0001ffd0       _2il0floatpacket.7         005bcfd0     part_io_f:meteo1.obj
 0003:0001ffd8       _2il0floatpacket.8         005bcfd8     part_io_f:meteo1.obj
 0003:0001ffe0       _2il0floatpacket.9         005bcfe0     part_io_f:meteo1.obj
 0003:0001ffe8       _2il0floatpacket.10        005bcfe8     part_io_f:meteo1.obj
 0003:0001fff0       _2il0floatpacket.11        005bcff0     part_io_f:meteo1.obj
 0003:0001fff8       _2il0floatpacket.12        005bcff8     part_io_f:meteo1.obj
 0003:00020000       _2il0floatpacket.13        005bd000     part_io_f:meteo1.obj
 0003:00020008       _2il0floatpacket.14        005bd008     part_io_f:meteo1.obj
 0003:00020010       _2il0floatpacket.15        005bd010     part_io_f:meteo1.obj
 0003:00020018       _2il0floatpacket.16        005bd018     part_io_f:meteo1.obj
 0003:00020020       _2il0floatpacket.17        005bd020     part_io_f:meteo1.obj
 0003:00020028       _2il0floatpacket.18        005bd028     part_io_f:meteo1.obj
 0003:00020030       _2il0floatpacket.19        005bd030     part_io_f:meteo1.obj
 0003:00020038       _2il0floatpacket.20        005bd038     part_io_f:meteo1.obj
 0003:00020040       _2il0floatpacket.21        005bd040     part_io_f:meteo1.obj
 0003:00020048       _2il0floatpacket.22        005bd048     part_io_f:meteo1.obj
 0003:00020050       _2il0floatpacket.31        005bd050     part_io_f:meteo1.obj
 0003:00020058       _2il0floatpacket.32        005bd058     part_io_f:meteo1.obj
 0003:00020060       _2il0floatpacket.35        005bd060     part_io_f:meteo1.obj
 0003:00020068       _2il0floatpacket.36        005bd068     part_io_f:meteo1.obj
 0003:00020070       _2il0floatpacket.37        005bd070     part_io_f:meteo1.obj
 0003:00020078       _2il0floatpacket.38        005bd078     part_io_f:meteo1.obj
 0003:00020080       _2il0floatpacket.39        005bd080     part_io_f:meteo1.obj
 0003:00020088       _2il0floatpacket.40        005bd088     part_io_f:meteo1.obj
 0003:00020090       _2il0floatpacket.41        005bd090     part_io_f:meteo1.obj
 0003:00020098       _2il0floatpacket.42        005bd098     part_io_f:meteo1.obj
 0003:000200a0       _2il0floatpacket.43        005bd0a0     part_io_f:meteo1.obj
 0003:000200a8       _2il0floatpacket.44        005bd0a8     part_io_f:meteo1.obj
 0003:000200b0       _2il0floatpacket.45        005bd0b0     part_io_f:meteo1.obj
 0003:000200b8       _2il0floatpacket.46        005bd0b8     part_io_f:meteo1.obj
 0003:000200c0       _2il0floatpacket.47        005bd0c0     part_io_f:meteo1.obj
 0003:000200c8       _2il0floatpacket.48        005bd0c8     part_io_f:meteo1.obj
 0003:000200d0       _2il0floatpacket.49        005bd0d0     part_io_f:meteo1.obj
 0003:000200d8       _2il0floatpacket.50        005bd0d8     part_io_f:meteo1.obj
 0003:000200e0       _2il0floatpacket.51        005bd0e0     part_io_f:meteo1.obj
 0003:000200e8       _2il0floatpacket.52        005bd0e8     part_io_f:meteo1.obj
 0003:000200f0       _2il0floatpacket.53        005bd0f0     part_io_f:meteo1.obj
 0003:000200f8       _2il0floatpacket.54        005bd0f8     part_io_f:meteo1.obj
 0003:00020100       _2il0floatpacket.55        005bd100     part_io_f:meteo1.obj
 0003:00020108       _2il0floatpacket.56        005bd108     part_io_f:meteo1.obj
 0003:00020110       _2il0floatpacket.57        005bd110     part_io_f:meteo1.obj
 0003:00020118       _2il0floatpacket.58        005bd118     part_io_f:meteo1.obj
 0003:00020120       _2il0floatpacket.59        005bd120     part_io_f:meteo1.obj
 0003:00020128       _2il0floatpacket.60        005bd128     part_io_f:meteo1.obj
 0003:00020130       _2il0floatpacket.61        005bd130     part_io_f:meteo1.obj
 0003:00020138       _2il0floatpacket.62        005bd138     part_io_f:meteo1.obj
 0003:00020140       _2il0floatpacket.63        005bd140     part_io_f:meteo1.obj
 0003:00020148       _2il0floatpacket.64        005bd148     part_io_f:meteo1.obj
 0003:00020150       _2il0floatpacket.65        005bd150     part_io_f:meteo1.obj
 0003:00020158       _2il0floatpacket.66        005bd158     part_io_f:meteo1.obj
 0003:00020160       _2il0floatpacket.67        005bd160     part_io_f:meteo1.obj
 0003:00020168       _2il0floatpacket.68        005bd168     part_io_f:meteo1.obj
 0003:00020170       _2il0floatpacket.69        005bd170     part_io_f:meteo1.obj
 0003:00020178       _2il0floatpacket.70        005bd178     part_io_f:meteo1.obj
 0003:00020180       _2il0floatpacket.73        005bd180     part_io_f:meteo1.obj
 0003:00020188       _2il0floatpacket.77        005bd188     part_io_f:meteo1.obj
 0003:00020190       _2il0floatpacket.78        005bd190     part_io_f:meteo1.obj
 0003:00020198       _2il0floatpacket.79        005bd198     part_io_f:meteo1.obj
 0003:000201a0       _2il0floatpacket.80        005bd1a0     part_io_f:meteo1.obj
 0003:000201a8       _2il0floatpacket.81        005bd1a8     part_io_f:meteo1.obj
 0003:000201b0       _2il0floatpacket.82        005bd1b0     part_io_f:meteo1.obj
 0003:000201b8       _2il0floatpacket.83        005bd1b8     part_io_f:meteo1.obj
 0003:000201c0       _2il0floatpacket.84        005bd1c0     part_io_f:meteo1.obj
 0003:000201c8       _2il0floatpacket.85        005bd1c8     part_io_f:meteo1.obj
 0003:000201d0       _2il0floatpacket.86        005bd1d0     part_io_f:meteo1.obj
 0003:000201d8       _2il0floatpacket.87        005bd1d8     part_io_f:meteo1.obj
 0003:000201e0       _2il0floatpacket.88        005bd1e0     part_io_f:meteo1.obj
 0003:000201e8       _2il0floatpacket.89        005bd1e8     part_io_f:meteo1.obj
 0003:000201f0       _2il0floatpacket.90        005bd1f0     part_io_f:meteo1.obj
 0003:000201f8       _2il0floatpacket.91        005bd1f8     part_io_f:meteo1.obj
 0003:00020200       _2il0floatpacket.92        005bd200     part_io_f:meteo1.obj
 0003:00020208       _2il0floatpacket.93        005bd208     part_io_f:meteo1.obj
 0003:00020210       _2il0floatpacket.94        005bd210     part_io_f:meteo1.obj
 0003:00020218       _2il0floatpacket.95        005bd218     part_io_f:meteo1.obj
 0003:00020220       _2il0floatpacket.96        005bd220     part_io_f:meteo1.obj
 0003:00020228       _2il0floatpacket.97        005bd228     part_io_f:meteo1.obj
 0003:00020230       _2il0floatpacket.98        005bd230     part_io_f:meteo1.obj
 0003:00020238       _2il0floatpacket.99        005bd238     part_io_f:meteo1.obj
 0003:00020240       _2il0floatpacket.100       005bd240     part_io_f:meteo1.obj
 0003:00020248       _2il0floatpacket.101       005bd248     part_io_f:meteo1.obj
 0003:00020250       _2il0floatpacket.102       005bd250     part_io_f:meteo1.obj
 0003:00020258       _2il0floatpacket.103       005bd258     part_io_f:meteo1.obj
 0003:00020260       _2il0floatpacket.104       005bd260     part_io_f:meteo1.obj
 0003:00020268       _2il0floatpacket.105       005bd268     part_io_f:meteo1.obj
 0003:00020270       _2il0floatpacket.106       005bd270     part_io_f:meteo1.obj
 0003:00020278       _2il0floatpacket.107       005bd278     part_io_f:meteo1.obj
 0003:00020280       _2il0floatpacket.108       005bd280     part_io_f:meteo1.obj
 0003:00020288       _2il0floatpacket.109       005bd288     part_io_f:meteo1.obj
 0003:00020290       _2il0floatpacket.110       005bd290     part_io_f:meteo1.obj
 0003:00020298       _2il0floatpacket.111       005bd298     part_io_f:meteo1.obj
 0003:000202a0       _2il0floatpacket.112       005bd2a0     part_io_f:meteo1.obj
 0003:000202a8       _2il0floatpacket.113       005bd2a8     part_io_f:meteo1.obj
 0003:000202b0       _2il0floatpacket.114       005bd2b0     part_io_f:meteo1.obj
 0003:000202b8       _2il0floatpacket.115       005bd2b8     part_io_f:meteo1.obj
 0003:000202c0       _2il0floatpacket.116       005bd2c0     part_io_f:meteo1.obj
 0003:000202c8       _2il0floatpacket.117       005bd2c8     part_io_f:meteo1.obj
 0003:000202d0       _2il0floatpacket.118       005bd2d0     part_io_f:meteo1.obj
 0003:000202d8       _2il0floatpacket.119       005bd2d8     part_io_f:meteo1.obj
 0003:000202e0       _2il0floatpacket.120       005bd2e0     part_io_f:meteo1.obj
 0003:000202e8       _2il0floatpacket.121       005bd2e8     part_io_f:meteo1.obj
 0003:000202f0       _2il0floatpacket.122       005bd2f0     part_io_f:meteo1.obj
 0003:000202f8       _2il0floatpacket.124       005bd2f8     part_io_f:meteo1.obj
 0003:00020300       _2il0floatpacket.125       005bd300     part_io_f:meteo1.obj
 0003:00020308       _2il0floatpacket.126       005bd308     part_io_f:meteo1.obj
 0003:00020310       _2il0floatpacket.127       005bd310     part_io_f:meteo1.obj
 0003:00020318       _2il0floatpacket.128       005bd318     part_io_f:meteo1.obj
 0003:00020320       _2il0floatpacket.129       005bd320     part_io_f:meteo1.obj
 0003:00020328       _2il0floatpacket.130       005bd328     part_io_f:meteo1.obj
 0003:00020330       _2il0floatpacket.131       005bd330     part_io_f:meteo1.obj
 0003:00020338       _2il0floatpacket.132       005bd338     part_io_f:meteo1.obj
 0003:00020340       _2il0floatpacket.133       005bd340     part_io_f:meteo1.obj
 0003:00020348       _2il0floatpacket.134       005bd348     part_io_f:meteo1.obj
 0003:00020350       _2il0floatpacket.135       005bd350     part_io_f:meteo1.obj
 0003:00020358       _2il0floatpacket.136       005bd358     part_io_f:meteo1.obj
 0003:00020360       _2il0floatpacket.137       005bd360     part_io_f:meteo1.obj
 0003:00020368       _2il0floatpacket.138       005bd368     part_io_f:meteo1.obj
 0003:00020370       _2il0floatpacket.139       005bd370     part_io_f:meteo1.obj
 0003:00020378       _2il0floatpacket.140       005bd378     part_io_f:meteo1.obj
 0003:00020380       _2il0floatpacket.141       005bd380     part_io_f:meteo1.obj
 0003:00020388       _2il0floatpacket.142       005bd388     part_io_f:meteo1.obj
 0003:00020390       _2il0floatpacket.143       005bd390     part_io_f:meteo1.obj
 0003:00020398       _2il0floatpacket.144       005bd398     part_io_f:meteo1.obj
 0003:000203a0       _2il0floatpacket.145       005bd3a0     part_io_f:meteo1.obj
 0003:000203a8       _2il0floatpacket.146       005bd3a8     part_io_f:meteo1.obj
 0003:000203b0       _2il0floatpacket.147       005bd3b0     part_io_f:meteo1.obj
 0003:000203b8       _2il0floatpacket.148       005bd3b8     part_io_f:meteo1.obj
 0003:000203c0       _2il0floatpacket.151       005bd3c0     part_io_f:meteo1.obj
 0003:000203c8       _2il0floatpacket.152       005bd3c8     part_io_f:meteo1.obj
 0003:000203d0       _2il0floatpacket.153       005bd3d0     part_io_f:meteo1.obj
 0003:000203d8       _2il0floatpacket.154       005bd3d8     part_io_f:meteo1.obj
 0003:000203e0       _2il0floatpacket.155       005bd3e0     part_io_f:meteo1.obj
 0003:000203e8       _2il0floatpacket.156       005bd3e8     part_io_f:meteo1.obj
 0003:000203f0       _2il0floatpacket.157       005bd3f0     part_io_f:meteo1.obj
 0003:000203f8       _2il0floatpacket.158       005bd3f8     part_io_f:meteo1.obj
 0003:00020400       _2il0floatpacket.159       005bd400     part_io_f:meteo1.obj
 0003:00020408       _2il0floatpacket.160       005bd408     part_io_f:meteo1.obj
 0003:00020410       _2il0floatpacket.161       005bd410     part_io_f:meteo1.obj
 0003:00020418       _2il0floatpacket.163       005bd418     part_io_f:meteo1.obj
 0003:00020420       _2il0floatpacket.166       005bd420     part_io_f:meteo1.obj
 0003:00020428       _2il0floatpacket.167       005bd428     part_io_f:meteo1.obj
 0003:00020430       _2il0floatpacket.168       005bd430     part_io_f:meteo1.obj
 0003:00020438       _2il0floatpacket.169       005bd438     part_io_f:meteo1.obj
 0003:00020440       _2il0floatpacket.170       005bd440     part_io_f:meteo1.obj
 0003:00020448       _2il0floatpacket.171       005bd448     part_io_f:meteo1.obj
 0003:00020450       _2il0floatpacket.172       005bd450     part_io_f:meteo1.obj
 0003:00020458       _2il0floatpacket.173       005bd458     part_io_f:meteo1.obj
 0003:00020460       _2il0floatpacket.174       005bd460     part_io_f:meteo1.obj
 0003:00020468       _2il0floatpacket.175       005bd468     part_io_f:meteo1.obj
 0003:00020470       _2il0floatpacket.176       005bd470     part_io_f:meteo1.obj
 0003:00020478       _2il0floatpacket.178       005bd478     part_io_f:meteo1.obj
 0003:00020480       _2il0floatpacket.179       005bd480     part_io_f:meteo1.obj
 0003:00020488       _2il0floatpacket.180       005bd488     part_io_f:meteo1.obj
 0003:00020490       _2il0floatpacket.181       005bd490     part_io_f:meteo1.obj
 0003:00020498       _2il0floatpacket.183       005bd498     part_io_f:meteo1.obj
 0003:000204a0       _2il0floatpacket.185       005bd4a0     part_io_f:meteo1.obj
 0003:000204a8       _2il0floatpacket.187       005bd4a8     part_io_f:meteo1.obj
 0003:000204b0       _2il0floatpacket.188       005bd4b0     part_io_f:meteo1.obj
 0003:000204b8       _2il0floatpacket.189       005bd4b8     part_io_f:meteo1.obj
 0003:000204c0       _2il0floatpacket.190       005bd4c0     part_io_f:meteo1.obj
 0003:000204c8       _2il0floatpacket.193       005bd4c8     part_io_f:meteo1.obj
 0003:000204d0       _2il0floatpacket.197       005bd4d0     part_io_f:meteo1.obj
 0003:000204d8       _2il0floatpacket.198       005bd4d8     part_io_f:meteo1.obj
 0003:000204e0       _2il0floatpacket.199       005bd4e0     part_io_f:meteo1.obj
 0003:000204e8       _2il0floatpacket.200       005bd4e8     part_io_f:meteo1.obj
 0003:000204f0       _2il0floatpacket.201       005bd4f0     part_io_f:meteo1.obj
 0003:000204f8       _2il0floatpacket.202       005bd4f8     part_io_f:meteo1.obj
 0003:00020500       _2il0floatpacket.203       005bd500     part_io_f:meteo1.obj
 0003:00020508       _2il0floatpacket.204       005bd508     part_io_f:meteo1.obj
 0003:00020510       _2il0floatpacket.205       005bd510     part_io_f:meteo1.obj
 0003:00020518       _2il0floatpacket.206       005bd518     part_io_f:meteo1.obj
 0003:00020520       _2il0floatpacket.207       005bd520     part_io_f:meteo1.obj
 0003:00020528       _2il0floatpacket.210       005bd528     part_io_f:meteo1.obj
 0003:00020530       _2il0floatpacket.211       005bd530     part_io_f:meteo1.obj
 0003:00020538       _2il0floatpacket.212       005bd538     part_io_f:meteo1.obj
 0003:00020540       _2il0floatpacket.213       005bd540     part_io_f:meteo1.obj
 0003:00020548       _2il0floatpacket.214       005bd548     part_io_f:meteo1.obj
 0003:00020550       _2il0floatpacket.215       005bd550     part_io_f:meteo1.obj
 0003:00020558       _2il0floatpacket.216       005bd558     part_io_f:meteo1.obj
 0003:00020560       _2il0floatpacket.217       005bd560     part_io_f:meteo1.obj
 0003:00020568       _2il0floatpacket.218       005bd568     part_io_f:meteo1.obj
 0003:00020570       _2il0floatpacket.219       005bd570     part_io_f:meteo1.obj
 0003:00020578       _2il0floatpacket.220       005bd578     part_io_f:meteo1.obj
 0003:00020580       _2il0floatpacket.221       005bd580     part_io_f:meteo1.obj
 0003:00020588       _2il0floatpacket.222       005bd588     part_io_f:meteo1.obj
 0003:00020590       _2il0floatpacket.223       005bd590     part_io_f:meteo1.obj
 0003:00020598       _2il0floatpacket.224       005bd598     part_io_f:meteo1.obj
 0003:000205a0       _2il0floatpacket.225       005bd5a0     part_io_f:meteo1.obj
 0003:000205a8       _2il0floatpacket.226       005bd5a8     part_io_f:meteo1.obj
 0003:000205b0       _2il0floatpacket.227       005bd5b0     part_io_f:meteo1.obj
 0003:000205b8       _2il0floatpacket.228       005bd5b8     part_io_f:meteo1.obj
 0003:000205c0       _2il0floatpacket.229       005bd5c0     part_io_f:meteo1.obj
 0003:000205c8       _2il0floatpacket.230       005bd5c8     part_io_f:meteo1.obj
 0003:000205d0       _2il0floatpacket.231       005bd5d0     part_io_f:meteo1.obj
 0003:000205d8       _2il0floatpacket.232       005bd5d8     part_io_f:meteo1.obj
 0003:000205e0       _2il0floatpacket.233       005bd5e0     part_io_f:meteo1.obj
 0003:000205e8       _2il0floatpacket.234       005bd5e8     part_io_f:meteo1.obj
 0003:000205f0       _2il0floatpacket.235       005bd5f0     part_io_f:meteo1.obj
 0003:000205f8       _2il0floatpacket.236       005bd5f8     part_io_f:meteo1.obj
 0003:00020600       _2il0floatpacket.237       005bd600     part_io_f:meteo1.obj
 0003:00020608       _2il0floatpacket.238       005bd608     part_io_f:meteo1.obj
 0003:00020610       _2il0floatpacket.239       005bd610     part_io_f:meteo1.obj
 0003:00020618       _2il0floatpacket.240       005bd618     part_io_f:meteo1.obj
 0003:00020620       _2il0floatpacket.241       005bd620     part_io_f:meteo1.obj
 0003:00020628       _2il0floatpacket.242       005bd628     part_io_f:meteo1.obj
 0003:00020630       _2il0floatpacket.243       005bd630     part_io_f:meteo1.obj
 0003:00020638       _2il0floatpacket.252       005bd638     part_io_f:meteo1.obj
 0003:00020640       _2il0floatpacket.253       005bd640     part_io_f:meteo1.obj
 0003:00020648       _2il0floatpacket.266       005bd648     part_io_f:meteo1.obj
 0003:00020650       _2il0floatpacket.267       005bd650     part_io_f:meteo1.obj
 0003:00020658       _2il0floatpacket.268       005bd658     part_io_f:meteo1.obj
 0003:00020660       _2il0floatpacket.269       005bd660     part_io_f:meteo1.obj
 0003:00020668       _2il0floatpacket.270       005bd668     part_io_f:meteo1.obj
 0003:00020670       _2il0floatpacket.271       005bd670     part_io_f:meteo1.obj
 0003:00020678       _2il0floatpacket.272       005bd678     part_io_f:meteo1.obj
 0003:00020680       _2il0floatpacket.273       005bd680     part_io_f:meteo1.obj
 0003:00020688       _2il0floatpacket.274       005bd688     part_io_f:meteo1.obj
 0003:00020690       _2il0floatpacket.275       005bd690     part_io_f:meteo1.obj
 0003:00020698       _2il0floatpacket.276       005bd698     part_io_f:meteo1.obj
 0003:000206a0       _2il0floatpacket.277       005bd6a0     part_io_f:meteo1.obj
 0003:000206a8       _2il0floatpacket.278       005bd6a8     part_io_f:meteo1.obj
 0003:000206b0       _2il0floatpacket.279       005bd6b0     part_io_f:meteo1.obj
 0003:000206b8       _2il0floatpacket.280       005bd6b8     part_io_f:meteo1.obj
 0003:000206c0       _2il0floatpacket.281       005bd6c0     part_io_f:meteo1.obj
 0003:000206c8       _2il0floatpacket.282       005bd6c8     part_io_f:meteo1.obj
 0003:000206d0       _2il0floatpacket.283       005bd6d0     part_io_f:meteo1.obj
 0003:000206d8       _2il0floatpacket.284       005bd6d8     part_io_f:meteo1.obj
 0003:000206e0       _2il0floatpacket.316       005bd6e0     part_io_f:meteo1.obj
 0003:000206e8       _2il0floatpacket.317       005bd6e8     part_io_f:meteo1.obj
 0003:000206f0       _2il0floatpacket.318       005bd6f0     part_io_f:meteo1.obj
 0003:000206f8       _2il0floatpacket.319       005bd6f8     part_io_f:meteo1.obj
 0003:00020700       _2il0floatpacket.320       005bd700     part_io_f:meteo1.obj
 0003:00020708       _2il0floatpacket.321       005bd708     part_io_f:meteo1.obj
 0003:00020710       _2il0floatpacket.322       005bd710     part_io_f:meteo1.obj
 0003:00020718       _2il0floatpacket.323       005bd718     part_io_f:meteo1.obj
 0003:00020720       _2il0floatpacket.324       005bd720     part_io_f:meteo1.obj
 0003:00020728       _2il0floatpacket.325       005bd728     part_io_f:meteo1.obj
 0003:00020730       _2il0floatpacket.326       005bd730     part_io_f:meteo1.obj
 0003:00020738       _2il0floatpacket.327       005bd738     part_io_f:meteo1.obj
 0003:00020740       _2il0floatpacket.328       005bd740     part_io_f:meteo1.obj
 0003:00020748       _2il0floatpacket.329       005bd748     part_io_f:meteo1.obj
 0003:00020750       _2il0floatpacket.330       005bd750     part_io_f:meteo1.obj
 0003:00020758       _2il0floatpacket.331       005bd758     part_io_f:meteo1.obj
 0003:00020760       _2il0floatpacket.332       005bd760     part_io_f:meteo1.obj
 0003:00020768       _2il0floatpacket.333       005bd768     part_io_f:meteo1.obj
 0003:00020770       _2il0floatpacket.334       005bd770     part_io_f:meteo1.obj
 0003:00020778       _2il0floatpacket.335       005bd778     part_io_f:meteo1.obj
 0003:00020780       _2il0floatpacket.336       005bd780     part_io_f:meteo1.obj
 0003:00020788       _2il0floatpacket.337       005bd788     part_io_f:meteo1.obj
 0003:00020790       _2il0floatpacket.338       005bd790     part_io_f:meteo1.obj
 0003:00020798       _2il0floatpacket.339       005bd798     part_io_f:meteo1.obj
 0003:000207a0       _2il0floatpacket.340       005bd7a0     part_io_f:meteo1.obj
 0003:000207a8       _2il0floatpacket.342       005bd7a8     part_io_f:meteo1.obj
 0003:000207b0       _2il0floatpacket.343       005bd7b0     part_io_f:meteo1.obj
 0003:000207b8       _2il0floatpacket.344       005bd7b8     part_io_f:meteo1.obj
 0003:000207c0       _2il0floatpacket.345       005bd7c0     part_io_f:meteo1.obj
 0003:000207c8       _2il0floatpacket.346       005bd7c8     part_io_f:meteo1.obj
 0003:000207d0       _2il0floatpacket.347       005bd7d0     part_io_f:meteo1.obj
 0003:000207d8       _2il0floatpacket.348       005bd7d8     part_io_f:meteo1.obj
 0003:000207e0       _2il0floatpacket.349       005bd7e0     part_io_f:meteo1.obj
 0003:000207e8       _2il0floatpacket.350       005bd7e8     part_io_f:meteo1.obj
 0003:000207f0       _2il0floatpacket.351       005bd7f0     part_io_f:meteo1.obj
 0003:000207f8       _2il0floatpacket.352       005bd7f8     part_io_f:meteo1.obj
 0003:00020800       _2il0floatpacket.377       005bd800     part_io_f:meteo1.obj
 0003:00020808       _2il0floatpacket.378       005bd808     part_io_f:meteo1.obj
 0003:00020810       _2il0floatpacket.380       005bd810     part_io_f:meteo1.obj
 0003:00020818       _2il0floatpacket.413       005bd818     part_io_f:meteo1.obj
 0003:00020820       _2il0floatpacket.414       005bd820     part_io_f:meteo1.obj
 0003:00020828       _2il0floatpacket.415       005bd828     part_io_f:meteo1.obj
 0003:00020830       _2il0floatpacket.416       005bd830     part_io_f:meteo1.obj
 0003:00020838       _2il0floatpacket.417       005bd838     part_io_f:meteo1.obj
 0003:00020840       _2il0floatpacket.474       005bd840     part_io_f:meteo1.obj
 0003:00020848       _2il0floatpacket.475       005bd848     part_io_f:meteo1.obj
 0003:00020850       _2il0floatpacket.476       005bd850     part_io_f:meteo1.obj
 0003:00020858       _2il0floatpacket.477       005bd858     part_io_f:meteo1.obj
 0003:00020860       _2il0floatpacket.478       005bd860     part_io_f:meteo1.obj
 0003:00020868       _2il0floatpacket.479       005bd868     part_io_f:meteo1.obj
 0003:00020870       _2il0floatpacket.480       005bd870     part_io_f:meteo1.obj
 0003:00020878       _2il0floatpacket.481       005bd878     part_io_f:meteo1.obj
 0003:00020880       _2il0floatpacket.482       005bd880     part_io_f:meteo1.obj
 0003:00020888       _2il0floatpacket.483       005bd888     part_io_f:meteo1.obj
 0003:00020890       _2il0floatpacket.485       005bd890     part_io_f:meteo1.obj
 0003:00020898       _2il0floatpacket.486       005bd898     part_io_f:meteo1.obj
 0003:000208a0       _2il0floatpacket.487       005bd8a0     part_io_f:meteo1.obj
 0003:000208a8       _2il0floatpacket.488       005bd8a8     part_io_f:meteo1.obj
 0003:000208b0       _2il0floatpacket.489       005bd8b0     part_io_f:meteo1.obj
 0003:000208b8       _2il0floatpacket.490       005bd8b8     part_io_f:meteo1.obj
 0003:000208c0       _2il0floatpacket.491       005bd8c0     part_io_f:meteo1.obj
 0003:000208c8       _2il0floatpacket.492       005bd8c8     part_io_f:meteo1.obj
 0003:000208d0       _2il0floatpacket.493       005bd8d0     part_io_f:meteo1.obj
 0003:000208d8       _2il0floatpacket.494       005bd8d8     part_io_f:meteo1.obj
 0003:000208e0       _2il0floatpacket.495       005bd8e0     part_io_f:meteo1.obj
 0003:000208e8       _2il0floatpacket.496       005bd8e8     part_io_f:meteo1.obj
 0003:000208f0       _2il0floatpacket.497       005bd8f0     part_io_f:meteo1.obj
 0003:000208f8       _2il0floatpacket.498       005bd8f8     part_io_f:meteo1.obj
 0003:00020900       _2il0floatpacket.499       005bd900     part_io_f:meteo1.obj
 0003:00020908       _2il0floatpacket.500       005bd908     part_io_f:meteo1.obj
 0003:00020910       _2il0floatpacket.504       005bd910     part_io_f:meteo1.obj
 0003:00020918       _2il0floatpacket.505       005bd918     part_io_f:meteo1.obj
 0003:00020920       _2il0floatpacket.506       005bd920     part_io_f:meteo1.obj
 0003:00020928       _2il0floatpacket.507       005bd928     part_io_f:meteo1.obj
 0003:00020930       _2il0floatpacket.508       005bd930     part_io_f:meteo1.obj
 0003:00020938       _2il0floatpacket.509       005bd938     part_io_f:meteo1.obj
 0003:00020940       _2il0floatpacket.510       005bd940     part_io_f:meteo1.obj
 0003:00020948       _2il0floatpacket.511       005bd948     part_io_f:meteo1.obj
 0003:00020950       _2il0floatpacket.512       005bd950     part_io_f:meteo1.obj
 0003:00020958       _2il0floatpacket.513       005bd958     part_io_f:meteo1.obj
 0003:00020960       _2il0floatpacket.514       005bd960     part_io_f:meteo1.obj
 0003:00020968       _2il0floatpacket.515       005bd968     part_io_f:meteo1.obj
 0003:00020970       _2il0floatpacket.516       005bd970     part_io_f:meteo1.obj
 0003:00020978       _2il0floatpacket.517       005bd978     part_io_f:meteo1.obj
 0003:00020980       _2il0floatpacket.518       005bd980     part_io_f:meteo1.obj
 0003:00020988       _2il0floatpacket.519       005bd988     part_io_f:meteo1.obj
 0003:00020990       _2il0floatpacket.520       005bd990     part_io_f:meteo1.obj
 0003:00020998       _2il0floatpacket.521       005bd998     part_io_f:meteo1.obj
 0003:000209a0       _2il0floatpacket.522       005bd9a0     part_io_f:meteo1.obj
 0003:000209a8       _2il0floatpacket.523       005bd9a8     part_io_f:meteo1.obj
 0003:000209b0       _2il0floatpacket.524       005bd9b0     part_io_f:meteo1.obj
 0003:000209b8       _2il0floatpacket.525       005bd9b8     part_io_f:meteo1.obj
 0003:000209c0       _2il0floatpacket.526       005bd9c0     part_io_f:meteo1.obj
 0003:000209c8       _2il0floatpacket.527       005bd9c8     part_io_f:meteo1.obj
 0003:000209d0       _2il0floatpacket.528       005bd9d0     part_io_f:meteo1.obj
 0003:000209d8       _2il0floatpacket.529       005bd9d8     part_io_f:meteo1.obj
 0003:000209e0       _2il0floatpacket.530       005bd9e0     part_io_f:meteo1.obj
 0003:000209e8       _2il0floatpacket.531       005bd9e8     part_io_f:meteo1.obj
 0003:000209f0       _2il0floatpacket.532       005bd9f0     part_io_f:meteo1.obj
 0003:000209f8       _2il0floatpacket.533       005bd9f8     part_io_f:meteo1.obj
 0003:00020a00       _2il0floatpacket.534       005bda00     part_io_f:meteo1.obj
 0003:00020a08       _2il0floatpacket.535       005bda08     part_io_f:meteo1.obj
 0003:00020a10       _2il0floatpacket.536       005bda10     part_io_f:meteo1.obj
 0003:00020a18       _2il0floatpacket.537       005bda18     part_io_f:meteo1.obj
 0003:00020a20       _2il0floatpacket.538       005bda20     part_io_f:meteo1.obj
 0003:00020a28       _2il0floatpacket.539       005bda28     part_io_f:meteo1.obj
 0003:00020a30       _2il0floatpacket.540       005bda30     part_io_f:meteo1.obj
 0003:00020a38       _2il0floatpacket.541       005bda38     part_io_f:meteo1.obj
 0003:00020a40       _2il0floatpacket.542       005bda40     part_io_f:meteo1.obj
 0003:00020a48       _2il0floatpacket.543       005bda48     part_io_f:meteo1.obj
 0003:00020a50       _2il0floatpacket.544       005bda50     part_io_f:meteo1.obj
 0003:00020a58       _2il0floatpacket.545       005bda58     part_io_f:meteo1.obj
 0003:00020a60       _2il0floatpacket.546       005bda60     part_io_f:meteo1.obj
 0003:00020a68       _2il0floatpacket.547       005bda68     part_io_f:meteo1.obj
 0003:00020a70       _2il0floatpacket.548       005bda70     part_io_f:meteo1.obj
 0003:00020a78       _2il0floatpacket.549       005bda78     part_io_f:meteo1.obj
 0003:00020a80       _2il0floatpacket.550       005bda80     part_io_f:meteo1.obj
 0003:00020a88       _2il0floatpacket.551       005bda88     part_io_f:meteo1.obj
 0003:00020a90       _2il0floatpacket.552       005bda90     part_io_f:meteo1.obj
 0003:00020a98       _2il0floatpacket.553       005bda98     part_io_f:meteo1.obj
 0003:00020aa0       _2il0floatpacket.554       005bdaa0     part_io_f:meteo1.obj
 0003:00020aa8       _2il0floatpacket.555       005bdaa8     part_io_f:meteo1.obj
 0003:00020ab0       _2il0floatpacket.556       005bdab0     part_io_f:meteo1.obj
 0003:00020ab8       _2il0floatpacket.557       005bdab8     part_io_f:meteo1.obj
 0003:00020ac0       _2il0floatpacket.558       005bdac0     part_io_f:meteo1.obj
 0003:00020ac8       _2il0floatpacket.559       005bdac8     part_io_f:meteo1.obj
 0003:00020ad0       _2il0floatpacket.560       005bdad0     part_io_f:meteo1.obj
 0003:00020ad8       _2il0floatpacket.561       005bdad8     part_io_f:meteo1.obj
 0003:00020ae0       _2il0floatpacket.562       005bdae0     part_io_f:meteo1.obj
 0003:00020ae8       _2il0floatpacket.563       005bdae8     part_io_f:meteo1.obj
 0003:00020af0       _2il0floatpacket.564       005bdaf0     part_io_f:meteo1.obj
 0003:00020af8       _2il0floatpacket.565       005bdaf8     part_io_f:meteo1.obj
 0003:00020b00       _2il0floatpacket.566       005bdb00     part_io_f:meteo1.obj
 0003:00020b08       _2il0floatpacket.567       005bdb08     part_io_f:meteo1.obj
 0003:00020b10       _2il0floatpacket.568       005bdb10     part_io_f:meteo1.obj
 0003:00020b18       _2il0floatpacket.569       005bdb18     part_io_f:meteo1.obj
 0003:00020b20       _2il0floatpacket.570       005bdb20     part_io_f:meteo1.obj
 0003:00020b28       _2il0floatpacket.571       005bdb28     part_io_f:meteo1.obj
 0003:00020b30       _2il0floatpacket.572       005bdb30     part_io_f:meteo1.obj
 0003:00020b38       _2il0floatpacket.573       005bdb38     part_io_f:meteo1.obj
 0003:00020b40       _2il0floatpacket.574       005bdb40     part_io_f:meteo1.obj
 0003:00020b48       _2il0floatpacket.575       005bdb48     part_io_f:meteo1.obj
 0003:00020b50       _2il0floatpacket.576       005bdb50     part_io_f:meteo1.obj
 0003:00020b58       _2il0floatpacket.577       005bdb58     part_io_f:meteo1.obj
 0003:00020b60       _2il0floatpacket.578       005bdb60     part_io_f:meteo1.obj
 0003:00020b68       _2il0floatpacket.579       005bdb68     part_io_f:meteo1.obj
 0003:00020b70       _2il0floatpacket.580       005bdb70     part_io_f:meteo1.obj
 0003:00020b78       _2il0floatpacket.581       005bdb78     part_io_f:meteo1.obj
 0003:00020b80       _2il0floatpacket.582       005bdb80     part_io_f:meteo1.obj
 0003:00020b88       _2il0floatpacket.583       005bdb88     part_io_f:meteo1.obj
 0003:00020b90       _2il0floatpacket.584       005bdb90     part_io_f:meteo1.obj
 0003:00020b98       _2il0floatpacket.585       005bdb98     part_io_f:meteo1.obj
 0003:00020ba0       _2il0floatpacket.586       005bdba0     part_io_f:meteo1.obj
 0003:00020ba8       _2il0floatpacket.587       005bdba8     part_io_f:meteo1.obj
 0003:00020bb0       _2il0floatpacket.588       005bdbb0     part_io_f:meteo1.obj
 0003:00020bb8       _2il0floatpacket.589       005bdbb8     part_io_f:meteo1.obj
 0003:00020bc0       _2il0floatpacket.590       005bdbc0     part_io_f:meteo1.obj
 0003:00020bc8       _2il0floatpacket.591       005bdbc8     part_io_f:meteo1.obj
 0003:00020bd0       _2il0floatpacket.592       005bdbd0     part_io_f:meteo1.obj
 0003:00020bd8       _2il0floatpacket.593       005bdbd8     part_io_f:meteo1.obj
 0003:00020be0       _2il0floatpacket.594       005bdbe0     part_io_f:meteo1.obj
 0003:00020be8       _2il0floatpacket.595       005bdbe8     part_io_f:meteo1.obj
 0003:00020bf0       _2il0floatpacket.596       005bdbf0     part_io_f:meteo1.obj
 0003:00020bf8       _2il0floatpacket.597       005bdbf8     part_io_f:meteo1.obj
 0003:00020c00       _2il0floatpacket.598       005bdc00     part_io_f:meteo1.obj
 0003:00020c08       _2il0floatpacket.599       005bdc08     part_io_f:meteo1.obj
 0003:00020c10       _2il0floatpacket.600       005bdc10     part_io_f:meteo1.obj
 0003:00020c18       _2il0floatpacket.601       005bdc18     part_io_f:meteo1.obj
 0003:00020c20       _2il0floatpacket.602       005bdc20     part_io_f:meteo1.obj
 0003:00020c28       _2il0floatpacket.603       005bdc28     part_io_f:meteo1.obj
 0003:00020c30       _2il0floatpacket.604       005bdc30     part_io_f:meteo1.obj
 0003:00020c38       _2il0floatpacket.605       005bdc38     part_io_f:meteo1.obj
 0003:00020c40       _2il0floatpacket.606       005bdc40     part_io_f:meteo1.obj
 0003:00020c48       _2il0floatpacket.607       005bdc48     part_io_f:meteo1.obj
 0003:00020c50       _2il0floatpacket.608       005bdc50     part_io_f:meteo1.obj
 0003:00020c58       _2il0floatpacket.609       005bdc58     part_io_f:meteo1.obj
 0003:00020c60       _2il0floatpacket.610       005bdc60     part_io_f:meteo1.obj
 0003:00020c68       _2il0floatpacket.611       005bdc68     part_io_f:meteo1.obj
 0003:00020c70       _2il0floatpacket.612       005bdc70     part_io_f:meteo1.obj
 0003:00020c78       _2il0floatpacket.613       005bdc78     part_io_f:meteo1.obj
 0003:00020c80       _2il0floatpacket.614       005bdc80     part_io_f:meteo1.obj
 0003:00020c88       _2il0floatpacket.615       005bdc88     part_io_f:meteo1.obj
 0003:00020c90       _2il0floatpacket.616       005bdc90     part_io_f:meteo1.obj
 0003:00020c98       _2il0floatpacket.617       005bdc98     part_io_f:meteo1.obj
 0003:00020ca0       _2il0floatpacket.618       005bdca0     part_io_f:meteo1.obj
 0003:00020ca8       _2il0floatpacket.619       005bdca8     part_io_f:meteo1.obj
 0003:00020cb0       _2il0floatpacket.620       005bdcb0     part_io_f:meteo1.obj
 0003:00020cb8       _2il0floatpacket.621       005bdcb8     part_io_f:meteo1.obj
 0003:00020cc0       _2il0floatpacket.622       005bdcc0     part_io_f:meteo1.obj
 0003:00020cc8       _2il0floatpacket.623       005bdcc8     part_io_f:meteo1.obj
 0003:00020cd0       _2il0floatpacket.624       005bdcd0     part_io_f:meteo1.obj
 0003:00020cd8       _2il0floatpacket.625       005bdcd8     part_io_f:meteo1.obj
 0003:00020ce0       _2il0floatpacket.626       005bdce0     part_io_f:meteo1.obj
 0003:00020ce8       _2il0floatpacket.627       005bdce8     part_io_f:meteo1.obj
 0003:00020cf0       _2il0floatpacket.628       005bdcf0     part_io_f:meteo1.obj
 0003:00020cf8       _2il0floatpacket.629       005bdcf8     part_io_f:meteo1.obj
 0003:00020d00       _2il0floatpacket.630       005bdd00     part_io_f:meteo1.obj
 0003:00020d08       _2il0floatpacket.631       005bdd08     part_io_f:meteo1.obj
 0003:00020d10       _2il0floatpacket.632       005bdd10     part_io_f:meteo1.obj
 0003:00020d18       _2il0floatpacket.633       005bdd18     part_io_f:meteo1.obj
 0003:00020d20       _2il0floatpacket.634       005bdd20     part_io_f:meteo1.obj
 0003:00020d28       _2il0floatpacket.635       005bdd28     part_io_f:meteo1.obj
 0003:00020d30       _2il0floatpacket.636       005bdd30     part_io_f:meteo1.obj
 0003:00020d38       _2il0floatpacket.637       005bdd38     part_io_f:meteo1.obj
 0003:00020d40       _2il0floatpacket.638       005bdd40     part_io_f:meteo1.obj
 0003:00020d48       _2il0floatpacket.639       005bdd48     part_io_f:meteo1.obj
 0003:00020d50       _2il0floatpacket.640       005bdd50     part_io_f:meteo1.obj
 0003:00020d58       _2il0floatpacket.641       005bdd58     part_io_f:meteo1.obj
 0003:00020d60       _2il0floatpacket.642       005bdd60     part_io_f:meteo1.obj
 0003:00020d68       _2il0floatpacket.643       005bdd68     part_io_f:meteo1.obj
 0003:00020d70       _2il0floatpacket.644       005bdd70     part_io_f:meteo1.obj
 0003:00020d78       _2il0floatpacket.645       005bdd78     part_io_f:meteo1.obj
 0003:00020d80       _2il0floatpacket.646       005bdd80     part_io_f:meteo1.obj
 0003:00020d88       _2il0floatpacket.647       005bdd88     part_io_f:meteo1.obj
 0003:00020d90       _2il0floatpacket.648       005bdd90     part_io_f:meteo1.obj
 0003:00020d98       _2il0floatpacket.649       005bdd98     part_io_f:meteo1.obj
 0003:00020da0       _2il0floatpacket.650       005bdda0     part_io_f:meteo1.obj
 0003:00020da8       _2il0floatpacket.651       005bdda8     part_io_f:meteo1.obj
 0003:00020db0       _2il0floatpacket.652       005bddb0     part_io_f:meteo1.obj
 0003:00020db8       _2il0floatpacket.653       005bddb8     part_io_f:meteo1.obj
 0003:00020dc0       _2il0floatpacket.654       005bddc0     part_io_f:meteo1.obj
 0003:00020dc8       _2il0floatpacket.655       005bddc8     part_io_f:meteo1.obj
 0003:00020dd0       _2il0floatpacket.656       005bddd0     part_io_f:meteo1.obj
 0003:00020dd8       _2il0floatpacket.657       005bddd8     part_io_f:meteo1.obj
 0003:00020de0       _2il0floatpacket.658       005bdde0     part_io_f:meteo1.obj
 0003:00020de8       _2il0floatpacket.659       005bdde8     part_io_f:meteo1.obj
 0003:00020df0       _2il0floatpacket.660       005bddf0     part_io_f:meteo1.obj
 0003:00020df8       _2il0floatpacket.661       005bddf8     part_io_f:meteo1.obj
 0003:00020e00       _2il0floatpacket.662       005bde00     part_io_f:meteo1.obj
 0003:00020e08       _2il0floatpacket.663       005bde08     part_io_f:meteo1.obj
 0003:00020e10       _2il0floatpacket.664       005bde10     part_io_f:meteo1.obj
 0003:00020e18       _2il0floatpacket.665       005bde18     part_io_f:meteo1.obj
 0003:00020e20       _2il0floatpacket.666       005bde20     part_io_f:meteo1.obj
 0003:00020e28       _2il0floatpacket.667       005bde28     part_io_f:meteo1.obj
 0003:00020e30       _2il0floatpacket.668       005bde30     part_io_f:meteo1.obj
 0003:00020e38       _2il0floatpacket.669       005bde38     part_io_f:meteo1.obj
 0003:00020e40       _2il0floatpacket.670       005bde40     part_io_f:meteo1.obj
 0003:00020e48       _2il0floatpacket.671       005bde48     part_io_f:meteo1.obj
 0003:00020e50       _2il0floatpacket.672       005bde50     part_io_f:meteo1.obj
 0003:00020e58       _2il0floatpacket.673       005bde58     part_io_f:meteo1.obj
 0003:00020e60       _2il0floatpacket.674       005bde60     part_io_f:meteo1.obj
 0003:00020e68       _2il0floatpacket.675       005bde68     part_io_f:meteo1.obj
 0003:00020e70       _2il0floatpacket.676       005bde70     part_io_f:meteo1.obj
 0003:00020e78       _2il0floatpacket.677       005bde78     part_io_f:meteo1.obj
 0003:00020e80       _2il0floatpacket.678       005bde80     part_io_f:meteo1.obj
 0003:00020e88       _2il0floatpacket.679       005bde88     part_io_f:meteo1.obj
 0003:00020e90       _2il0floatpacket.680       005bde90     part_io_f:meteo1.obj
 0003:00020e98       _2il0floatpacket.681       005bde98     part_io_f:meteo1.obj
 0003:00020ea0       _2il0floatpacket.682       005bdea0     part_io_f:meteo1.obj
 0003:00020ea8       _2il0floatpacket.683       005bdea8     part_io_f:meteo1.obj
 0003:00020eb0       _2il0floatpacket.684       005bdeb0     part_io_f:meteo1.obj
 0003:00020eb8       _2il0floatpacket.685       005bdeb8     part_io_f:meteo1.obj
 0003:00020ec0       _2il0floatpacket.686       005bdec0     part_io_f:meteo1.obj
 0003:00020ec8       _2il0floatpacket.687       005bdec8     part_io_f:meteo1.obj
 0003:00020ed0       _2il0floatpacket.688       005bded0     part_io_f:meteo1.obj
 0003:00020ed8       _2il0floatpacket.689       005bded8     part_io_f:meteo1.obj
 0003:00020ee0       _2il0floatpacket.690       005bdee0     part_io_f:meteo1.obj
 0003:00020ee8       _2il0floatpacket.691       005bdee8     part_io_f:meteo1.obj
 0003:00020ef0       _2il0floatpacket.692       005bdef0     part_io_f:meteo1.obj
 0003:00020ef8       _2il0floatpacket.693       005bdef8     part_io_f:meteo1.obj
 0003:00020f00       _2il0floatpacket.694       005bdf00     part_io_f:meteo1.obj
 0003:00020f08       _2il0floatpacket.695       005bdf08     part_io_f:meteo1.obj
 0003:00020f10       _2il0floatpacket.696       005bdf10     part_io_f:meteo1.obj
 0003:00020f18       _2il0floatpacket.697       005bdf18     part_io_f:meteo1.obj
 0003:00020f20       _2il0floatpacket.698       005bdf20     part_io_f:meteo1.obj
 0003:00020f28       _2il0floatpacket.699       005bdf28     part_io_f:meteo1.obj
 0003:00020f30       _2il0floatpacket.700       005bdf30     part_io_f:meteo1.obj
 0003:00020f38       _2il0floatpacket.701       005bdf38     part_io_f:meteo1.obj
 0003:00020f40       _2il0floatpacket.702       005bdf40     part_io_f:meteo1.obj
 0003:00020f48       _2il0floatpacket.703       005bdf48     part_io_f:meteo1.obj
 0003:00020f50       _2il0floatpacket.704       005bdf50     part_io_f:meteo1.obj
 0003:00020f58       _2il0floatpacket.705       005bdf58     part_io_f:meteo1.obj
 0003:00020f60       _2il0floatpacket.706       005bdf60     part_io_f:meteo1.obj
 0003:00020f68       _2il0floatpacket.707       005bdf68     part_io_f:meteo1.obj
 0003:00020f70       _2il0floatpacket.708       005bdf70     part_io_f:meteo1.obj
 0003:00020f78       _2il0floatpacket.709       005bdf78     part_io_f:meteo1.obj
 0003:00020f80       _2il0floatpacket.710       005bdf80     part_io_f:meteo1.obj
 0003:00020f88       _2il0floatpacket.711       005bdf88     part_io_f:meteo1.obj
 0003:00020f90       _2il0floatpacket.712       005bdf90     part_io_f:meteo1.obj
 0003:00020f98       _2il0floatpacket.713       005bdf98     part_io_f:meteo1.obj
 0003:00020fa0       _2il0floatpacket.714       005bdfa0     part_io_f:meteo1.obj
 0003:00020fa8       _2il0floatpacket.715       005bdfa8     part_io_f:meteo1.obj
 0003:00020fb0       _2il0floatpacket.716       005bdfb0     part_io_f:meteo1.obj
 0003:00020fb8       _2il0floatpacket.717       005bdfb8     part_io_f:meteo1.obj
 0003:00020fc0       _2il0floatpacket.718       005bdfc0     part_io_f:meteo1.obj
 0003:00020fc8       _2il0floatpacket.719       005bdfc8     part_io_f:meteo1.obj
 0003:00020fd0       _2il0floatpacket.720       005bdfd0     part_io_f:meteo1.obj
 0003:00020fd8       _2il0floatpacket.721       005bdfd8     part_io_f:meteo1.obj
 0003:00020fe0       _2il0floatpacket.722       005bdfe0     part_io_f:meteo1.obj
 0003:00020fe8       _2il0floatpacket.723       005bdfe8     part_io_f:meteo1.obj
 0003:00020ff0       _2il0floatpacket.724       005bdff0     part_io_f:meteo1.obj
 0003:00020ff8       _2il0floatpacket.725       005bdff8     part_io_f:meteo1.obj
 0003:00021000       _2il0floatpacket.726       005be000     part_io_f:meteo1.obj
 0003:00021008       _2il0floatpacket.727       005be008     part_io_f:meteo1.obj
 0003:00021010       _2il0floatpacket.728       005be010     part_io_f:meteo1.obj
 0003:00021018       _2il0floatpacket.729       005be018     part_io_f:meteo1.obj
 0003:00021020       _2il0floatpacket.730       005be020     part_io_f:meteo1.obj
 0003:00021028       _2il0floatpacket.731       005be028     part_io_f:meteo1.obj
 0003:00021030       _2il0floatpacket.732       005be030     part_io_f:meteo1.obj
 0003:00021038       _2il0floatpacket.733       005be038     part_io_f:meteo1.obj
 0003:00021040       _2il0floatpacket.734       005be040     part_io_f:meteo1.obj
 0003:00021048       _2il0floatpacket.735       005be048     part_io_f:meteo1.obj
 0003:00021050       _2il0floatpacket.736       005be050     part_io_f:meteo1.obj
 0003:00021058       _2il0floatpacket.737       005be058     part_io_f:meteo1.obj
 0003:00021060       _2il0floatpacket.738       005be060     part_io_f:meteo1.obj
 0003:00021068       _2il0floatpacket.739       005be068     part_io_f:meteo1.obj
 0003:00021070       _2il0floatpacket.740       005be070     part_io_f:meteo1.obj
 0003:00021078       _2il0floatpacket.741       005be078     part_io_f:meteo1.obj
 0003:00021080       _2il0floatpacket.742       005be080     part_io_f:meteo1.obj
 0003:00021088       _2il0floatpacket.743       005be088     part_io_f:meteo1.obj
 0003:00021090       _2il0floatpacket.744       005be090     part_io_f:meteo1.obj
 0003:00021098       _2il0floatpacket.745       005be098     part_io_f:meteo1.obj
 0003:000210a0       _2il0floatpacket.746       005be0a0     part_io_f:meteo1.obj
 0003:000210a8       _2il0floatpacket.747       005be0a8     part_io_f:meteo1.obj
 0003:000210b0       _2il0floatpacket.748       005be0b0     part_io_f:meteo1.obj
 0003:000210b8       _2il0floatpacket.749       005be0b8     part_io_f:meteo1.obj
 0003:000210c0       _2il0floatpacket.750       005be0c0     part_io_f:meteo1.obj
 0003:000210c8       _2il0floatpacket.751       005be0c8     part_io_f:meteo1.obj
 0003:000210d0       _2il0floatpacket.752       005be0d0     part_io_f:meteo1.obj
 0003:000210d8       _2il0floatpacket.753       005be0d8     part_io_f:meteo1.obj
 0003:000210e0       _2il0floatpacket.754       005be0e0     part_io_f:meteo1.obj
 0003:000210e8       _2il0floatpacket.755       005be0e8     part_io_f:meteo1.obj
 0003:000210f0       _2il0floatpacket.756       005be0f0     part_io_f:meteo1.obj
 0003:000210f8       _2il0floatpacket.757       005be0f8     part_io_f:meteo1.obj
 0003:00021100       _2il0floatpacket.758       005be100     part_io_f:meteo1.obj
 0003:00021108       _2il0floatpacket.759       005be108     part_io_f:meteo1.obj
 0003:00021110       _2il0floatpacket.760       005be110     part_io_f:meteo1.obj
 0003:00021118       _2il0floatpacket.761       005be118     part_io_f:meteo1.obj
 0003:00021120       _2il0floatpacket.762       005be120     part_io_f:meteo1.obj
 0003:00021128       _2il0floatpacket.763       005be128     part_io_f:meteo1.obj
 0003:00021130       _2il0floatpacket.764       005be130     part_io_f:meteo1.obj
 0003:00021138       _2il0floatpacket.765       005be138     part_io_f:meteo1.obj
 0003:00021140       _2il0floatpacket.766       005be140     part_io_f:meteo1.obj
 0003:00021148       _2il0floatpacket.767       005be148     part_io_f:meteo1.obj
 0003:00021150       _2il0floatpacket.768       005be150     part_io_f:meteo1.obj
 0003:00021158       _2il0floatpacket.769       005be158     part_io_f:meteo1.obj
 0003:00021160       _2il0floatpacket.770       005be160     part_io_f:meteo1.obj
 0003:00021168       _2il0floatpacket.771       005be168     part_io_f:meteo1.obj
 0003:00021170       _2il0floatpacket.772       005be170     part_io_f:meteo1.obj
 0003:00021178       _2il0floatpacket.773       005be178     part_io_f:meteo1.obj
 0003:00021180       _2il0floatpacket.774       005be180     part_io_f:meteo1.obj
 0003:00021188       _2il0floatpacket.775       005be188     part_io_f:meteo1.obj
 0003:00021190       _2il0floatpacket.776       005be190     part_io_f:meteo1.obj
 0003:00021198       _2il0floatpacket.777       005be198     part_io_f:meteo1.obj
 0003:000211a0       _2il0floatpacket.778       005be1a0     part_io_f:meteo1.obj
 0003:000211a8       _2il0floatpacket.779       005be1a8     part_io_f:meteo1.obj
 0003:000211b0       _2il0floatpacket.780       005be1b0     part_io_f:meteo1.obj
 0003:000211b8       _2il0floatpacket.781       005be1b8     part_io_f:meteo1.obj
 0003:000211c0       _2il0floatpacket.782       005be1c0     part_io_f:meteo1.obj
 0003:000211c8       _2il0floatpacket.783       005be1c8     part_io_f:meteo1.obj
 0003:000211d0       _2il0floatpacket.784       005be1d0     part_io_f:meteo1.obj
 0003:000211d8       _2il0floatpacket.785       005be1d8     part_io_f:meteo1.obj
 0003:000211e0       _2il0floatpacket.786       005be1e0     part_io_f:meteo1.obj
 0003:000211e8       _2il0floatpacket.787       005be1e8     part_io_f:meteo1.obj
 0003:000211f0       _2il0floatpacket.788       005be1f0     part_io_f:meteo1.obj
 0003:000211f8       _2il0floatpacket.789       005be1f8     part_io_f:meteo1.obj
 0003:00021200       _2il0floatpacket.790       005be200     part_io_f:meteo1.obj
 0003:00021208       _2il0floatpacket.791       005be208     part_io_f:meteo1.obj
 0003:00021210       _2il0floatpacket.792       005be210     part_io_f:meteo1.obj
 0003:00021218       _2il0floatpacket.793       005be218     part_io_f:meteo1.obj
 0003:00021220       _2il0floatpacket.794       005be220     part_io_f:meteo1.obj
 0003:00021228       _2il0floatpacket.795       005be228     part_io_f:meteo1.obj
 0003:00021230       _2il0floatpacket.796       005be230     part_io_f:meteo1.obj
 0003:00021238       _2il0floatpacket.797       005be238     part_io_f:meteo1.obj
 0003:00021240       _2il0floatpacket.798       005be240     part_io_f:meteo1.obj
 0003:00021248       _2il0floatpacket.799       005be248     part_io_f:meteo1.obj
 0003:00021250       _2il0floatpacket.800       005be250     part_io_f:meteo1.obj
 0003:00021258       _2il0floatpacket.801       005be258     part_io_f:meteo1.obj
 0003:00021260       _2il0floatpacket.802       005be260     part_io_f:meteo1.obj
 0003:00021268       _2il0floatpacket.803       005be268     part_io_f:meteo1.obj
 0003:00021270       _2il0floatpacket.804       005be270     part_io_f:meteo1.obj
 0003:00021278       _2il0floatpacket.805       005be278     part_io_f:meteo1.obj
 0003:00021280       _2il0floatpacket.806       005be280     part_io_f:meteo1.obj
 0003:00021288       _2il0floatpacket.807       005be288     part_io_f:meteo1.obj
 0003:00021290       _2il0floatpacket.808       005be290     part_io_f:meteo1.obj
 0003:00021298       _2il0floatpacket.809       005be298     part_io_f:meteo1.obj
 0003:000212a0       _2il0floatpacket.810       005be2a0     part_io_f:meteo1.obj
 0003:000212a8       _2il0floatpacket.811       005be2a8     part_io_f:meteo1.obj
 0003:000212b0       _2il0floatpacket.812       005be2b0     part_io_f:meteo1.obj
 0003:000212b8       _2il0floatpacket.813       005be2b8     part_io_f:meteo1.obj
 0003:000212c0       _2il0floatpacket.814       005be2c0     part_io_f:meteo1.obj
 0003:000212c8       _2il0floatpacket.815       005be2c8     part_io_f:meteo1.obj
 0003:000212d0       _2il0floatpacket.816       005be2d0     part_io_f:meteo1.obj
 0003:000212d8       _2il0floatpacket.817       005be2d8     part_io_f:meteo1.obj
 0003:000212e0       _2il0floatpacket.818       005be2e0     part_io_f:meteo1.obj
 0003:000212e8       _2il0floatpacket.819       005be2e8     part_io_f:meteo1.obj
 0003:000212f0       _2il0floatpacket.820       005be2f0     part_io_f:meteo1.obj
 0003:000212f8       _2il0floatpacket.821       005be2f8     part_io_f:meteo1.obj
 0003:00021300       _2il0floatpacket.822       005be300     part_io_f:meteo1.obj
 0003:00021308       _2il0floatpacket.823       005be308     part_io_f:meteo1.obj
 0003:00021310       _2il0floatpacket.824       005be310     part_io_f:meteo1.obj
 0003:00021318       _2il0floatpacket.825       005be318     part_io_f:meteo1.obj
 0003:00021320       _2il0floatpacket.826       005be320     part_io_f:meteo1.obj
 0003:00021328       _2il0floatpacket.827       005be328     part_io_f:meteo1.obj
 0003:00021330       _2il0floatpacket.828       005be330     part_io_f:meteo1.obj
 0003:00021338       _2il0floatpacket.829       005be338     part_io_f:meteo1.obj
 0003:00021340       _2il0floatpacket.830       005be340     part_io_f:meteo1.obj
 0003:00021348       _2il0floatpacket.831       005be348     part_io_f:meteo1.obj
 0003:00021350       _2il0floatpacket.832       005be350     part_io_f:meteo1.obj
 0003:00021358       _2il0floatpacket.833       005be358     part_io_f:meteo1.obj
 0003:00021360       _2il0floatpacket.834       005be360     part_io_f:meteo1.obj
 0003:00021368       _2il0floatpacket.835       005be368     part_io_f:meteo1.obj
 0003:00021370       _2il0floatpacket.836       005be370     part_io_f:meteo1.obj
 0003:00021378       _2il0floatpacket.837       005be378     part_io_f:meteo1.obj
 0003:00021380       _2il0floatpacket.838       005be380     part_io_f:meteo1.obj
 0003:00021388       _2il0floatpacket.839       005be388     part_io_f:meteo1.obj
 0003:00021390       _2il0floatpacket.840       005be390     part_io_f:meteo1.obj
 0003:00021398       _2il0floatpacket.841       005be398     part_io_f:meteo1.obj
 0003:000213a0       _2il0floatpacket.842       005be3a0     part_io_f:meteo1.obj
 0003:000213a8       _2il0floatpacket.843       005be3a8     part_io_f:meteo1.obj
 0003:000213b0       _2il0floatpacket.844       005be3b0     part_io_f:meteo1.obj
 0003:000213b8       _2il0floatpacket.845       005be3b8     part_io_f:meteo1.obj
 0003:000213c0       _2il0floatpacket.846       005be3c0     part_io_f:meteo1.obj
 0003:000213c8       _2il0floatpacket.847       005be3c8     part_io_f:meteo1.obj
 0003:000213d0       _2il0floatpacket.848       005be3d0     part_io_f:meteo1.obj
 0003:000213d8       _2il0floatpacket.849       005be3d8     part_io_f:meteo1.obj
 0003:000213e0       _2il0floatpacket.850       005be3e0     part_io_f:meteo1.obj
 0003:000213e8       _2il0floatpacket.851       005be3e8     part_io_f:meteo1.obj
 0003:000213f0       _2il0floatpacket.852       005be3f0     part_io_f:meteo1.obj
 0003:000213f8       _2il0floatpacket.853       005be3f8     part_io_f:meteo1.obj
 0003:00021400       _2il0floatpacket.854       005be400     part_io_f:meteo1.obj
 0003:00021408       _2il0floatpacket.855       005be408     part_io_f:meteo1.obj
 0003:00021410       _2il0floatpacket.856       005be410     part_io_f:meteo1.obj
 0003:00021418       _2il0floatpacket.857       005be418     part_io_f:meteo1.obj
 0003:00021420       _2il0floatpacket.858       005be420     part_io_f:meteo1.obj
 0003:00021428       _2il0floatpacket.859       005be428     part_io_f:meteo1.obj
 0003:00021430       _2il0floatpacket.860       005be430     part_io_f:meteo1.obj
 0003:00021438       _2il0floatpacket.861       005be438     part_io_f:meteo1.obj
 0003:00021440       _2il0floatpacket.862       005be440     part_io_f:meteo1.obj
 0003:00021448       _2il0floatpacket.863       005be448     part_io_f:meteo1.obj
 0003:00021450       _2il0floatpacket.864       005be450     part_io_f:meteo1.obj
 0003:00021458       _2il0floatpacket.865       005be458     part_io_f:meteo1.obj
 0003:00021460       _2il0floatpacket.866       005be460     part_io_f:meteo1.obj
 0003:00021468       _2il0floatpacket.867       005be468     part_io_f:meteo1.obj
 0003:00021470       _2il0floatpacket.868       005be470     part_io_f:meteo1.obj
 0003:00021478       _2il0floatpacket.869       005be478     part_io_f:meteo1.obj
 0003:00021480       _2il0floatpacket.870       005be480     part_io_f:meteo1.obj
 0003:00021488       _2il0floatpacket.871       005be488     part_io_f:meteo1.obj
 0003:00021490       _2il0floatpacket.872       005be490     part_io_f:meteo1.obj
 0003:00021498       _2il0floatpacket.873       005be498     part_io_f:meteo1.obj
 0003:000214a0       _2il0floatpacket.874       005be4a0     part_io_f:meteo1.obj
 0003:000214a8       _2il0floatpacket.875       005be4a8     part_io_f:meteo1.obj
 0003:000214b0       _2il0floatpacket.876       005be4b0     part_io_f:meteo1.obj
 0003:000214b8       _2il0floatpacket.877       005be4b8     part_io_f:meteo1.obj
 0003:000214c0       _2il0floatpacket.878       005be4c0     part_io_f:meteo1.obj
 0003:000214c8       _2il0floatpacket.879       005be4c8     part_io_f:meteo1.obj
 0003:000214d0       _2il0floatpacket.880       005be4d0     part_io_f:meteo1.obj
 0003:000214d8       _2il0floatpacket.881       005be4d8     part_io_f:meteo1.obj
 0003:000214e0       _2il0floatpacket.882       005be4e0     part_io_f:meteo1.obj
 0003:000214e8       _2il0floatpacket.883       005be4e8     part_io_f:meteo1.obj
 0003:000214f0       _2il0floatpacket.884       005be4f0     part_io_f:meteo1.obj
 0003:000214f8       _2il0floatpacket.885       005be4f8     part_io_f:meteo1.obj
 0003:00021500       _2il0floatpacket.886       005be500     part_io_f:meteo1.obj
 0003:00021508       _2il0floatpacket.887       005be508     part_io_f:meteo1.obj
 0003:00021510       _2il0floatpacket.888       005be510     part_io_f:meteo1.obj
 0003:00021518       _2il0floatpacket.889       005be518     part_io_f:meteo1.obj
 0003:00021520       _2il0floatpacket.890       005be520     part_io_f:meteo1.obj
 0003:00021528       _2il0floatpacket.891       005be528     part_io_f:meteo1.obj
 0003:00021530       _2il0floatpacket.892       005be530     part_io_f:meteo1.obj
 0003:00021538       _2il0floatpacket.893       005be538     part_io_f:meteo1.obj
 0003:00021540       _2il0floatpacket.894       005be540     part_io_f:meteo1.obj
 0003:00021548       _2il0floatpacket.895       005be548     part_io_f:meteo1.obj
 0003:00021550       _2il0floatpacket.896       005be550     part_io_f:meteo1.obj
 0003:00021558       _2il0floatpacket.897       005be558     part_io_f:meteo1.obj
 0003:00021560       _2il0floatpacket.898       005be560     part_io_f:meteo1.obj
 0003:00021568       _2il0floatpacket.899       005be568     part_io_f:meteo1.obj
 0003:00021570       _2il0floatpacket.900       005be570     part_io_f:meteo1.obj
 0003:00021578       _2il0floatpacket.901       005be578     part_io_f:meteo1.obj
 0003:00021580       _2il0floatpacket.902       005be580     part_io_f:meteo1.obj
 0003:00021588       _2il0floatpacket.903       005be588     part_io_f:meteo1.obj
 0003:00021590       _2il0floatpacket.904       005be590     part_io_f:meteo1.obj
 0003:00021598       _2il0floatpacket.905       005be598     part_io_f:meteo1.obj
 0003:000215a0       _2il0floatpacket.906       005be5a0     part_io_f:meteo1.obj
 0003:000215a8       _2il0floatpacket.907       005be5a8     part_io_f:meteo1.obj
 0003:000215b0       _2il0floatpacket.908       005be5b0     part_io_f:meteo1.obj
 0003:000215b8       _2il0floatpacket.909       005be5b8     part_io_f:meteo1.obj
 0003:000215c0       _2il0floatpacket.910       005be5c0     part_io_f:meteo1.obj
 0003:000215c8       _2il0floatpacket.911       005be5c8     part_io_f:meteo1.obj
 0003:000215d0       _2il0floatpacket.912       005be5d0     part_io_f:meteo1.obj
 0003:000215d8       _2il0floatpacket.913       005be5d8     part_io_f:meteo1.obj
 0003:000215e0       _2il0floatpacket.914       005be5e0     part_io_f:meteo1.obj
 0003:000215e8       _2il0floatpacket.915       005be5e8     part_io_f:meteo1.obj
 0003:000215f0       _2il0floatpacket.916       005be5f0     part_io_f:meteo1.obj
 0003:000215f8       _2il0floatpacket.917       005be5f8     part_io_f:meteo1.obj
 0003:00021600       _2il0floatpacket.918       005be600     part_io_f:meteo1.obj
 0003:00021608       _2il0floatpacket.919       005be608     part_io_f:meteo1.obj
 0003:00021610       _2il0floatpacket.920       005be610     part_io_f:meteo1.obj
 0003:00021618       _2il0floatpacket.921       005be618     part_io_f:meteo1.obj
 0003:00021620       _2il0floatpacket.922       005be620     part_io_f:meteo1.obj
 0003:00021628       _2il0floatpacket.923       005be628     part_io_f:meteo1.obj
 0003:00021630       _2il0floatpacket.924       005be630     part_io_f:meteo1.obj
 0003:00021638       _2il0floatpacket.925       005be638     part_io_f:meteo1.obj
 0003:00021640       _2il0floatpacket.926       005be640     part_io_f:meteo1.obj
 0003:00021648       _2il0floatpacket.927       005be648     part_io_f:meteo1.obj
 0003:00021650       _2il0floatpacket.928       005be650     part_io_f:meteo1.obj
 0003:00021658       _2il0floatpacket.929       005be658     part_io_f:meteo1.obj
 0003:00021660       _2il0floatpacket.930       005be660     part_io_f:meteo1.obj
 0003:00021668       _2il0floatpacket.931       005be668     part_io_f:meteo1.obj
 0003:00021670       _2il0floatpacket.932       005be670     part_io_f:meteo1.obj
 0003:00021678       _2il0floatpacket.933       005be678     part_io_f:meteo1.obj
 0003:00021680       _2il0floatpacket.934       005be680     part_io_f:meteo1.obj
 0003:00021688       _2il0floatpacket.935       005be688     part_io_f:meteo1.obj
 0003:00021690       _2il0floatpacket.936       005be690     part_io_f:meteo1.obj
 0003:00021698       _2il0floatpacket.937       005be698     part_io_f:meteo1.obj
 0003:000216a0       _2il0floatpacket.938       005be6a0     part_io_f:meteo1.obj
 0003:000216a8       _2il0floatpacket.939       005be6a8     part_io_f:meteo1.obj
 0003:000216b0       _2il0floatpacket.940       005be6b0     part_io_f:meteo1.obj
 0003:000216b8       _2il0floatpacket.941       005be6b8     part_io_f:meteo1.obj
 0003:000216c0       _2il0floatpacket.942       005be6c0     part_io_f:meteo1.obj
 0003:000216c8       _2il0floatpacket.943       005be6c8     part_io_f:meteo1.obj
 0003:000216d0       _2il0floatpacket.944       005be6d0     part_io_f:meteo1.obj
 0003:000216d8       _2il0floatpacket.945       005be6d8     part_io_f:meteo1.obj
 0003:000216e0       _2il0floatpacket.946       005be6e0     part_io_f:meteo1.obj
 0003:000216e8       _2il0floatpacket.947       005be6e8     part_io_f:meteo1.obj
 0003:000216f0       _2il0floatpacket.948       005be6f0     part_io_f:meteo1.obj
 0003:000216f8       _2il0floatpacket.949       005be6f8     part_io_f:meteo1.obj
 0003:00021700       _2il0floatpacket.950       005be700     part_io_f:meteo1.obj
 0003:00021708       _2il0floatpacket.951       005be708     part_io_f:meteo1.obj
 0003:00021710       _2il0floatpacket.952       005be710     part_io_f:meteo1.obj
 0003:00021718       _2il0floatpacket.953       005be718     part_io_f:meteo1.obj
 0003:00021720       _2il0floatpacket.954       005be720     part_io_f:meteo1.obj
 0003:00021728       _2il0floatpacket.955       005be728     part_io_f:meteo1.obj
 0003:00021730       _2il0floatpacket.956       005be730     part_io_f:meteo1.obj
 0003:00021738       _2il0floatpacket.957       005be738     part_io_f:meteo1.obj
 0003:00021740       _2il0floatpacket.958       005be740     part_io_f:meteo1.obj
 0003:00021748       _2il0floatpacket.959       005be748     part_io_f:meteo1.obj
 0003:00021750       _2il0floatpacket.960       005be750     part_io_f:meteo1.obj
 0003:00021758       _2il0floatpacket.961       005be758     part_io_f:meteo1.obj
 0003:00021760       _2il0floatpacket.962       005be760     part_io_f:meteo1.obj
 0003:00021768       _2il0floatpacket.963       005be768     part_io_f:meteo1.obj
 0003:00021770       _2il0floatpacket.964       005be770     part_io_f:meteo1.obj
 0003:00021778       _2il0floatpacket.965       005be778     part_io_f:meteo1.obj
 0003:00021780       _2il0floatpacket.966       005be780     part_io_f:meteo1.obj
 0003:00021788       _2il0floatpacket.967       005be788     part_io_f:meteo1.obj
 0003:00021790       _2il0floatpacket.968       005be790     part_io_f:meteo1.obj
 0003:00021798       _2il0floatpacket.969       005be798     part_io_f:meteo1.obj
 0003:000217a0       _2il0floatpacket.970       005be7a0     part_io_f:meteo1.obj
 0003:000217a8       _2il0floatpacket.971       005be7a8     part_io_f:meteo1.obj
 0003:000217b0       _2il0floatpacket.972       005be7b0     part_io_f:meteo1.obj
 0003:000217b8       _2il0floatpacket.973       005be7b8     part_io_f:meteo1.obj
 0003:000217c0       _2il0floatpacket.974       005be7c0     part_io_f:meteo1.obj
 0003:000217c8       _2il0floatpacket.975       005be7c8     part_io_f:meteo1.obj
 0003:000217d0       _2il0floatpacket.976       005be7d0     part_io_f:meteo1.obj
 0003:000217d8       _2il0floatpacket.977       005be7d8     part_io_f:meteo1.obj
 0003:000217e0       _2il0floatpacket.978       005be7e0     part_io_f:meteo1.obj
 0003:000217e8       _2il0floatpacket.979       005be7e8     part_io_f:meteo1.obj
 0003:000217f0       _2il0floatpacket.980       005be7f0     part_io_f:meteo1.obj
 0003:000217f8       _2il0floatpacket.981       005be7f8     part_io_f:meteo1.obj
 0003:00021800       _2il0floatpacket.982       005be800     part_io_f:meteo1.obj
 0003:00021808       _2il0floatpacket.983       005be808     part_io_f:meteo1.obj
 0003:00021810       _2il0floatpacket.984       005be810     part_io_f:meteo1.obj
 0003:00021818       _2il0floatpacket.985       005be818     part_io_f:meteo1.obj
 0003:00021820       _2il0floatpacket.986       005be820     part_io_f:meteo1.obj
 0003:00021828       _2il0floatpacket.987       005be828     part_io_f:meteo1.obj
 0003:00021830       _2il0floatpacket.988       005be830     part_io_f:meteo1.obj
 0003:00021838       _2il0floatpacket.989       005be838     part_io_f:meteo1.obj
 0003:00021840       _2il0floatpacket.990       005be840     part_io_f:meteo1.obj
 0003:00021848       _2il0floatpacket.991       005be848     part_io_f:meteo1.obj
 0003:00021850       _2il0floatpacket.992       005be850     part_io_f:meteo1.obj
 0003:00021858       _2il0floatpacket.993       005be858     part_io_f:meteo1.obj
 0003:00021860       _2il0floatpacket.994       005be860     part_io_f:meteo1.obj
 0003:00021868       _2il0floatpacket.995       005be868     part_io_f:meteo1.obj
 0003:00021870       _2il0floatpacket.996       005be870     part_io_f:meteo1.obj
 0003:00021878       _2il0floatpacket.997       005be878     part_io_f:meteo1.obj
 0003:00021880       _2il0floatpacket.998       005be880     part_io_f:meteo1.obj
 0003:00021888       _2il0floatpacket.999       005be888     part_io_f:meteo1.obj
 0003:00021890       _2il0floatpacket.1000      005be890     part_io_f:meteo1.obj
 0003:00021898       _2il0floatpacket.1001      005be898     part_io_f:meteo1.obj
 0003:000218a0       _2il0floatpacket.1002      005be8a0     part_io_f:meteo1.obj
 0003:000218a8       _2il0floatpacket.1003      005be8a8     part_io_f:meteo1.obj
 0003:000218b0       _2il0floatpacket.1004      005be8b0     part_io_f:meteo1.obj
 0003:000218b8       _2il0floatpacket.1005      005be8b8     part_io_f:meteo1.obj
 0003:000218c0       _2il0floatpacket.1006      005be8c0     part_io_f:meteo1.obj
 0003:000218c8       _2il0floatpacket.1007      005be8c8     part_io_f:meteo1.obj
 0003:000218d0       _2il0floatpacket.1008      005be8d0     part_io_f:meteo1.obj
 0003:000218d8       _2il0floatpacket.1009      005be8d8     part_io_f:meteo1.obj
 0003:000218e0       _2il0floatpacket.1010      005be8e0     part_io_f:meteo1.obj
 0003:000218e8       _2il0floatpacket.1011      005be8e8     part_io_f:meteo1.obj
 0003:000218f0       _2il0floatpacket.1018      005be8f0     part_io_f:meteo1.obj
 0003:000218f8       _2il0floatpacket.1019      005be8f8     part_io_f:meteo1.obj
 0003:00021900       _2il0floatpacket.1020      005be900     part_io_f:meteo1.obj
 0003:00021908       _2il0floatpacket.1021      005be908     part_io_f:meteo1.obj
 0003:00021910       _2il0floatpacket.1022      005be910     part_io_f:meteo1.obj
 0003:00021918       __STRLITPACK_211.0.5       005be918     part_io_f:meteo1.obj
 0003:00021928       __STRLITPACK_197           005be928     part_io_f:meteo1.obj
 0003:0002192c       __STRLITPACK_212.0.5       005be92c     part_io_f:meteo1.obj
 0003:00021934       __STRLITPACK_194           005be934     part_io_f:meteo1.obj
 0003:00021940       __STRLITPACK_222.0.5       005be940     part_io_f:meteo1.obj
 0003:00021948       __STRLITPACK_192           005be948     part_io_f:meteo1.obj
 0003:0002196c       __STRLITPACK_223.0.5       005be96c     part_io_f:meteo1.obj
 0003:00021974       __NLITPACK_0.0.5           005be974     part_io_f:meteo1.obj
 0003:00021978       __STRLITPACK_213.0.5       005be978     part_io_f:meteo1.obj
 0003:00021980       __STRLITPACK_214.0.5       005be980     part_io_f:meteo1.obj
 0003:00021988       __STRLITPACK_215.0.5       005be988     part_io_f:meteo1.obj
 0003:00021990       __STRLITPACK_216.0.5       005be990     part_io_f:meteo1.obj
 0003:00021998       __STRLITPACK_217.0.5       005be998     part_io_f:meteo1.obj
 0003:000219a0       __STRLITPACK_218.0.5       005be9a0     part_io_f:meteo1.obj
 0003:000219a8       __STRLITPACK_219.0.5       005be9a8     part_io_f:meteo1.obj
 0003:000219b0       __STRLITPACK_220.0.5       005be9b0     part_io_f:meteo1.obj
 0003:000219b8       __STRLITPACK_221.0.5       005be9b8     part_io_f:meteo1.obj
 0003:000219c0       __STRLITPACK_224.0.6       005be9c0     part_io_f:meteo1.obj
 0003:000219c8       __STRLITPACK_225.0.6       005be9c8     part_io_f:meteo1.obj
 0003:000219d0       __STRLITPACK_226.0.6       005be9d0     part_io_f:meteo1.obj
 0003:000219d8       __STRLITPACK_227.0.6       005be9d8     part_io_f:meteo1.obj
 0003:000219e0       __STRLITPACK_191           005be9e0     part_io_f:meteo1.obj
 0003:00021a00       __STRLITPACK_228.0.6       005bea00     part_io_f:meteo1.obj
 0003:00021a08       __STRLITPACK_229.0.6       005bea08     part_io_f:meteo1.obj
 0003:00021a10       __STRLITPACK_230.0.6       005bea10     part_io_f:meteo1.obj
 0003:00021a18       __STRLITPACK_180           005bea18     part_io_f:meteo1.obj
 0003:00021a48       __STRLITPACK_231.0.6       005bea48     part_io_f:meteo1.obj
 0003:00021a50       __STRLITPACK_186           005bea50     part_io_f:meteo1.obj
 0003:00021a78       __STRLITPACK_175           005bea78     part_io_f:meteo1.obj
 0003:00021a7c       __STRLITPACK_174           005bea7c     part_io_f:meteo1.obj
 0003:00021a80       __STRLITPACK_173           005bea80     part_io_f:meteo1.obj
 0003:00021a84       __STRLITPACK_172           005bea84     part_io_f:meteo1.obj
 0003:00021a88       __STRLITPACK_171           005bea88     part_io_f:meteo1.obj
 0003:00021a90       __STRLITPACK_234.0.8       005bea90     part_io_f:meteo1.obj
 0003:00021a98       __STRLITPACK_235.0.8       005bea98     part_io_f:meteo1.obj
 0003:00021aa0       __STRLITPACK_236.0.8       005beaa0     part_io_f:meteo1.obj
 0003:00021aa8       __STRLITPACK_237.0.8       005beaa8     part_io_f:meteo1.obj
 0003:00021ab0       __STRLITPACK_170           005beab0     part_io_f:meteo1.obj
 0003:00021ad0       __STRLITPACK_238.0.8       005bead0     part_io_f:meteo1.obj
 0003:00021ad8       __STRLITPACK_239.0.8       005bead8     part_io_f:meteo1.obj
 0003:00021ae0       __STRLITPACK_240.0.8       005beae0     part_io_f:meteo1.obj
 0003:00021ae8       __STRLITPACK_159           005beae8     part_io_f:meteo1.obj
 0003:00021b20       __STRLITPACK_241.0.8       005beb20     part_io_f:meteo1.obj
 0003:00021b28       __STRLITPACK_165           005beb28     part_io_f:meteo1.obj
 0003:00021b58       __STRLITPACK_176           005beb58     part_io_f:meteo1.obj
 0003:00021b80       __STRLITPACK_242.0.9       005beb80     part_io_f:meteo1.obj
 0003:00021b88       __STRLITPACK_155           005beb88     part_io_f:meteo1.obj
 0003:00021b8c       __STRLITPACK_243.0.9       005beb8c     part_io_f:meteo1.obj
 0003:00021b94       __STRLITPACK_244.0.9       005beb94     part_io_f:meteo1.obj
 0003:00021b9c       __STRLITPACK_245.0.9       005beb9c     part_io_f:meteo1.obj
 0003:00021ba4       __STRLITPACK_150           005beba4     part_io_f:meteo1.obj
 0003:00021bc0       __STRLITPACK_246.0.9       005bebc0     part_io_f:meteo1.obj
 0003:00021bc8       __STRLITPACK_154           005bebc8     part_io_f:meteo1.obj
 0003:00021bfc       __STRLITPACK_158           005bebfc     part_io_f:meteo1.obj
 0003:00021c14       __STRLITPACK_247.0.10      005bec14     part_io_f:meteo1.obj
 0003:00021c1c       __STRLITPACK_248.0.10      005bec1c     part_io_f:meteo1.obj
 0003:00021c24       __STRLITPACK_252.0.10      005bec24     part_io_f:meteo1.obj
 0003:00021c2c       __STRLITPACK_142           005bec2c     part_io_f:meteo1.obj
 0003:00021c60       __STRLITPACK_253.0.10      005bec60     part_io_f:meteo1.obj
 0003:00021c68       __STRLITPACK_149           005bec68     part_io_f:meteo1.obj
 0003:00021c7c       __STRLITPACK_249.0.10      005bec7c     part_io_f:meteo1.obj
 0003:00021c84       __STRLITPACK_250.0.10      005bec84     part_io_f:meteo1.obj
 0003:00021c8c       __STRLITPACK_251.0.10      005bec8c     part_io_f:meteo1.obj
 0003:00021c94       __STRLITPACK_139           005bec94     part_io_f:meteo1.obj
 0003:00021cc0       __STRLITPACK_146           005becc0     part_io_f:meteo1.obj
 0003:00021cf4       __STRLITPACK_140           005becf4     part_io_f:meteo1.obj
 0003:00021d10       __STRLITPACK_141           005bed10     part_io_f:meteo1.obj
 0003:00021d2c       __STRLITPACK_254.0.11      005bed2c     part_io_f:meteo1.obj
 0003:00021d34       __STRLITPACK_255.0.11      005bed34     part_io_f:meteo1.obj
 0003:00021d3c       __STRLITPACK_263.0.11      005bed3c     part_io_f:meteo1.obj
 0003:00021d44       __STRLITPACK_129           005bed44     part_io_f:meteo1.obj
 0003:00021d74       __STRLITPACK_264.0.11      005bed74     part_io_f:meteo1.obj
 0003:00021d7c       __STRLITPACK_138           005bed7c     part_io_f:meteo1.obj
 0003:00021d94       __STRLITPACK_256.0.11      005bed94     part_io_f:meteo1.obj
 0003:00021d9c       __STRLITPACK_257.0.11      005bed9c     part_io_f:meteo1.obj
 0003:00021da4       __STRLITPACK_258.0.11      005beda4     part_io_f:meteo1.obj
 0003:00021dac       __STRLITPACK_259.0.11      005bedac     part_io_f:meteo1.obj
 0003:00021db4       __STRLITPACK_265.0.11      005bedb4     part_io_f:meteo1.obj
 0003:00021dbc       __STRLITPACK_125           005bedbc     part_io_f:meteo1.obj
 0003:00021dec       __STRLITPACK_266.0.11      005bedec     part_io_f:meteo1.obj
 0003:00021df4       __STRLITPACK_260.0.11      005bedf4     part_io_f:meteo1.obj
 0003:00021dfc       __STRLITPACK_261.0.11      005bedfc     part_io_f:meteo1.obj
 0003:00021e04       __STRLITPACK_262.0.11      005bee04     part_io_f:meteo1.obj
 0003:00021e0c       __STRLITPACK_122           005bee0c     part_io_f:meteo1.obj
 0003:00021e38       __STRLITPACK_133           005bee38     part_io_f:meteo1.obj
 0003:00021e68       __STRLITPACK_123           005bee68     part_io_f:meteo1.obj
 0003:00021e8c       __STRLITPACK_124           005bee8c     part_io_f:meteo1.obj
 0003:00021eb0       __STRLITPACK_344.0.14      005beeb0     part_io_f:meteo1.obj
 0003:00021eb8       __STRLITPACK_46            005beeb8     part_io_f:meteo1.obj
 0003:00021ec0       __STRLITPACK_347.0.14      005beec0     part_io_f:meteo1.obj
 0003:00021ec8       __STRLITPACK_350.0.14      005beec8     part_io_f:meteo1.obj
 0003:00021ed0       __STRLITPACK_36            005beed0     part_io_f:meteo1.obj
 0003:00021f10       __STRLITPACK_351.0.14      005bef10     part_io_f:meteo1.obj
 0003:00021f18       __STRLITPACK_345.0.14      005bef18     part_io_f:meteo1.obj
 0003:00021f20       __STRLITPACK_346.0.14      005bef20     part_io_f:meteo1.obj
 0003:00021f28       __STRLITPACK_348.0.14      005bef28     part_io_f:meteo1.obj
 0003:00021f30       __STRLITPACK_40            005bef30     part_io_f:meteo1.obj
 0003:00021f70       __STRLITPACK_349.0.14      005bef70     part_io_f:meteo1.obj
 0003:00021f78       __STRLITPACK_35            005bef78     part_io_f:meteo1.obj
 0003:00021f7c       __STRLITPACK_32            005bef7c     part_io_f:meteo1.obj
 0003:00021f80       __STRLITPACK_31            005bef80     part_io_f:meteo1.obj
 0003:00021f84       __STRLITPACK_30            005bef84     part_io_f:meteo1.obj
 0003:00021f90       __STRLITPACK_29            005bef90     part_io_f:meteo1.obj
 0003:00021f94       __STRLITPACK_26            005bef94     part_io_f:meteo1.obj
 0003:00021fa0       __STRLITPACK_25            005befa0     part_io_f:meteo1.obj
 0003:00021fa4       __STRLITPACK_24            005befa4     part_io_f:meteo1.obj
 0003:00021fac       __STRLITPACK_22            005befac     part_io_f:meteo1.obj
 0003:00021fb4       __STRLITPACK_21            005befb4     part_io_f:meteo1.obj
 0003:00021fb8       __STRLITPACK_20            005befb8     part_io_f:meteo1.obj
 0003:00021fc0       __STRLITPACK_18            005befc0     part_io_f:meteo1.obj
 0003:00021fcc       __STRLITPACK_17            005befcc     part_io_f:meteo1.obj
 0003:00021fd0       __STRLITPACK_16            005befd0     part_io_f:meteo1.obj
 0003:00021fd8       __STRLITPACK_14            005befd8     part_io_f:meteo1.obj
 0003:00021fe0       __STRLITPACK_13            005befe0     part_io_f:meteo1.obj
 0003:00021fe4       __STRLITPACK_12            005befe4     part_io_f:meteo1.obj
 0003:00021fec       __STRLITPACK_11            005befec     part_io_f:meteo1.obj
 0003:00021ff4       __STRLITPACK_23            005beff4     part_io_f:meteo1.obj
 0003:00021ffc       __STRLITPACK_19            005beffc     part_io_f:meteo1.obj
 0003:00022004       __STRLITPACK_15            005bf004     part_io_f:meteo1.obj
 0003:0002200c       __STRLITPACK_1             005bf00c     part_io_f:meteo1.obj
 0003:00022010       __STRLITPACK_1407          005bf010     part_io_f:meteo1.obj
 0003:0002201c       __STRLITPACK_1406          005bf01c     part_io_f:meteo1.obj
 0003:00022020       __STRLITPACK_1427.0.27     005bf020     part_io_f:meteo1.obj
 0003:00022028       __STRLITPACK_1405          005bf028     part_io_f:meteo1.obj
 0003:00022034       __STRLITPACK_1404          005bf034     part_io_f:meteo1.obj
 0003:00022038       __STRLITPACK_1428.0.27     005bf038     part_io_f:meteo1.obj
 0003:00022040       __STRLITPACK_1371          005bf040     part_io_f:meteo1.obj
 0003:00022044       __STRLITPACK_1366          005bf044     part_io_f:meteo1.obj
 0003:00022060       __STRLITPACK_1365          005bf060     part_io_f:meteo1.obj
 0003:0002207c       __STRLITPACK_1469.0.39     005bf07c     part_io_f:meteo1.obj
 0003:00022084       __STRLITPACK_1470.0.39     005bf084     part_io_f:meteo1.obj
 0003:0002208c       __NLITPACK_2.0.39          005bf08c     part_io_f:meteo1.obj
 0003:00022090       __NLITPACK_1.0.39          005bf090     part_io_f:meteo1.obj
 0003:00022094       __STRLITPACK_1471.0.44     005bf094     part_io_f:meteo1.obj
 0003:0002209c       __STRLITPACK_871           005bf09c     part_io_f:meteo1.obj
 0003:000220b4       __STRLITPACK_1472.0.44     005bf0b4     part_io_f:meteo1.obj
 0003:000220bc       __STRLITPACK_1473.0.44     005bf0bc     part_io_f:meteo1.obj
 0003:000220c4       __STRLITPACK_870           005bf0c4     part_io_f:meteo1.obj
 0003:000220e4       _2il0floatpacket.150       005bf0e4     part_io_f:meteo1.obj
 0003:000220e8       __STRLITPACK_865           005bf0e8     part_io_f:meteo1.obj
 0003:000220ec       __STRLITPACK_842           005bf0ec     part_io_f:meteo1.obj
 0003:00022110       __STRLITPACK_841           005bf110     part_io_f:meteo1.obj
 0003:00022134       __STRLITPACK_840           005bf134     part_io_f:meteo1.obj
 0003:00022158       __STRLITPACK_839           005bf158     part_io_f:meteo1.obj
 0003:0002217c       __STRLITPACK_838           005bf17c     part_io_f:meteo1.obj
 0003:000221a0       __STRLITPACK_837           005bf1a0     part_io_f:meteo1.obj
 0003:000221c4       __STRLITPACK_836           005bf1c4     part_io_f:meteo1.obj
 0003:000221e8       __STRLITPACK_835           005bf1e8     part_io_f:meteo1.obj
 0003:0002220c       __STRLITPACK_834           005bf20c     part_io_f:meteo1.obj
 0003:00022230       __STRLITPACK_833           005bf230     part_io_f:meteo1.obj
 0003:00022254       __STRLITPACK_832           005bf254     part_io_f:meteo1.obj
 0003:00022278       __STRLITPACK_831           005bf278     part_io_f:meteo1.obj
 0003:0002229c       __STRLITPACK_830           005bf29c     part_io_f:meteo1.obj
 0003:000222c0       __STRLITPACK_829           005bf2c0     part_io_f:meteo1.obj
 0003:000222e4       __STRLITPACK_828           005bf2e4     part_io_f:meteo1.obj
 0003:00022308       __STRLITPACK_827           005bf308     part_io_f:meteo1.obj
 0003:0002232c       __STRLITPACK_826           005bf32c     part_io_f:meteo1.obj
 0003:00022350       __STRLITPACK_825           005bf350     part_io_f:meteo1.obj
 0003:00022374       __STRLITPACK_824           005bf374     part_io_f:meteo1.obj
 0003:00022398       __STRLITPACK_823           005bf398     part_io_f:meteo1.obj
 0003:000223bc       __STRLITPACK_822           005bf3bc     part_io_f:meteo1.obj
 0003:000223e0       __STRLITPACK_821           005bf3e0     part_io_f:meteo1.obj
 0003:00022404       __STRLITPACK_820           005bf404     part_io_f:meteo1.obj
 0003:00022428       __STRLITPACK_819           005bf428     part_io_f:meteo1.obj
 0003:0002244c       __STRLITPACK_818           005bf44c     part_io_f:meteo1.obj
 0003:00022470       __STRLITPACK_817           005bf470     part_io_f:meteo1.obj
 0003:00022494       __STRLITPACK_816           005bf494     part_io_f:meteo1.obj
 0003:000224b8       __STRLITPACK_815           005bf4b8     part_io_f:meteo1.obj
 0003:000224dc       __STRLITPACK_814           005bf4dc     part_io_f:meteo1.obj
 0003:00022500       __STRLITPACK_813           005bf500     part_io_f:meteo1.obj
 0003:00022524       __STRLITPACK_812           005bf524     part_io_f:meteo1.obj
 0003:00022548       __STRLITPACK_811           005bf548     part_io_f:meteo1.obj
 0003:0002256c       __STRLITPACK_810           005bf56c     part_io_f:meteo1.obj
 0003:00022590       __STRLITPACK_809           005bf590     part_io_f:meteo1.obj
 0003:000225b4       __STRLITPACK_808           005bf5b4     part_io_f:meteo1.obj
 0003:000225d8       __STRLITPACK_807           005bf5d8     part_io_f:meteo1.obj
 0003:000225fc       __STRLITPACK_806           005bf5fc     part_io_f:meteo1.obj
 0003:00022620       __STRLITPACK_805           005bf620     part_io_f:meteo1.obj
 0003:00022644       __STRLITPACK_804           005bf644     part_io_f:meteo1.obj
 0003:00022668       __STRLITPACK_803           005bf668     part_io_f:meteo1.obj
 0003:0002268c       __STRLITPACK_802           005bf68c     part_io_f:meteo1.obj
 0003:000226b0       __STRLITPACK_801           005bf6b0     part_io_f:meteo1.obj
 0003:000226d4       __STRLITPACK_800           005bf6d4     part_io_f:meteo1.obj
 0003:000226f8       __STRLITPACK_799           005bf6f8     part_io_f:meteo1.obj
 0003:0002271c       __STRLITPACK_798           005bf71c     part_io_f:meteo1.obj
 0003:00022740       __STRLITPACK_797           005bf740     part_io_f:meteo1.obj
 0003:00022764       __STRLITPACK_796           005bf764     part_io_f:meteo1.obj
 0003:00022788       __STRLITPACK_795           005bf788     part_io_f:meteo1.obj
 0003:000227ac       __STRLITPACK_794           005bf7ac     part_io_f:meteo1.obj
 0003:000227d0       __STRLITPACK_793           005bf7d0     part_io_f:meteo1.obj
 0003:000227f4       __STRLITPACK_792           005bf7f4     part_io_f:meteo1.obj
 0003:00022818       __STRLITPACK_791           005bf818     part_io_f:meteo1.obj
 0003:0002283c       __STRLITPACK_790           005bf83c     part_io_f:meteo1.obj
 0003:00022860       __STRLITPACK_789           005bf860     part_io_f:meteo1.obj
 0003:00022884       __STRLITPACK_788           005bf884     part_io_f:meteo1.obj
 0003:000228a8       __STRLITPACK_787           005bf8a8     part_io_f:meteo1.obj
 0003:000228cc       __STRLITPACK_786           005bf8cc     part_io_f:meteo1.obj
 0003:000228f0       __STRLITPACK_785           005bf8f0     part_io_f:meteo1.obj
 0003:00022914       __STRLITPACK_784           005bf914     part_io_f:meteo1.obj
 0003:00022938       __STRLITPACK_783           005bf938     part_io_f:meteo1.obj
 0003:0002295c       __STRLITPACK_782           005bf95c     part_io_f:meteo1.obj
 0003:00022980       __STRLITPACK_781           005bf980     part_io_f:meteo1.obj
 0003:000229a4       __STRLITPACK_780           005bf9a4     part_io_f:meteo1.obj
 0003:000229c8       __STRLITPACK_779           005bf9c8     part_io_f:meteo1.obj
 0003:000229ec       __STRLITPACK_778           005bf9ec     part_io_f:meteo1.obj
 0003:00022a10       __STRLITPACK_777           005bfa10     part_io_f:meteo1.obj
 0003:00022a34       __STRLITPACK_776           005bfa34     part_io_f:meteo1.obj
 0003:00022a58       __STRLITPACK_775           005bfa58     part_io_f:meteo1.obj
 0003:00022a7c       __STRLITPACK_774           005bfa7c     part_io_f:meteo1.obj
 0003:00022aa0       __STRLITPACK_773           005bfaa0     part_io_f:meteo1.obj
 0003:00022ac4       __STRLITPACK_772           005bfac4     part_io_f:meteo1.obj
 0003:00022ae8       __STRLITPACK_771           005bfae8     part_io_f:meteo1.obj
 0003:00022b0c       __STRLITPACK_770           005bfb0c     part_io_f:meteo1.obj
 0003:00022b30       __STRLITPACK_769           005bfb30     part_io_f:meteo1.obj
 0003:00022b54       __STRLITPACK_768           005bfb54     part_io_f:meteo1.obj
 0003:00022b78       __STRLITPACK_767           005bfb78     part_io_f:meteo1.obj
 0003:00022b9c       __STRLITPACK_766           005bfb9c     part_io_f:meteo1.obj
 0003:00022bc0       __STRLITPACK_765           005bfbc0     part_io_f:meteo1.obj
 0003:00022be4       __STRLITPACK_764           005bfbe4     part_io_f:meteo1.obj
 0003:00022c08       __STRLITPACK_763           005bfc08     part_io_f:meteo1.obj
 0003:00022c2c       __STRLITPACK_762           005bfc2c     part_io_f:meteo1.obj
 0003:00022c50       __STRLITPACK_761           005bfc50     part_io_f:meteo1.obj
 0003:00022c74       __STRLITPACK_760           005bfc74     part_io_f:meteo1.obj
 0003:00022c98       __STRLITPACK_759           005bfc98     part_io_f:meteo1.obj
 0003:00022cbc       __STRLITPACK_758           005bfcbc     part_io_f:meteo1.obj
 0003:00022ce0       __STRLITPACK_757           005bfce0     part_io_f:meteo1.obj
 0003:00022d04       __STRLITPACK_756           005bfd04     part_io_f:meteo1.obj
 0003:00022d28       __STRLITPACK_755           005bfd28     part_io_f:meteo1.obj
 0003:00022d4c       __STRLITPACK_754           005bfd4c     part_io_f:meteo1.obj
 0003:00022d70       __STRLITPACK_753           005bfd70     part_io_f:meteo1.obj
 0003:00022d94       __STRLITPACK_752           005bfd94     part_io_f:meteo1.obj
 0003:00022db8       __STRLITPACK_751           005bfdb8     part_io_f:meteo1.obj
 0003:00022ddc       __STRLITPACK_750           005bfddc     part_io_f:meteo1.obj
 0003:00022e00       __STRLITPACK_749           005bfe00     part_io_f:meteo1.obj
 0003:00022e24       __STRLITPACK_748           005bfe24     part_io_f:meteo1.obj
 0003:00022e48       __STRLITPACK_747           005bfe48     part_io_f:meteo1.obj
 0003:00022e6c       __STRLITPACK_746           005bfe6c     part_io_f:meteo1.obj
 0003:00022e90       __STRLITPACK_745           005bfe90     part_io_f:meteo1.obj
 0003:00022eb4       __STRLITPACK_744           005bfeb4     part_io_f:meteo1.obj
 0003:00022ed8       __STRLITPACK_743           005bfed8     part_io_f:meteo1.obj
 0003:00022efc       __STRLITPACK_742           005bfefc     part_io_f:meteo1.obj
 0003:00022f20       __STRLITPACK_741           005bff20     part_io_f:meteo1.obj
 0003:00022f44       __STRLITPACK_740           005bff44     part_io_f:meteo1.obj
 0003:00022f68       __STRLITPACK_739           005bff68     part_io_f:meteo1.obj
 0003:00022f8c       __STRLITPACK_738           005bff8c     part_io_f:meteo1.obj
 0003:00022fb0       __STRLITPACK_737           005bffb0     part_io_f:meteo1.obj
 0003:00022fd4       __STRLITPACK_736           005bffd4     part_io_f:meteo1.obj
 0003:00022ff8       __STRLITPACK_735           005bfff8     part_io_f:meteo1.obj
 0003:0002301c       __STRLITPACK_734           005c001c     part_io_f:meteo1.obj
 0003:00023040       __STRLITPACK_733           005c0040     part_io_f:meteo1.obj
 0003:00023064       __STRLITPACK_732           005c0064     part_io_f:meteo1.obj
 0003:00023088       __STRLITPACK_731           005c0088     part_io_f:meteo1.obj
 0003:000230ac       __STRLITPACK_730           005c00ac     part_io_f:meteo1.obj
 0003:000230d0       __STRLITPACK_729           005c00d0     part_io_f:meteo1.obj
 0003:000230f4       __STRLITPACK_728           005c00f4     part_io_f:meteo1.obj
 0003:00023118       __STRLITPACK_727           005c0118     part_io_f:meteo1.obj
 0003:0002313c       __STRLITPACK_726           005c013c     part_io_f:meteo1.obj
 0003:00023160       __STRLITPACK_725           005c0160     part_io_f:meteo1.obj
 0003:00023184       __STRLITPACK_724           005c0184     part_io_f:meteo1.obj
 0003:000231a8       __STRLITPACK_723           005c01a8     part_io_f:meteo1.obj
 0003:000231cc       __STRLITPACK_722           005c01cc     part_io_f:meteo1.obj
 0003:000231f0       __STRLITPACK_721           005c01f0     part_io_f:meteo1.obj
 0003:00023214       __STRLITPACK_720           005c0214     part_io_f:meteo1.obj
 0003:00023238       __STRLITPACK_719           005c0238     part_io_f:meteo1.obj
 0003:0002325c       __STRLITPACK_718           005c025c     part_io_f:meteo1.obj
 0003:00023280       __STRLITPACK_717           005c0280     part_io_f:meteo1.obj
 0003:000232a4       __STRLITPACK_716           005c02a4     part_io_f:meteo1.obj
 0003:000232c8       __STRLITPACK_715           005c02c8     part_io_f:meteo1.obj
 0003:000232ec       __STRLITPACK_714           005c02ec     part_io_f:meteo1.obj
 0003:00023310       __STRLITPACK_713           005c0310     part_io_f:meteo1.obj
 0003:00023334       __STRLITPACK_712           005c0334     part_io_f:meteo1.obj
 0003:00023358       __STRLITPACK_711           005c0358     part_io_f:meteo1.obj
 0003:0002337c       __STRLITPACK_710           005c037c     part_io_f:meteo1.obj
 0003:000233a0       __STRLITPACK_709           005c03a0     part_io_f:meteo1.obj
 0003:000233c4       __STRLITPACK_708           005c03c4     part_io_f:meteo1.obj
 0003:000233e8       __STRLITPACK_707           005c03e8     part_io_f:meteo1.obj
 0003:0002340c       __STRLITPACK_706           005c040c     part_io_f:meteo1.obj
 0003:00023430       __STRLITPACK_705           005c0430     part_io_f:meteo1.obj
 0003:00023454       __STRLITPACK_704           005c0454     part_io_f:meteo1.obj
 0003:00023478       __STRLITPACK_703           005c0478     part_io_f:meteo1.obj
 0003:0002349c       __STRLITPACK_702           005c049c     part_io_f:meteo1.obj
 0003:000234c0       __STRLITPACK_701           005c04c0     part_io_f:meteo1.obj
 0003:000234e4       __STRLITPACK_700           005c04e4     part_io_f:meteo1.obj
 0003:00023508       __STRLITPACK_699           005c0508     part_io_f:meteo1.obj
 0003:0002352c       __STRLITPACK_698           005c052c     part_io_f:meteo1.obj
 0003:00023550       __STRLITPACK_697           005c0550     part_io_f:meteo1.obj
 0003:00023574       __STRLITPACK_696           005c0574     part_io_f:meteo1.obj
 0003:00023598       __STRLITPACK_695           005c0598     part_io_f:meteo1.obj
 0003:000235bc       __STRLITPACK_694           005c05bc     part_io_f:meteo1.obj
 0003:000235e0       __STRLITPACK_693           005c05e0     part_io_f:meteo1.obj
 0003:00023604       __STRLITPACK_692           005c0604     part_io_f:meteo1.obj
 0003:00023628       __STRLITPACK_691           005c0628     part_io_f:meteo1.obj
 0003:0002364c       __STRLITPACK_690           005c064c     part_io_f:meteo1.obj
 0003:00023670       __STRLITPACK_689           005c0670     part_io_f:meteo1.obj
 0003:00023694       __STRLITPACK_688           005c0694     part_io_f:meteo1.obj
 0003:000236b8       __STRLITPACK_687           005c06b8     part_io_f:meteo1.obj
 0003:000236dc       __STRLITPACK_686           005c06dc     part_io_f:meteo1.obj
 0003:00023700       __STRLITPACK_685           005c0700     part_io_f:meteo1.obj
 0003:00023724       __STRLITPACK_684           005c0724     part_io_f:meteo1.obj
 0003:00023748       __STRLITPACK_683           005c0748     part_io_f:meteo1.obj
 0003:0002376c       __STRLITPACK_682           005c076c     part_io_f:meteo1.obj
 0003:00023790       __STRLITPACK_681           005c0790     part_io_f:meteo1.obj
 0003:000237b4       __STRLITPACK_680           005c07b4     part_io_f:meteo1.obj
 0003:000237d8       __STRLITPACK_679           005c07d8     part_io_f:meteo1.obj
 0003:000237fc       __STRLITPACK_678           005c07fc     part_io_f:meteo1.obj
 0003:00023820       __STRLITPACK_677           005c0820     part_io_f:meteo1.obj
 0003:00023844       __STRLITPACK_676           005c0844     part_io_f:meteo1.obj
 0003:00023868       __STRLITPACK_675           005c0868     part_io_f:meteo1.obj
 0003:0002388c       __STRLITPACK_674           005c088c     part_io_f:meteo1.obj
 0003:000238b0       __STRLITPACK_673           005c08b0     part_io_f:meteo1.obj
 0003:000238d4       __STRLITPACK_672           005c08d4     part_io_f:meteo1.obj
 0003:000238f8       __STRLITPACK_671           005c08f8     part_io_f:meteo1.obj
 0003:0002391c       __STRLITPACK_670           005c091c     part_io_f:meteo1.obj
 0003:00023940       __STRLITPACK_669           005c0940     part_io_f:meteo1.obj
 0003:00023964       __STRLITPACK_668           005c0964     part_io_f:meteo1.obj
 0003:00023988       __STRLITPACK_667           005c0988     part_io_f:meteo1.obj
 0003:000239ac       __STRLITPACK_666           005c09ac     part_io_f:meteo1.obj
 0003:000239d0       __STRLITPACK_665           005c09d0     part_io_f:meteo1.obj
 0003:000239f4       __STRLITPACK_664           005c09f4     part_io_f:meteo1.obj
 0003:00023a18       __STRLITPACK_663           005c0a18     part_io_f:meteo1.obj
 0003:00023a3c       __STRLITPACK_662           005c0a3c     part_io_f:meteo1.obj
 0003:00023a60       __STRLITPACK_661           005c0a60     part_io_f:meteo1.obj
 0003:00023a84       __STRLITPACK_660           005c0a84     part_io_f:meteo1.obj
 0003:00023aa8       __STRLITPACK_659           005c0aa8     part_io_f:meteo1.obj
 0003:00023acc       __STRLITPACK_658           005c0acc     part_io_f:meteo1.obj
 0003:00023af0       __STRLITPACK_657           005c0af0     part_io_f:meteo1.obj
 0003:00023b14       __STRLITPACK_656           005c0b14     part_io_f:meteo1.obj
 0003:00023b38       __STRLITPACK_655           005c0b38     part_io_f:meteo1.obj
 0003:00023b5c       __STRLITPACK_654           005c0b5c     part_io_f:meteo1.obj
 0003:00023b80       __STRLITPACK_653           005c0b80     part_io_f:meteo1.obj
 0003:00023ba4       __STRLITPACK_652           005c0ba4     part_io_f:meteo1.obj
 0003:00023bc8       __STRLITPACK_651           005c0bc8     part_io_f:meteo1.obj
 0003:00023bec       __STRLITPACK_650           005c0bec     part_io_f:meteo1.obj
 0003:00023c10       __STRLITPACK_649           005c0c10     part_io_f:meteo1.obj
 0003:00023c34       __STRLITPACK_648           005c0c34     part_io_f:meteo1.obj
 0003:00023c58       __STRLITPACK_647           005c0c58     part_io_f:meteo1.obj
 0003:00023c7c       __STRLITPACK_646           005c0c7c     part_io_f:meteo1.obj
 0003:00023ca0       __STRLITPACK_645           005c0ca0     part_io_f:meteo1.obj
 0003:00023cc4       __STRLITPACK_644           005c0cc4     part_io_f:meteo1.obj
 0003:00023ce8       __STRLITPACK_643           005c0ce8     part_io_f:meteo1.obj
 0003:00023d0c       __STRLITPACK_642           005c0d0c     part_io_f:meteo1.obj
 0003:00023d30       __STRLITPACK_641           005c0d30     part_io_f:meteo1.obj
 0003:00023d54       __STRLITPACK_640           005c0d54     part_io_f:meteo1.obj
 0003:00023d78       __STRLITPACK_639           005c0d78     part_io_f:meteo1.obj
 0003:00023d9c       __STRLITPACK_638           005c0d9c     part_io_f:meteo1.obj
 0003:00023dc0       __STRLITPACK_637           005c0dc0     part_io_f:meteo1.obj
 0003:00023de4       __STRLITPACK_636           005c0de4     part_io_f:meteo1.obj
 0003:00023e08       __STRLITPACK_635           005c0e08     part_io_f:meteo1.obj
 0003:00023e2c       __STRLITPACK_634           005c0e2c     part_io_f:meteo1.obj
 0003:00023e50       __STRLITPACK_633           005c0e50     part_io_f:meteo1.obj
 0003:00023e74       __STRLITPACK_632           005c0e74     part_io_f:meteo1.obj
 0003:00023e98       __STRLITPACK_631           005c0e98     part_io_f:meteo1.obj
 0003:00023ebc       __STRLITPACK_630           005c0ebc     part_io_f:meteo1.obj
 0003:00023ee0       __STRLITPACK_629           005c0ee0     part_io_f:meteo1.obj
 0003:00023f04       __STRLITPACK_628           005c0f04     part_io_f:meteo1.obj
 0003:00023f28       __STRLITPACK_627           005c0f28     part_io_f:meteo1.obj
 0003:00023f4c       __STRLITPACK_626           005c0f4c     part_io_f:meteo1.obj
 0003:00023f70       __STRLITPACK_625           005c0f70     part_io_f:meteo1.obj
 0003:00023f94       __STRLITPACK_624           005c0f94     part_io_f:meteo1.obj
 0003:00023fb8       __STRLITPACK_623           005c0fb8     part_io_f:meteo1.obj
 0003:00023fdc       __STRLITPACK_622           005c0fdc     part_io_f:meteo1.obj
 0003:00024000       __STRLITPACK_621           005c1000     part_io_f:meteo1.obj
 0003:00024024       __STRLITPACK_620           005c1024     part_io_f:meteo1.obj
 0003:00024048       __STRLITPACK_619           005c1048     part_io_f:meteo1.obj
 0003:0002406c       __STRLITPACK_618           005c106c     part_io_f:meteo1.obj
 0003:00024090       __STRLITPACK_617           005c1090     part_io_f:meteo1.obj
 0003:000240b4       __STRLITPACK_616           005c10b4     part_io_f:meteo1.obj
 0003:000240d8       __STRLITPACK_615           005c10d8     part_io_f:meteo1.obj
 0003:000240fc       __STRLITPACK_614           005c10fc     part_io_f:meteo1.obj
 0003:00024120       __STRLITPACK_613           005c1120     part_io_f:meteo1.obj
 0003:00024144       __STRLITPACK_612           005c1144     part_io_f:meteo1.obj
 0003:00024168       __STRLITPACK_611           005c1168     part_io_f:meteo1.obj
 0003:0002418c       __STRLITPACK_610           005c118c     part_io_f:meteo1.obj
 0003:000241b0       __STRLITPACK_609           005c11b0     part_io_f:meteo1.obj
 0003:000241d4       __STRLITPACK_608           005c11d4     part_io_f:meteo1.obj
 0003:000241f8       __STRLITPACK_607           005c11f8     part_io_f:meteo1.obj
 0003:0002421c       __STRLITPACK_606           005c121c     part_io_f:meteo1.obj
 0003:00024240       __STRLITPACK_605           005c1240     part_io_f:meteo1.obj
 0003:00024264       __STRLITPACK_604           005c1264     part_io_f:meteo1.obj
 0003:00024288       __STRLITPACK_603           005c1288     part_io_f:meteo1.obj
 0003:000242ac       __STRLITPACK_602           005c12ac     part_io_f:meteo1.obj
 0003:000242d0       __STRLITPACK_601           005c12d0     part_io_f:meteo1.obj
 0003:000242f4       __STRLITPACK_600           005c12f4     part_io_f:meteo1.obj
 0003:00024318       __STRLITPACK_599           005c1318     part_io_f:meteo1.obj
 0003:0002433c       __STRLITPACK_598           005c133c     part_io_f:meteo1.obj
 0003:00024360       __STRLITPACK_597           005c1360     part_io_f:meteo1.obj
 0003:00024384       __STRLITPACK_596           005c1384     part_io_f:meteo1.obj
 0003:000243a8       __STRLITPACK_595           005c13a8     part_io_f:meteo1.obj
 0003:000243cc       __STRLITPACK_594           005c13cc     part_io_f:meteo1.obj
 0003:000243f0       __STRLITPACK_593           005c13f0     part_io_f:meteo1.obj
 0003:00024414       __STRLITPACK_592           005c1414     part_io_f:meteo1.obj
 0003:00024438       __STRLITPACK_591           005c1438     part_io_f:meteo1.obj
 0003:0002445c       __STRLITPACK_590           005c145c     part_io_f:meteo1.obj
 0003:00024480       __STRLITPACK_589           005c1480     part_io_f:meteo1.obj
 0003:000244a4       __STRLITPACK_588           005c14a4     part_io_f:meteo1.obj
 0003:000244c8       __STRLITPACK_587           005c14c8     part_io_f:meteo1.obj
 0003:000244ec       __STRLITPACK_586           005c14ec     part_io_f:meteo1.obj
 0003:00024510       __STRLITPACK_585           005c1510     part_io_f:meteo1.obj
 0003:00024534       __STRLITPACK_584           005c1534     part_io_f:meteo1.obj
 0003:00024558       __STRLITPACK_583           005c1558     part_io_f:meteo1.obj
 0003:0002457c       __STRLITPACK_582           005c157c     part_io_f:meteo1.obj
 0003:000245a0       __STRLITPACK_581           005c15a0     part_io_f:meteo1.obj
 0003:000245c4       __STRLITPACK_580           005c15c4     part_io_f:meteo1.obj
 0003:000245e8       __STRLITPACK_579           005c15e8     part_io_f:meteo1.obj
 0003:0002460c       __STRLITPACK_578           005c160c     part_io_f:meteo1.obj
 0003:00024630       __STRLITPACK_577           005c1630     part_io_f:meteo1.obj
 0003:00024654       __STRLITPACK_576           005c1654     part_io_f:meteo1.obj
 0003:00024678       __STRLITPACK_575           005c1678     part_io_f:meteo1.obj
 0003:0002469c       __STRLITPACK_574           005c169c     part_io_f:meteo1.obj
 0003:000246c0       __STRLITPACK_573           005c16c0     part_io_f:meteo1.obj
 0003:000246e4       __STRLITPACK_572           005c16e4     part_io_f:meteo1.obj
 0003:00024708       __STRLITPACK_571           005c1708     part_io_f:meteo1.obj
 0003:0002472c       __STRLITPACK_570           005c172c     part_io_f:meteo1.obj
 0003:00024750       __STRLITPACK_569           005c1750     part_io_f:meteo1.obj
 0003:00024774       __STRLITPACK_568           005c1774     part_io_f:meteo1.obj
 0003:00024798       __STRLITPACK_567           005c1798     part_io_f:meteo1.obj
 0003:000247bc       __STRLITPACK_566           005c17bc     part_io_f:meteo1.obj
 0003:000247e0       __STRLITPACK_565           005c17e0     part_io_f:meteo1.obj
 0003:00024804       __STRLITPACK_564           005c1804     part_io_f:meteo1.obj
 0003:00024828       __STRLITPACK_563           005c1828     part_io_f:meteo1.obj
 0003:0002484c       __STRLITPACK_562           005c184c     part_io_f:meteo1.obj
 0003:00024870       __STRLITPACK_561           005c1870     part_io_f:meteo1.obj
 0003:00024894       __STRLITPACK_560           005c1894     part_io_f:meteo1.obj
 0003:000248b8       __STRLITPACK_559           005c18b8     part_io_f:meteo1.obj
 0003:000248dc       __STRLITPACK_558           005c18dc     part_io_f:meteo1.obj
 0003:00024900       __STRLITPACK_557           005c1900     part_io_f:meteo1.obj
 0003:00024924       __STRLITPACK_556           005c1924     part_io_f:meteo1.obj
 0003:00024948       __STRLITPACK_555           005c1948     part_io_f:meteo1.obj
 0003:0002496c       __STRLITPACK_554           005c196c     part_io_f:meteo1.obj
 0003:00024990       __STRLITPACK_553           005c1990     part_io_f:meteo1.obj
 0003:000249b4       __STRLITPACK_552           005c19b4     part_io_f:meteo1.obj
 0003:000249d8       __STRLITPACK_551           005c19d8     part_io_f:meteo1.obj
 0003:000249fc       __STRLITPACK_550           005c19fc     part_io_f:meteo1.obj
 0003:00024a20       __STRLITPACK_549           005c1a20     part_io_f:meteo1.obj
 0003:00024a44       __STRLITPACK_548           005c1a44     part_io_f:meteo1.obj
 0003:00024a68       __STRLITPACK_547           005c1a68     part_io_f:meteo1.obj
 0003:00024a8c       __STRLITPACK_546           005c1a8c     part_io_f:meteo1.obj
 0003:00024ab0       __STRLITPACK_545           005c1ab0     part_io_f:meteo1.obj
 0003:00024ad4       __STRLITPACK_544           005c1ad4     part_io_f:meteo1.obj
 0003:00024af8       __STRLITPACK_543           005c1af8     part_io_f:meteo1.obj
 0003:00024b1c       __STRLITPACK_542           005c1b1c     part_io_f:meteo1.obj
 0003:00024b40       __STRLITPACK_541           005c1b40     part_io_f:meteo1.obj
 0003:00024b64       __STRLITPACK_540           005c1b64     part_io_f:meteo1.obj
 0003:00024b88       __STRLITPACK_539           005c1b88     part_io_f:meteo1.obj
 0003:00024bac       __STRLITPACK_538           005c1bac     part_io_f:meteo1.obj
 0003:00024bd0       __STRLITPACK_537           005c1bd0     part_io_f:meteo1.obj
 0003:00024bf4       __STRLITPACK_536           005c1bf4     part_io_f:meteo1.obj
 0003:00024c18       __STRLITPACK_535           005c1c18     part_io_f:meteo1.obj
 0003:00024c3c       __STRLITPACK_534           005c1c3c     part_io_f:meteo1.obj
 0003:00024c60       __STRLITPACK_533           005c1c60     part_io_f:meteo1.obj
 0003:00024c84       __STRLITPACK_532           005c1c84     part_io_f:meteo1.obj
 0003:00024ca8       __STRLITPACK_531           005c1ca8     part_io_f:meteo1.obj
 0003:00024ccc       __STRLITPACK_530           005c1ccc     part_io_f:meteo1.obj
 0003:00024cf0       __STRLITPACK_529           005c1cf0     part_io_f:meteo1.obj
 0003:00024d14       __STRLITPACK_528           005c1d14     part_io_f:meteo1.obj
 0003:00024d38       __STRLITPACK_527           005c1d38     part_io_f:meteo1.obj
 0003:00024d5c       __STRLITPACK_526           005c1d5c     part_io_f:meteo1.obj
 0003:00024d80       __STRLITPACK_525           005c1d80     part_io_f:meteo1.obj
 0003:00024da4       __STRLITPACK_524           005c1da4     part_io_f:meteo1.obj
 0003:00024dc8       __STRLITPACK_523           005c1dc8     part_io_f:meteo1.obj
 0003:00024dec       __STRLITPACK_522           005c1dec     part_io_f:meteo1.obj
 0003:00024e10       __STRLITPACK_521           005c1e10     part_io_f:meteo1.obj
 0003:00024e34       __STRLITPACK_520           005c1e34     part_io_f:meteo1.obj
 0003:00024e58       __STRLITPACK_519           005c1e58     part_io_f:meteo1.obj
 0003:00024e7c       __STRLITPACK_518           005c1e7c     part_io_f:meteo1.obj
 0003:00024ea0       __STRLITPACK_517           005c1ea0     part_io_f:meteo1.obj
 0003:00024ec4       __STRLITPACK_516           005c1ec4     part_io_f:meteo1.obj
 0003:00024ee8       __STRLITPACK_515           005c1ee8     part_io_f:meteo1.obj
 0003:00024f0c       __STRLITPACK_514           005c1f0c     part_io_f:meteo1.obj
 0003:00024f30       __STRLITPACK_513           005c1f30     part_io_f:meteo1.obj
 0003:00024f54       __STRLITPACK_512           005c1f54     part_io_f:meteo1.obj
 0003:00024f78       __STRLITPACK_511           005c1f78     part_io_f:meteo1.obj
 0003:00024f9c       __STRLITPACK_510           005c1f9c     part_io_f:meteo1.obj
 0003:00024fc0       __STRLITPACK_509           005c1fc0     part_io_f:meteo1.obj
 0003:00024fe4       __STRLITPACK_508           005c1fe4     part_io_f:meteo1.obj
 0003:00025008       __STRLITPACK_507           005c2008     part_io_f:meteo1.obj
 0003:0002502c       __STRLITPACK_506           005c202c     part_io_f:meteo1.obj
 0003:00025050       __STRLITPACK_505           005c2050     part_io_f:meteo1.obj
 0003:00025074       __STRLITPACK_504           005c2074     part_io_f:meteo1.obj
 0003:00025098       __STRLITPACK_503           005c2098     part_io_f:meteo1.obj
 0003:000250bc       __STRLITPACK_502           005c20bc     part_io_f:meteo1.obj
 0003:000250e0       __STRLITPACK_501           005c20e0     part_io_f:meteo1.obj
 0003:00025104       __STRLITPACK_500           005c2104     part_io_f:meteo1.obj
 0003:00025128       __STRLITPACK_499           005c2128     part_io_f:meteo1.obj
 0003:0002514c       __STRLITPACK_498           005c214c     part_io_f:meteo1.obj
 0003:00025170       __STRLITPACK_497           005c2170     part_io_f:meteo1.obj
 0003:00025194       __STRLITPACK_496           005c2194     part_io_f:meteo1.obj
 0003:000251b8       __STRLITPACK_495           005c21b8     part_io_f:meteo1.obj
 0003:000251dc       __STRLITPACK_494           005c21dc     part_io_f:meteo1.obj
 0003:00025200       __STRLITPACK_493           005c2200     part_io_f:meteo1.obj
 0003:00025224       __STRLITPACK_492           005c2224     part_io_f:meteo1.obj
 0003:00025248       __STRLITPACK_491           005c2248     part_io_f:meteo1.obj
 0003:0002526c       __STRLITPACK_490           005c226c     part_io_f:meteo1.obj
 0003:00025290       __STRLITPACK_489           005c2290     part_io_f:meteo1.obj
 0003:000252b4       __STRLITPACK_488           005c22b4     part_io_f:meteo1.obj
 0003:000252d8       __STRLITPACK_487           005c22d8     part_io_f:meteo1.obj
 0003:000252fc       __STRLITPACK_486           005c22fc     part_io_f:meteo1.obj
 0003:00025320       __STRLITPACK_485           005c2320     part_io_f:meteo1.obj
 0003:00025344       __STRLITPACK_484           005c2344     part_io_f:meteo1.obj
 0003:00025368       __STRLITPACK_483           005c2368     part_io_f:meteo1.obj
 0003:0002538c       __STRLITPACK_482           005c238c     part_io_f:meteo1.obj
 0003:000253b0       __STRLITPACK_481           005c23b0     part_io_f:meteo1.obj
 0003:000253d4       __STRLITPACK_480           005c23d4     part_io_f:meteo1.obj
 0003:000253f8       __STRLITPACK_479           005c23f8     part_io_f:meteo1.obj
 0003:0002541c       __STRLITPACK_478           005c241c     part_io_f:meteo1.obj
 0003:00025440       __STRLITPACK_477           005c2440     part_io_f:meteo1.obj
 0003:00025464       __STRLITPACK_476           005c2464     part_io_f:meteo1.obj
 0003:00025488       __STRLITPACK_475           005c2488     part_io_f:meteo1.obj
 0003:000254ac       __STRLITPACK_474           005c24ac     part_io_f:meteo1.obj
 0003:000254d0       __STRLITPACK_473           005c24d0     part_io_f:meteo1.obj
 0003:000254f4       __STRLITPACK_472           005c24f4     part_io_f:meteo1.obj
 0003:00025518       __STRLITPACK_471           005c2518     part_io_f:meteo1.obj
 0003:0002553c       __STRLITPACK_470           005c253c     part_io_f:meteo1.obj
 0003:00025560       __STRLITPACK_469           005c2560     part_io_f:meteo1.obj
 0003:00025584       __STRLITPACK_468           005c2584     part_io_f:meteo1.obj
 0003:000255a8       __STRLITPACK_467           005c25a8     part_io_f:meteo1.obj
 0003:000255cc       __STRLITPACK_466           005c25cc     part_io_f:meteo1.obj
 0003:000255f0       __STRLITPACK_465           005c25f0     part_io_f:meteo1.obj
 0003:00025614       __STRLITPACK_464           005c2614     part_io_f:meteo1.obj
 0003:00025638       __STRLITPACK_463           005c2638     part_io_f:meteo1.obj
 0003:0002565c       __STRLITPACK_462           005c265c     part_io_f:meteo1.obj
 0003:00025680       __STRLITPACK_461           005c2680     part_io_f:meteo1.obj
 0003:000256a4       __STRLITPACK_460           005c26a4     part_io_f:meteo1.obj
 0003:000256c8       __STRLITPACK_459           005c26c8     part_io_f:meteo1.obj
 0003:000256ec       __STRLITPACK_458           005c26ec     part_io_f:meteo1.obj
 0003:00025710       __STRLITPACK_457           005c2710     part_io_f:meteo1.obj
 0003:00025734       __STRLITPACK_456           005c2734     part_io_f:meteo1.obj
 0003:00025758       __STRLITPACK_455           005c2758     part_io_f:meteo1.obj
 0003:0002577c       __STRLITPACK_454           005c277c     part_io_f:meteo1.obj
 0003:000257a0       __STRLITPACK_453           005c27a0     part_io_f:meteo1.obj
 0003:000257c4       __STRLITPACK_452           005c27c4     part_io_f:meteo1.obj
 0003:000257e8       __STRLITPACK_451           005c27e8     part_io_f:meteo1.obj
 0003:0002580c       __STRLITPACK_450           005c280c     part_io_f:meteo1.obj
 0003:00025830       __STRLITPACK_449           005c2830     part_io_f:meteo1.obj
 0003:00025854       __STRLITPACK_448           005c2854     part_io_f:meteo1.obj
 0003:00025878       __STRLITPACK_447           005c2878     part_io_f:meteo1.obj
 0003:0002589c       __STRLITPACK_446           005c289c     part_io_f:meteo1.obj
 0003:000258c0       __STRLITPACK_445           005c28c0     part_io_f:meteo1.obj
 0003:000258e4       __STRLITPACK_444           005c28e4     part_io_f:meteo1.obj
 0003:00025908       __STRLITPACK_443           005c2908     part_io_f:meteo1.obj
 0003:0002592c       __STRLITPACK_442           005c292c     part_io_f:meteo1.obj
 0003:00025950       __STRLITPACK_441           005c2950     part_io_f:meteo1.obj
 0003:00025974       __STRLITPACK_440           005c2974     part_io_f:meteo1.obj
 0003:00025998       __STRLITPACK_439           005c2998     part_io_f:meteo1.obj
 0003:000259bc       __STRLITPACK_438           005c29bc     part_io_f:meteo1.obj
 0003:000259e0       __STRLITPACK_437           005c29e0     part_io_f:meteo1.obj
 0003:00025a04       __STRLITPACK_436           005c2a04     part_io_f:meteo1.obj
 0003:00025a28       __STRLITPACK_435           005c2a28     part_io_f:meteo1.obj
 0003:00025a4c       __STRLITPACK_434           005c2a4c     part_io_f:meteo1.obj
 0003:00025a70       __STRLITPACK_433           005c2a70     part_io_f:meteo1.obj
 0003:00025a94       __STRLITPACK_432           005c2a94     part_io_f:meteo1.obj
 0003:00025ab8       __STRLITPACK_431           005c2ab8     part_io_f:meteo1.obj
 0003:00025adc       __STRLITPACK_430           005c2adc     part_io_f:meteo1.obj
 0003:00025b00       __STRLITPACK_429           005c2b00     part_io_f:meteo1.obj
 0003:00025b24       __STRLITPACK_428           005c2b24     part_io_f:meteo1.obj
 0003:00025b48       __STRLITPACK_427           005c2b48     part_io_f:meteo1.obj
 0003:00025b6c       __STRLITPACK_426           005c2b6c     part_io_f:meteo1.obj
 0003:00025b90       __STRLITPACK_425           005c2b90     part_io_f:meteo1.obj
 0003:00025bb4       __STRLITPACK_424           005c2bb4     part_io_f:meteo1.obj
 0003:00025bd8       __STRLITPACK_423           005c2bd8     part_io_f:meteo1.obj
 0003:00025bfc       __STRLITPACK_422           005c2bfc     part_io_f:meteo1.obj
 0003:00025c20       __STRLITPACK_421           005c2c20     part_io_f:meteo1.obj
 0003:00025c44       __STRLITPACK_420           005c2c44     part_io_f:meteo1.obj
 0003:00025c68       __STRLITPACK_419           005c2c68     part_io_f:meteo1.obj
 0003:00025c8c       __STRLITPACK_418           005c2c8c     part_io_f:meteo1.obj
 0003:00025cb0       __STRLITPACK_417           005c2cb0     part_io_f:meteo1.obj
 0003:00025cd4       __STRLITPACK_416           005c2cd4     part_io_f:meteo1.obj
 0003:00025cf8       __STRLITPACK_415           005c2cf8     part_io_f:meteo1.obj
 0003:00025d1c       __STRLITPACK_414           005c2d1c     part_io_f:meteo1.obj
 0003:00025d40       __STRLITPACK_413           005c2d40     part_io_f:meteo1.obj
 0003:00025d64       __STRLITPACK_412           005c2d64     part_io_f:meteo1.obj
 0003:00025d88       __STRLITPACK_411           005c2d88     part_io_f:meteo1.obj
 0003:00025dac       __STRLITPACK_410           005c2dac     part_io_f:meteo1.obj
 0003:00025dd0       __STRLITPACK_409           005c2dd0     part_io_f:meteo1.obj
 0003:00025df4       __STRLITPACK_408           005c2df4     part_io_f:meteo1.obj
 0003:00025e18       __STRLITPACK_407           005c2e18     part_io_f:meteo1.obj
 0003:00025e3c       __STRLITPACK_406           005c2e3c     part_io_f:meteo1.obj
 0003:00025e60       __STRLITPACK_405           005c2e60     part_io_f:meteo1.obj
 0003:00025e84       __STRLITPACK_404           005c2e84     part_io_f:meteo1.obj
 0003:00025ea8       __STRLITPACK_403           005c2ea8     part_io_f:meteo1.obj
 0003:00025ecc       __STRLITPACK_402           005c2ecc     part_io_f:meteo1.obj
 0003:00025ef0       __STRLITPACK_401           005c2ef0     part_io_f:meteo1.obj
 0003:00025f14       __STRLITPACK_400           005c2f14     part_io_f:meteo1.obj
 0003:00025f38       __STRLITPACK_399           005c2f38     part_io_f:meteo1.obj
 0003:00025f5c       __STRLITPACK_398           005c2f5c     part_io_f:meteo1.obj
 0003:00025f80       __STRLITPACK_397           005c2f80     part_io_f:meteo1.obj
 0003:00025fa4       __STRLITPACK_396           005c2fa4     part_io_f:meteo1.obj
 0003:00025fc8       __STRLITPACK_395           005c2fc8     part_io_f:meteo1.obj
 0003:00025fec       __STRLITPACK_394           005c2fec     part_io_f:meteo1.obj
 0003:00026010       __STRLITPACK_393           005c3010     part_io_f:meteo1.obj
 0003:00026034       __STRLITPACK_392           005c3034     part_io_f:meteo1.obj
 0003:00026058       __STRLITPACK_391           005c3058     part_io_f:meteo1.obj
 0003:0002607c       __STRLITPACK_390           005c307c     part_io_f:meteo1.obj
 0003:000260a0       __STRLITPACK_389           005c30a0     part_io_f:meteo1.obj
 0003:000260c4       __STRLITPACK_388           005c30c4     part_io_f:meteo1.obj
 0003:000260e8       __STRLITPACK_387           005c30e8     part_io_f:meteo1.obj
 0003:0002610c       __STRLITPACK_386           005c310c     part_io_f:meteo1.obj
 0003:00026130       __STRLITPACK_385           005c3130     part_io_f:meteo1.obj
 0003:00026154       __STRLITPACK_384           005c3154     part_io_f:meteo1.obj
 0003:00026178       __STRLITPACK_383           005c3178     part_io_f:meteo1.obj
 0003:0002619c       __STRLITPACK_382           005c319c     part_io_f:meteo1.obj
 0003:000261c0       __STRLITPACK_381           005c31c0     part_io_f:meteo1.obj
 0003:000261e4       __STRLITPACK_380           005c31e4     part_io_f:meteo1.obj
 0003:00026208       __STRLITPACK_379           005c3208     part_io_f:meteo1.obj
 0003:0002622c       __STRLITPACK_378           005c322c     part_io_f:meteo1.obj
 0003:00026250       __STRLITPACK_377           005c3250     part_io_f:meteo1.obj
 0003:00026274       __STRLITPACK_376           005c3274     part_io_f:meteo1.obj
 0003:00026298       __STRLITPACK_375           005c3298     part_io_f:meteo1.obj
 0003:000262bc       __STRLITPACK_374           005c32bc     part_io_f:meteo1.obj
 0003:000262e0       __STRLITPACK_373           005c32e0     part_io_f:meteo1.obj
 0003:00026304       __STRLITPACK_372           005c3304     part_io_f:meteo1.obj
 0003:00026328       __STRLITPACK_371           005c3328     part_io_f:meteo1.obj
 0003:0002634c       __STRLITPACK_370           005c334c     part_io_f:meteo1.obj
 0003:00026370       __STRLITPACK_369           005c3370     part_io_f:meteo1.obj
 0003:00026394       __STRLITPACK_368           005c3394     part_io_f:meteo1.obj
 0003:000263b8       __STRLITPACK_367           005c33b8     part_io_f:meteo1.obj
 0003:000263dc       __STRLITPACK_366           005c33dc     part_io_f:meteo1.obj
 0003:00026400       __STRLITPACK_365           005c3400     part_io_f:meteo1.obj
 0003:00026424       __STRLITPACK_364           005c3424     part_io_f:meteo1.obj
 0003:00026448       __STRLITPACK_363           005c3448     part_io_f:meteo1.obj
 0003:0002646c       __STRLITPACK_362           005c346c     part_io_f:meteo1.obj
 0003:00026490       __STRLITPACK_361           005c3490     part_io_f:meteo1.obj
 0003:000264b4       __STRLITPACK_360           005c34b4     part_io_f:meteo1.obj
 0003:000264d8       __STRLITPACK_359           005c34d8     part_io_f:meteo1.obj
 0003:000264fc       __STRLITPACK_1507.0.56     005c34fc     part_io_f:meteo1.obj
 0003:00026504       __STRLITPACK_1502          005c3504     part_io_f:meteo1.obj
 0003:00026510       __STRLITPACK_1506.0.56     005c3510     part_io_f:meteo1.obj
 0003:00026518       __STRLITPACK_1504          005c3518     part_io_f:meteo1.obj
 0003:00026524       __STRLITPACK_1421          005c3524     part_io_f:meteo1.obj
 0003:0002653c       __STRLITPACK_1420          005c353c     part_io_f:meteo1.obj
 0003:00026550       __STRLITPACK_1418          005c3550     part_io_f:meteo1.obj
 0003:00026554       __STRLITPACK_1419          005c3554     part_io_f:meteo1.obj
 0003:0002658c       __STRLITPACK_1416          005c358c     part_io_f:meteo1.obj
 0003:00026590       __STRLITPACK_1413          005c3590     part_io_f:meteo1.obj
 0003:00026594       __STRLITPACK_1412          005c3594     part_io_f:meteo1.obj
 0003:0002659c       __STRLITPACK_1411          005c359c     part_io_f:meteo1.obj
 0003:000265a0       __STRLITPACK_1410          005c35a0     part_io_f:meteo1.obj
 0003:000265a8       __STRLITPACK_1409          005c35a8     part_io_f:meteo1.obj
 0003:000265c4       __STRLITPACK_1408          005c35c4     part_io_f:meteo1.obj
 0003:000265d4       __STRLITPACK_1422          005c35d4     part_io_f:meteo1.obj
 0003:000265e4       __STRLITPACK_1403          005c35e4     part_io_f:meteo1.obj
 0003:000265f0       __STRLITPACK_1402          005c35f0     part_io_f:meteo1.obj
 0003:000265f4       __STRLITPACK_1384          005c35f4     part_io_f:meteo1.obj
 0003:00026600       __STRLITPACK_1383          005c3600     part_io_f:meteo1.obj
 0003:00026610       __STRLITPACK_1399          005c3610     part_io_f:meteo1.obj
 0003:0002661c       __STRLITPACK_1398          005c361c     part_io_f:meteo1.obj
 0003:00026620       __STRLITPACK_1395          005c3620     part_io_f:meteo1.obj
 0003:0002662c       __STRLITPACK_1394          005c362c     part_io_f:meteo1.obj
 0003:00026630       __STRLITPACK_1393          005c3630     part_io_f:meteo1.obj
 0003:00026638       __STRLITPACK_1392          005c3638     part_io_f:meteo1.obj
 0003:0002663c       __STRLITPACK_1391          005c363c     part_io_f:meteo1.obj
 0003:00026644       __STRLITPACK_1390          005c3644     part_io_f:meteo1.obj
 0003:00026648       __STRLITPACK_1389          005c3648     part_io_f:meteo1.obj
 0003:0002664c       __STRLITPACK_1386          005c364c     part_io_f:meteo1.obj
 0003:00026654       __STRLITPACK_1385          005c3654     part_io_f:meteo1.obj
 0003:0002665c       __STRLITPACK_1360          005c365c     part_io_f:meteo1.obj
 0003:00026660       __STRLITPACK_1356          005c3660     part_io_f:meteo1.obj
 0003:00026694       __STRLITPACK_1357          005c3694     part_io_f:meteo1.obj
 0003:000266bc       __STRLITPACK_119           005c36bc     part_io_f:meteo1.obj
 0003:000266c4       __STRLITPACK_118           005c36c4     part_io_f:meteo1.obj
 0003:000266cc       __STRLITPACK_117           005c36cc     part_io_f:meteo1.obj
 0003:000266d8       __STRLITPACK_116           005c36d8     part_io_f:meteo1.obj
 0003:000266e4       __STRLITPACK_115           005c36e4     part_io_f:meteo1.obj
 0003:000266f0       __STRLITPACK_114           005c36f0     part_io_f:meteo1.obj
 0003:000266fc       __STRLITPACK_113           005c36fc     part_io_f:meteo1.obj
 0003:00026700       __STRLITPACK_112           005c3700     part_io_f:meteo1.obj
 0003:00026704       __STRLITPACK_111           005c3704     part_io_f:meteo1.obj
 0003:00026710       __STRLITPACK_110           005c3710     part_io_f:meteo1.obj
 0003:00026720       __STRLITPACK_109           005c3720     part_io_f:meteo1.obj
 0003:00026728       __STRLITPACK_108           005c3728     part_io_f:meteo1.obj
 0003:00026730       __STRLITPACK_107           005c3730     part_io_f:meteo1.obj
 0003:00026740       __STRLITPACK_90            005c3740     part_io_f:meteo1.obj
 0003:00026774       __STRLITPACK_95            005c3774     part_io_f:meteo1.obj
 0003:00026790       __STRLITPACK_94            005c3790     part_io_f:meteo1.obj
 0003:000267a4       __STRLITPACK_87            005c37a4     part_io_f:meteo1.obj
 0003:000267b0       __STRLITPACK_83            005c37b0     part_io_f:meteo1.obj
 0003:000267bc       __STRLITPACK_82            005c37bc     part_io_f:meteo1.obj
 0003:000267cc       __STRLITPACK_81            005c37cc     part_io_f:meteo1.obj
 0003:000267d8       __STRLITPACK_80            005c37d8     part_io_f:meteo1.obj
 0003:000267ec       __STRLITPACK_79            005c37ec     part_io_f:meteo1.obj
 0003:000267fc       __STRLITPACK_76            005c37fc     part_io_f:meteo1.obj
 0003:00026808       __STRLITPACK_75            005c3808     part_io_f:meteo1.obj
 0003:00026814       __STRLITPACK_72            005c3814     part_io_f:meteo1.obj
 0003:00026820       __STRLITPACK_69            005c3820     part_io_f:meteo1.obj
 0003:0002682c       __STRLITPACK_68            005c382c     part_io_f:meteo1.obj
 0003:00026834       __STRLITPACK_67            005c3834     part_io_f:meteo1.obj
 0003:0002683c       __STRLITPACK_66            005c383c     part_io_f:meteo1.obj
 0003:0002684c       __STRLITPACK_49            005c384c     part_io_f:meteo1.obj
 0003:00026880       __STRLITPACK_54            005c3880     part_io_f:meteo1.obj
 0003:0002689c       __STRLITPACK_53            005c389c     part_io_f:meteo1.obj
 0003:000268b0       __STRLITPACK_84            005c38b0     part_io_f:meteo1.obj
 0003:000268d4       __STRLITPACK_77            005c38d4     part_io_f:meteo1.obj
 0003:00026904       __STRLITPACK_73            005c3904     part_io_f:meteo1.obj
 0003:00026928       __STRLITPACK_70            005c3928     part_io_f:meteo1.obj
 0003:0002695c       __STRLITPACK_1380          005c395c     part_io_f:meteo1.obj
 0003:00026960       __STRLITPACK_1375          005c3960     part_io_f:meteo1.obj
 0003:0002697c       __STRLITPACK_1374          005c397c     part_io_f:meteo1.obj
 0003:00026998       __STRLITPACK_1423          005c3998     part_io_f:meteo1.obj
 0003:000269d8       __STRLITPACK_1517          005c39d8     part_io_f:meteo1.obj
 0003:000269e4       __STRLITPACK_1519          005c39e4     part_io_f:meteo1.obj
 0003:00026a20       __STRLITPACK_1514          005c3a20     part_io_f:meteo1.obj
 0003:00026a30       __STRLITPACK_1512          005c3a30     part_io_f:meteo1.obj
 0003:00026a34       __STRLITPACK_1511          005c3a34     part_io_f:meteo1.obj
 0003:00026a3c       __STRLITPACK_1510          005c3a3c     part_io_f:meteo1.obj
 0003:00026a44       __STRLITPACK_1509          005c3a44     part_io_f:meteo1.obj
 0003:00026a5c       __STRLITPACK_1353          005c3a5c     part_io_f:meteo1.obj
 0003:00026a60       __STRLITPACK_1349          005c3a60     part_io_f:meteo1.obj
 0003:00026a88       __STRLITPACK_1350          005c3a88     part_io_f:meteo1.obj
 0003:00026a8c       __STRLITPACK_1348          005c3a8c     part_io_f:meteo1.obj
 0003:00026ac0       __STRLITPACK_1109          005c3ac0     part_io_f:meteo1.obj
 0003:00026af4       __STRLITPACK_1108          005c3af4     part_io_f:meteo1.obj
 0003:00026b28       __STRLITPACK_1107          005c3b28     part_io_f:meteo1.obj
 0003:00026b5c       __STRLITPACK_1106          005c3b5c     part_io_f:meteo1.obj
 0003:00026b90       __STRLITPACK_1105          005c3b90     part_io_f:meteo1.obj
 0003:00026bc4       __STRLITPACK_1104          005c3bc4     part_io_f:meteo1.obj
 0003:00026bf8       __STRLITPACK_1103          005c3bf8     part_io_f:meteo1.obj
 0003:00026c2c       __STRLITPACK_1102          005c3c2c     part_io_f:meteo1.obj
 0003:00026c60       __STRLITPACK_1101          005c3c60     part_io_f:meteo1.obj
 0003:00026c94       __STRLITPACK_1100          005c3c94     part_io_f:meteo1.obj
 0003:00026cc8       __STRLITPACK_1099          005c3cc8     part_io_f:meteo1.obj
 0003:00026cfc       __STRLITPACK_1098          005c3cfc     part_io_f:meteo1.obj
 0003:00026d30       __STRLITPACK_1097          005c3d30     part_io_f:meteo1.obj
 0003:00026d64       __STRLITPACK_1096          005c3d64     part_io_f:meteo1.obj
 0003:00026d98       __STRLITPACK_1095          005c3d98     part_io_f:meteo1.obj
 0003:00026dcc       __STRLITPACK_1094          005c3dcc     part_io_f:meteo1.obj
 0003:00026e00       __STRLITPACK_1093          005c3e00     part_io_f:meteo1.obj
 0003:00026e34       __STRLITPACK_1092          005c3e34     part_io_f:meteo1.obj
 0003:00026e68       __STRLITPACK_1091          005c3e68     part_io_f:meteo1.obj
 0003:00026e9c       __STRLITPACK_1090          005c3e9c     part_io_f:meteo1.obj
 0003:00026ed0       __STRLITPACK_1089          005c3ed0     part_io_f:meteo1.obj
 0003:00026f04       __STRLITPACK_1088          005c3f04     part_io_f:meteo1.obj
 0003:00026f38       __STRLITPACK_1087          005c3f38     part_io_f:meteo1.obj
 0003:00026f6c       __STRLITPACK_1086          005c3f6c     part_io_f:meteo1.obj
 0003:00026fa0       __STRLITPACK_1085          005c3fa0     part_io_f:meteo1.obj
 0003:00026fd4       __STRLITPACK_1084          005c3fd4     part_io_f:meteo1.obj
 0003:00027008       __STRLITPACK_1083          005c4008     part_io_f:meteo1.obj
 0003:0002703c       __STRLITPACK_1082          005c403c     part_io_f:meteo1.obj
 0003:00027070       __STRLITPACK_1081          005c4070     part_io_f:meteo1.obj
 0003:000270a4       __STRLITPACK_1080          005c40a4     part_io_f:meteo1.obj
 0003:000270d8       __STRLITPACK_1079          005c40d8     part_io_f:meteo1.obj
 0003:0002710c       __STRLITPACK_1078          005c410c     part_io_f:meteo1.obj
 0003:00027140       __STRLITPACK_1077          005c4140     part_io_f:meteo1.obj
 0003:00027174       __STRLITPACK_1076          005c4174     part_io_f:meteo1.obj
 0003:000271a8       __STRLITPACK_1075          005c41a8     part_io_f:meteo1.obj
 0003:000271dc       __STRLITPACK_1074          005c41dc     part_io_f:meteo1.obj
 0003:00027210       __STRLITPACK_1073          005c4210     part_io_f:meteo1.obj
 0003:00027244       __STRLITPACK_1072          005c4244     part_io_f:meteo1.obj
 0003:00027278       __STRLITPACK_1071          005c4278     part_io_f:meteo1.obj
 0003:000272ac       __STRLITPACK_1070          005c42ac     part_io_f:meteo1.obj
 0003:000272e0       __STRLITPACK_1069          005c42e0     part_io_f:meteo1.obj
 0003:00027314       __STRLITPACK_1068          005c4314     part_io_f:meteo1.obj
 0003:00027348       __STRLITPACK_1067          005c4348     part_io_f:meteo1.obj
 0003:0002737c       __STRLITPACK_1066          005c437c     part_io_f:meteo1.obj
 0003:000273b0       __STRLITPACK_1065          005c43b0     part_io_f:meteo1.obj
 0003:000273e4       __STRLITPACK_1064          005c43e4     part_io_f:meteo1.obj
 0003:00027418       __STRLITPACK_1063          005c4418     part_io_f:meteo1.obj
 0003:0002744c       __STRLITPACK_1062          005c444c     part_io_f:meteo1.obj
 0003:00027480       __STRLITPACK_1061          005c4480     part_io_f:meteo1.obj
 0003:000274b4       __STRLITPACK_1060          005c44b4     part_io_f:meteo1.obj
 0003:000274e8       __STRLITPACK_1059          005c44e8     part_io_f:meteo1.obj
 0003:0002751c       __STRLITPACK_1058          005c451c     part_io_f:meteo1.obj
 0003:00027550       __STRLITPACK_1057          005c4550     part_io_f:meteo1.obj
 0003:00027584       __STRLITPACK_1056          005c4584     part_io_f:meteo1.obj
 0003:000275b8       __STRLITPACK_1055          005c45b8     part_io_f:meteo1.obj
 0003:000275ec       __STRLITPACK_1054          005c45ec     part_io_f:meteo1.obj
 0003:00027620       __STRLITPACK_1053          005c4620     part_io_f:meteo1.obj
 0003:00027654       __STRLITPACK_1052          005c4654     part_io_f:meteo1.obj
 0003:00027688       __STRLITPACK_1051          005c4688     part_io_f:meteo1.obj
 0003:000276bc       __STRLITPACK_1050          005c46bc     part_io_f:meteo1.obj
 0003:000276f0       __STRLITPACK_1049          005c46f0     part_io_f:meteo1.obj
 0003:00027724       __STRLITPACK_1048          005c4724     part_io_f:meteo1.obj
 0003:00027758       __STRLITPACK_1047          005c4758     part_io_f:meteo1.obj
 0003:0002778c       __STRLITPACK_1046          005c478c     part_io_f:meteo1.obj
 0003:000277c0       __STRLITPACK_1045          005c47c0     part_io_f:meteo1.obj
 0003:000277f4       __STRLITPACK_1044          005c47f4     part_io_f:meteo1.obj
 0003:00027828       __STRLITPACK_1043          005c4828     part_io_f:meteo1.obj
 0003:0002785c       __STRLITPACK_1042          005c485c     part_io_f:meteo1.obj
 0003:00027890       __STRLITPACK_1041          005c4890     part_io_f:meteo1.obj
 0003:000278c4       __STRLITPACK_1040          005c48c4     part_io_f:meteo1.obj
 0003:000278f8       __STRLITPACK_1039          005c48f8     part_io_f:meteo1.obj
 0003:0002792c       __STRLITPACK_1038          005c492c     part_io_f:meteo1.obj
 0003:00027960       __STRLITPACK_1037          005c4960     part_io_f:meteo1.obj
 0003:00027994       __STRLITPACK_1036          005c4994     part_io_f:meteo1.obj
 0003:000279c8       __STRLITPACK_1035          005c49c8     part_io_f:meteo1.obj
 0003:000279fc       __STRLITPACK_1034          005c49fc     part_io_f:meteo1.obj
 0003:00027a30       __STRLITPACK_1033          005c4a30     part_io_f:meteo1.obj
 0003:00027a64       __STRLITPACK_1032          005c4a64     part_io_f:meteo1.obj
 0003:00027a98       __STRLITPACK_1031          005c4a98     part_io_f:meteo1.obj
 0003:00027acc       __STRLITPACK_1030          005c4acc     part_io_f:meteo1.obj
 0003:00027b00       __STRLITPACK_1029          005c4b00     part_io_f:meteo1.obj
 0003:00027b34       __STRLITPACK_1028          005c4b34     part_io_f:meteo1.obj
 0003:00027b68       __STRLITPACK_1027          005c4b68     part_io_f:meteo1.obj
 0003:00027b9c       __STRLITPACK_1026          005c4b9c     part_io_f:meteo1.obj
 0003:00027bd0       __STRLITPACK_1025          005c4bd0     part_io_f:meteo1.obj
 0003:00027c04       __STRLITPACK_1024          005c4c04     part_io_f:meteo1.obj
 0003:00027c38       __STRLITPACK_1023          005c4c38     part_io_f:meteo1.obj
 0003:00027c6c       __STRLITPACK_1022          005c4c6c     part_io_f:meteo1.obj
 0003:00027ca0       __STRLITPACK_1021          005c4ca0     part_io_f:meteo1.obj
 0003:00027cd4       __STRLITPACK_1020          005c4cd4     part_io_f:meteo1.obj
 0003:00027d08       __STRLITPACK_1019          005c4d08     part_io_f:meteo1.obj
 0003:00027d3c       __STRLITPACK_1018          005c4d3c     part_io_f:meteo1.obj
 0003:00027d70       __STRLITPACK_1017          005c4d70     part_io_f:meteo1.obj
 0003:00027da4       __STRLITPACK_1016          005c4da4     part_io_f:meteo1.obj
 0003:00027dd8       __STRLITPACK_1015          005c4dd8     part_io_f:meteo1.obj
 0003:00027e0c       __STRLITPACK_1014          005c4e0c     part_io_f:meteo1.obj
 0003:00027e40       __STRLITPACK_1013          005c4e40     part_io_f:meteo1.obj
 0003:00027e74       __STRLITPACK_1012          005c4e74     part_io_f:meteo1.obj
 0003:00027ea8       __STRLITPACK_1011          005c4ea8     part_io_f:meteo1.obj
 0003:00027edc       __STRLITPACK_1010          005c4edc     part_io_f:meteo1.obj
 0003:00027f10       __STRLITPACK_1009          005c4f10     part_io_f:meteo1.obj
 0003:00027f44       __STRLITPACK_1008          005c4f44     part_io_f:meteo1.obj
 0003:00027f78       __STRLITPACK_1007          005c4f78     part_io_f:meteo1.obj
 0003:00027fac       __STRLITPACK_1006          005c4fac     part_io_f:meteo1.obj
 0003:00027fe0       __STRLITPACK_1005          005c4fe0     part_io_f:meteo1.obj
 0003:00028014       __STRLITPACK_1004          005c5014     part_io_f:meteo1.obj
 0003:00028048       __STRLITPACK_1003          005c5048     part_io_f:meteo1.obj
 0003:0002807c       __STRLITPACK_1002          005c507c     part_io_f:meteo1.obj
 0003:000280b0       __STRLITPACK_1001          005c50b0     part_io_f:meteo1.obj
 0003:000280e4       __STRLITPACK_1000          005c50e4     part_io_f:meteo1.obj
 0003:00028118       __STRLITPACK_999           005c5118     part_io_f:meteo1.obj
 0003:0002814c       __STRLITPACK_998           005c514c     part_io_f:meteo1.obj
 0003:00028180       __STRLITPACK_997           005c5180     part_io_f:meteo1.obj
 0003:000281b4       __STRLITPACK_996           005c51b4     part_io_f:meteo1.obj
 0003:000281e8       __STRLITPACK_995           005c51e8     part_io_f:meteo1.obj
 0003:0002821c       __STRLITPACK_994           005c521c     part_io_f:meteo1.obj
 0003:00028250       __STRLITPACK_993           005c5250     part_io_f:meteo1.obj
 0003:00028284       __STRLITPACK_992           005c5284     part_io_f:meteo1.obj
 0003:000282b8       __STRLITPACK_991           005c52b8     part_io_f:meteo1.obj
 0003:000282ec       __STRLITPACK_990           005c52ec     part_io_f:meteo1.obj
 0003:00028320       __STRLITPACK_989           005c5320     part_io_f:meteo1.obj
 0003:00028354       __STRLITPACK_988           005c5354     part_io_f:meteo1.obj
 0003:00028388       __STRLITPACK_987           005c5388     part_io_f:meteo1.obj
 0003:000283bc       __STRLITPACK_986           005c53bc     part_io_f:meteo1.obj
 0003:000283f0       __STRLITPACK_985           005c53f0     part_io_f:meteo1.obj
 0003:00028424       __STRLITPACK_984           005c5424     part_io_f:meteo1.obj
 0003:00028458       __STRLITPACK_983           005c5458     part_io_f:meteo1.obj
 0003:0002848c       __STRLITPACK_982           005c548c     part_io_f:meteo1.obj
 0003:000284c0       __STRLITPACK_981           005c54c0     part_io_f:meteo1.obj
 0003:000284f4       __STRLITPACK_980           005c54f4     part_io_f:meteo1.obj
 0003:00028528       __STRLITPACK_979           005c5528     part_io_f:meteo1.obj
 0003:0002855c       __STRLITPACK_978           005c555c     part_io_f:meteo1.obj
 0003:00028590       __STRLITPACK_977           005c5590     part_io_f:meteo1.obj
 0003:000285c4       __STRLITPACK_976           005c55c4     part_io_f:meteo1.obj
 0003:000285f8       __STRLITPACK_975           005c55f8     part_io_f:meteo1.obj
 0003:0002862c       __STRLITPACK_974           005c562c     part_io_f:meteo1.obj
 0003:00028660       __STRLITPACK_973           005c5660     part_io_f:meteo1.obj
 0003:00028694       __STRLITPACK_972           005c5694     part_io_f:meteo1.obj
 0003:000286c8       __STRLITPACK_971           005c56c8     part_io_f:meteo1.obj
 0003:000286fc       __STRLITPACK_970           005c56fc     part_io_f:meteo1.obj
 0003:00028730       __STRLITPACK_969           005c5730     part_io_f:meteo1.obj
 0003:00028764       __STRLITPACK_968           005c5764     part_io_f:meteo1.obj
 0003:00028798       __STRLITPACK_967           005c5798     part_io_f:meteo1.obj
 0003:000287cc       __STRLITPACK_966           005c57cc     part_io_f:meteo1.obj
 0003:00028800       __STRLITPACK_965           005c5800     part_io_f:meteo1.obj
 0003:00028834       __STRLITPACK_964           005c5834     part_io_f:meteo1.obj
 0003:00028868       __STRLITPACK_963           005c5868     part_io_f:meteo1.obj
 0003:0002889c       __STRLITPACK_962           005c589c     part_io_f:meteo1.obj
 0003:000288d0       __STRLITPACK_961           005c58d0     part_io_f:meteo1.obj
 0003:00028904       __STRLITPACK_960           005c5904     part_io_f:meteo1.obj
 0003:00028938       __STRLITPACK_959           005c5938     part_io_f:meteo1.obj
 0003:0002896c       __STRLITPACK_958           005c596c     part_io_f:meteo1.obj
 0003:000289a0       __STRLITPACK_957           005c59a0     part_io_f:meteo1.obj
 0003:000289d4       __STRLITPACK_956           005c59d4     part_io_f:meteo1.obj
 0003:00028a08       __STRLITPACK_955           005c5a08     part_io_f:meteo1.obj
 0003:00028a3c       __STRLITPACK_954           005c5a3c     part_io_f:meteo1.obj
 0003:00028a70       __STRLITPACK_953           005c5a70     part_io_f:meteo1.obj
 0003:00028aa4       __STRLITPACK_952           005c5aa4     part_io_f:meteo1.obj
 0003:00028ad8       __STRLITPACK_951           005c5ad8     part_io_f:meteo1.obj
 0003:00028b0c       __STRLITPACK_950           005c5b0c     part_io_f:meteo1.obj
 0003:00028b40       __STRLITPACK_949           005c5b40     part_io_f:meteo1.obj
 0003:00028b74       __STRLITPACK_948           005c5b74     part_io_f:meteo1.obj
 0003:00028ba8       __STRLITPACK_947           005c5ba8     part_io_f:meteo1.obj
 0003:00028bdc       __STRLITPACK_946           005c5bdc     part_io_f:meteo1.obj
 0003:00028c10       __STRLITPACK_945           005c5c10     part_io_f:meteo1.obj
 0003:00028c44       __STRLITPACK_944           005c5c44     part_io_f:meteo1.obj
 0003:00028c78       __STRLITPACK_943           005c5c78     part_io_f:meteo1.obj
 0003:00028cac       __STRLITPACK_942           005c5cac     part_io_f:meteo1.obj
 0003:00028ce0       __STRLITPACK_941           005c5ce0     part_io_f:meteo1.obj
 0003:00028d14       __STRLITPACK_940           005c5d14     part_io_f:meteo1.obj
 0003:00028d48       __STRLITPACK_939           005c5d48     part_io_f:meteo1.obj
 0003:00028d7c       __STRLITPACK_938           005c5d7c     part_io_f:meteo1.obj
 0003:00028db0       __STRLITPACK_937           005c5db0     part_io_f:meteo1.obj
 0003:00028de4       __STRLITPACK_936           005c5de4     part_io_f:meteo1.obj
 0003:00028e18       __STRLITPACK_935           005c5e18     part_io_f:meteo1.obj
 0003:00028e4c       __STRLITPACK_934           005c5e4c     part_io_f:meteo1.obj
 0003:00028e80       __STRLITPACK_933           005c5e80     part_io_f:meteo1.obj
 0003:00028eb4       __STRLITPACK_932           005c5eb4     part_io_f:meteo1.obj
 0003:00028ee8       __STRLITPACK_931           005c5ee8     part_io_f:meteo1.obj
 0003:00028f1c       __STRLITPACK_930           005c5f1c     part_io_f:meteo1.obj
 0003:00028f50       __STRLITPACK_929           005c5f50     part_io_f:meteo1.obj
 0003:00028f84       __STRLITPACK_928           005c5f84     part_io_f:meteo1.obj
 0003:00028fb8       __STRLITPACK_927           005c5fb8     part_io_f:meteo1.obj
 0003:00028fec       __STRLITPACK_926           005c5fec     part_io_f:meteo1.obj
 0003:00029020       __STRLITPACK_925           005c6020     part_io_f:meteo1.obj
 0003:00029054       __STRLITPACK_924           005c6054     part_io_f:meteo1.obj
 0003:00029088       __STRLITPACK_923           005c6088     part_io_f:meteo1.obj
 0003:000290bc       __STRLITPACK_922           005c60bc     part_io_f:meteo1.obj
 0003:000290f0       __STRLITPACK_921           005c60f0     part_io_f:meteo1.obj
 0003:00029124       __STRLITPACK_920           005c6124     part_io_f:meteo1.obj
 0003:00029158       __STRLITPACK_919           005c6158     part_io_f:meteo1.obj
 0003:0002918c       __STRLITPACK_918           005c618c     part_io_f:meteo1.obj
 0003:000291c0       __STRLITPACK_917           005c61c0     part_io_f:meteo1.obj
 0003:000291f4       __STRLITPACK_916           005c61f4     part_io_f:meteo1.obj
 0003:00029228       __STRLITPACK_915           005c6228     part_io_f:meteo1.obj
 0003:0002925c       __STRLITPACK_914           005c625c     part_io_f:meteo1.obj
 0003:00029290       __STRLITPACK_913           005c6290     part_io_f:meteo1.obj
 0003:000292c4       __STRLITPACK_912           005c62c4     part_io_f:meteo1.obj
 0003:000292f8       __STRLITPACK_911           005c62f8     part_io_f:meteo1.obj
 0003:0002932c       __STRLITPACK_910           005c632c     part_io_f:meteo1.obj
 0003:00029360       __STRLITPACK_909           005c6360     part_io_f:meteo1.obj
 0003:00029394       __STRLITPACK_908           005c6394     part_io_f:meteo1.obj
 0003:000293c8       __STRLITPACK_907           005c63c8     part_io_f:meteo1.obj
 0003:000293fc       __STRLITPACK_906           005c63fc     part_io_f:meteo1.obj
 0003:00029430       __STRLITPACK_905           005c6430     part_io_f:meteo1.obj
 0003:00029464       __STRLITPACK_904           005c6464     part_io_f:meteo1.obj
 0003:00029498       __STRLITPACK_903           005c6498     part_io_f:meteo1.obj
 0003:000294cc       __STRLITPACK_902           005c64cc     part_io_f:meteo1.obj
 0003:00029500       __STRLITPACK_901           005c6500     part_io_f:meteo1.obj
 0003:00029534       __STRLITPACK_900           005c6534     part_io_f:meteo1.obj
 0003:00029568       __STRLITPACK_899           005c6568     part_io_f:meteo1.obj
 0003:0002959c       __STRLITPACK_898           005c659c     part_io_f:meteo1.obj
 0003:000295d0       __STRLITPACK_897           005c65d0     part_io_f:meteo1.obj
 0003:00029604       __STRLITPACK_896           005c6604     part_io_f:meteo1.obj
 0003:00029638       __STRLITPACK_895           005c6638     part_io_f:meteo1.obj
 0003:0002966c       __STRLITPACK_894           005c666c     part_io_f:meteo1.obj
 0003:000296a0       __STRLITPACK_893           005c66a0     part_io_f:meteo1.obj
 0003:000296d4       __STRLITPACK_892           005c66d4     part_io_f:meteo1.obj
 0003:00029708       __STRLITPACK_891           005c6708     part_io_f:meteo1.obj
 0003:0002973c       __STRLITPACK_890           005c673c     part_io_f:meteo1.obj
 0003:00029770       __STRLITPACK_889           005c6770     part_io_f:meteo1.obj
 0003:000297a4       __STRLITPACK_888           005c67a4     part_io_f:meteo1.obj
 0003:000297d8       __STRLITPACK_887           005c67d8     part_io_f:meteo1.obj
 0003:0002980c       __STRLITPACK_886           005c680c     part_io_f:meteo1.obj
 0003:00029840       __STRLITPACK_885           005c6840     part_io_f:meteo1.obj
 0003:00029874       __STRLITPACK_884           005c6874     part_io_f:meteo1.obj
 0003:000298a8       __STRLITPACK_883           005c68a8     part_io_f:meteo1.obj
 0003:000298dc       __STRLITPACK_882           005c68dc     part_io_f:meteo1.obj
 0003:00029910       __STRLITPACK_881           005c6910     part_io_f:meteo1.obj
 0003:00029944       __STRLITPACK_880           005c6944     part_io_f:meteo1.obj
 0003:00029978       __STRLITPACK_879           005c6978     part_io_f:meteo1.obj
 0003:000299ac       __STRLITPACK_878           005c69ac     part_io_f:meteo1.obj
 0003:000299e0       __STRLITPACK_877           005c69e0     part_io_f:meteo1.obj
 0003:00029a14       __STRLITPACK_876           005c6a14     part_io_f:meteo1.obj
 0003:00029a48       __STRLITPACK_207           005c6a48     part_io_f:meteo1.obj
 0003:00029a60       __STRLITPACK_202           005c6a60     part_io_f:meteo1.obj
 0003:00029a64       __STRLITPACK_201           005c6a64     part_io_f:meteo1.obj
 0003:00029a68       __STRLITPACK_200           005c6a68     part_io_f:meteo1.obj
 0003:00029a6c       __STRLITPACK_199           005c6a6c     part_io_f:meteo1.obj
 0003:00029a70       __STRLITPACK_198           005c6a70     part_io_f:meteo1.obj
 0003:00029a78       __STRLITPACK_203           005c6a78     part_io_f:meteo1.obj
 0003:00029aa0       __STRLITPACK_1508          005c6aa0     part_io_f:meteo1.obj
 0003:00029ac4       __STRLITPACK_1363          005c6ac4     part_io_f:meteo1.obj
 0003:00029ac8       __STRLITPACK_1364          005c6ac8     part_io_f:meteo1.obj
 0003:00029ae0       __STRLITPACK_9.0.2         005c6ae0     part_io_f:genfil.obj
 0003:00029ae8       __STRLITPACK_10.0.2        005c6ae8     part_io_f:genfil.obj
 0003:00029af0       _2il0floatpacket.0         005c6af0     part_io_f:genfil.obj
 0003:00029af8       __STRLITPACK_8             005c6af8     part_io_f:genfil.obj
 0003:00029b00       __STRLITPACK_7             005c6b00     part_io_f:genfil.obj
 0003:00029b04       __STRLITPACK_6             005c6b04     part_io_f:genfil.obj
 0003:00029b08       __STRLITPACK_2             005c6b08     part_io_f:genfil.obj
 0003:00029b10       __STRLITPACK_50.0.2        005c6b10     part_io_f:rdhyd.obj
 0003:00029b20       __STRLITPACK_51.0.2        005c6b20     part_io_f:rdhyd.obj
 0003:00029b28       __STRLITPACK_52.0.2        005c6b28     part_io_f:rdhyd.obj
 0003:00029b30       __STRLITPACK_53.0.2        005c6b30     part_io_f:rdhyd.obj
 0003:00029b38       __STRLITPACK_54.0.2        005c6b38     part_io_f:rdhyd.obj
 0003:00029b40       __STRLITPACK_55.0.2        005c6b40     part_io_f:rdhyd.obj
 0003:00029b48       __STRLITPACK_56.0.2        005c6b48     part_io_f:rdhyd.obj
 0003:00029b50       __STRLITPACK_57.0.2        005c6b50     part_io_f:rdhyd.obj
 0003:00029b58       __STRLITPACK_58.0.2        005c6b58     part_io_f:rdhyd.obj
 0003:00029b60       __STRLITPACK_59.0.2        005c6b60     part_io_f:rdhyd.obj
 0003:00029b68       __STRLITPACK_60.0.2        005c6b68     part_io_f:rdhyd.obj
 0003:00029b70       __STRLITPACK_61.0.2        005c6b70     part_io_f:rdhyd.obj
 0003:00029b78       __STRLITPACK_62.0.2        005c6b78     part_io_f:rdhyd.obj
 0003:00029b80       __STRLITPACK_63.0.2        005c6b80     part_io_f:rdhyd.obj
 0003:00029b88       __STRLITPACK_64.0.2        005c6b88     part_io_f:rdhyd.obj
 0003:00029b90       __STRLITPACK_65.0.2        005c6b90     part_io_f:rdhyd.obj
 0003:00029b98       __STRLITPACK_66.0.2        005c6b98     part_io_f:rdhyd.obj
 0003:00029ba0       __STRLITPACK_67.0.2        005c6ba0     part_io_f:rdhyd.obj
 0003:00029ba8       __STRLITPACK_68.0.2        005c6ba8     part_io_f:rdhyd.obj
 0003:00029bb0       __STRLITPACK_69.0.2        005c6bb0     part_io_f:rdhyd.obj
 0003:00029bb8       __STRLITPACK_70.0.2        005c6bb8     part_io_f:rdhyd.obj
 0003:00029bc0       __STRLITPACK_71.0.2        005c6bc0     part_io_f:rdhyd.obj
 0003:00029bc8       __STRLITPACK_72.0.2        005c6bc8     part_io_f:rdhyd.obj
 0003:00029bd0       __STRLITPACK_73.0.2        005c6bd0     part_io_f:rdhyd.obj
 0003:00029bd8       __STRLITPACK_74.0.2        005c6bd8     part_io_f:rdhyd.obj
 0003:00029be0       __STRLITPACK_75.0.2        005c6be0     part_io_f:rdhyd.obj
 0003:00029be8       __STRLITPACK_76.0.2        005c6be8     part_io_f:rdhyd.obj
 0003:00029bf0       __STRLITPACK_77.0.2        005c6bf0     part_io_f:rdhyd.obj
 0003:00029bf8       __STRLITPACK_78.0.2        005c6bf8     part_io_f:rdhyd.obj
 0003:00029c00       __STRLITPACK_79.0.2        005c6c00     part_io_f:rdhyd.obj
 0003:00029c08       __STRLITPACK_80.0.2        005c6c08     part_io_f:rdhyd.obj
 0003:00029c10       __STRLITPACK_81.0.2        005c6c10     part_io_f:rdhyd.obj
 0003:00029c18       __STRLITPACK_82.0.2        005c6c18     part_io_f:rdhyd.obj
 0003:00029c20       __STRLITPACK_83.0.2        005c6c20     part_io_f:rdhyd.obj
 0003:00029c28       __STRLITPACK_84.0.2        005c6c28     part_io_f:rdhyd.obj
 0003:00029c30       __STRLITPACK_85.0.2        005c6c30     part_io_f:rdhyd.obj
 0003:00029c38       __STRLITPACK_86.0.2        005c6c38     part_io_f:rdhyd.obj
 0003:00029c40       __STRLITPACK_88.0.2        005c6c40     part_io_f:rdhyd.obj
 0003:00029c48       __STRLITPACK_89.0.2        005c6c48     part_io_f:rdhyd.obj
 0003:00029c50       __STRLITPACK_90.0.2        005c6c50     part_io_f:rdhyd.obj
 0003:00029c58       __STRLITPACK_91.0.2        005c6c58     part_io_f:rdhyd.obj
 0003:00029c60       __STRLITPACK_92.0.2        005c6c60     part_io_f:rdhyd.obj
 0003:00029c68       __STRLITPACK_93.0.2        005c6c68     part_io_f:rdhyd.obj
 0003:00029c70       __STRLITPACK_94.0.2        005c6c70     part_io_f:rdhyd.obj
 0003:00029c78       __STRLITPACK_95.0.2        005c6c78     part_io_f:rdhyd.obj
 0003:00029c80       __STRLITPACK_96.0.2        005c6c80     part_io_f:rdhyd.obj
 0003:00029c88       __STRLITPACK_97.0.2        005c6c88     part_io_f:rdhyd.obj
 0003:00029c90       __STRLITPACK_98.0.2        005c6c90     part_io_f:rdhyd.obj
 0003:00029c98       __STRLITPACK_99.0.2        005c6c98     part_io_f:rdhyd.obj
 0003:00029ca0       __STRLITPACK_100.0.2       005c6ca0     part_io_f:rdhyd.obj
 0003:00029ca8       __STRLITPACK_101.0.2       005c6ca8     part_io_f:rdhyd.obj
 0003:00029cb0       __STRLITPACK_102.0.2       005c6cb0     part_io_f:rdhyd.obj
 0003:00029cb8       __STRLITPACK_103.0.2       005c6cb8     part_io_f:rdhyd.obj
 0003:00029cc0       __STRLITPACK_104.0.2       005c6cc0     part_io_f:rdhyd.obj
 0003:00029cc8       __NLITPACK_0.0.2           005c6cc8     part_io_f:rdhyd.obj
 0003:00029ccc       __STRLITPACK_105.0.2       005c6ccc     part_io_f:rdhyd.obj
 0003:00029cd4       __STRLITPACK_106.0.2       005c6cd4     part_io_f:rdhyd.obj
 0003:00029cdc       __STRLITPACK_87.0.2        005c6cdc     part_io_f:rdhyd.obj
 0003:00029ce8       _2il0floatpacket.16        005c6ce8     part_io_f:rdhyd.obj
 0003:00029cf0       _2il0floatpacket.17        005c6cf0     part_io_f:rdhyd.obj
 0003:00029cf8       _2il0floatpacket.18        005c6cf8     part_io_f:rdhyd.obj
 0003:00029d00       _2il0floatpacket.19        005c6d00     part_io_f:rdhyd.obj
 0003:00029d08       _2il0floatpacket.20        005c6d08     part_io_f:rdhyd.obj
 0003:00029d10       _2il0floatpacket.21        005c6d10     part_io_f:rdhyd.obj
 0003:00029d18       _2il0floatpacket.22        005c6d18     part_io_f:rdhyd.obj
 0003:00029d20       _2il0floatpacket.23        005c6d20     part_io_f:rdhyd.obj
 0003:00029d28       _2il0floatpacket.24        005c6d28     part_io_f:rdhyd.obj
 0003:00029d30       _2il0floatpacket.25        005c6d30     part_io_f:rdhyd.obj
 0003:00029d38       _2il0floatpacket.26        005c6d38     part_io_f:rdhyd.obj
 0003:00029d40       _2il0floatpacket.27        005c6d40     part_io_f:rdhyd.obj
 0003:00029d48       _2il0floatpacket.28        005c6d48     part_io_f:rdhyd.obj
 0003:00029d50       _2il0floatpacket.29        005c6d50     part_io_f:rdhyd.obj
 0003:00029d58       _2il0floatpacket.30        005c6d58     part_io_f:rdhyd.obj
 0003:00029d60       _2il0floatpacket.31        005c6d60     part_io_f:rdhyd.obj
 0003:00029d68       _2il0floatpacket.32        005c6d68     part_io_f:rdhyd.obj
 0003:00029d6c       _2il0floatpacket.33        005c6d6c     part_io_f:rdhyd.obj
 0003:00029d70       _2il0floatpacket.34        005c6d70     part_io_f:rdhyd.obj
 0003:00029d74       _2il0floatpacket.35        005c6d74     part_io_f:rdhyd.obj
 0003:00029d78       _2il0floatpacket.36        005c6d78     part_io_f:rdhyd.obj
 0003:00029d7c       __STRLITPACK_49            005c6d7c     part_io_f:rdhyd.obj
 0003:00029d84       __STRLITPACK_48            005c6d84     part_io_f:rdhyd.obj
 0003:00029d88       __STRLITPACK_47            005c6d88     part_io_f:rdhyd.obj
 0003:00029d8c       __STRLITPACK_44            005c6d8c     part_io_f:rdhyd.obj
 0003:00029d90       __STRLITPACK_41            005c6d90     part_io_f:rdhyd.obj
 0003:00029da4       __STRLITPACK_40            005c6da4     part_io_f:rdhyd.obj
 0003:00029dc0       __STRLITPACK_39            005c6dc0     part_io_f:rdhyd.obj
 0003:00029ddc       __STRLITPACK_38            005c6ddc     part_io_f:rdhyd.obj
 0003:00029df0       __STRLITPACK_37            005c6df0     part_io_f:rdhyd.obj
 0003:00029e00       __STRLITPACK_36            005c6e00     part_io_f:rdhyd.obj
 0003:00029e08       __STRLITPACK_35            005c6e08     part_io_f:rdhyd.obj
 0003:00029e1c       __STRLITPACK_34            005c6e1c     part_io_f:rdhyd.obj
 0003:00029e24       __STRLITPACK_33            005c6e24     part_io_f:rdhyd.obj
 0003:00029e38       __STRLITPACK_32            005c6e38     part_io_f:rdhyd.obj
 0003:00029e40       __STRLITPACK_31            005c6e40     part_io_f:rdhyd.obj
 0003:00029e50       __STRLITPACK_30            005c6e50     part_io_f:rdhyd.obj
 0003:00029e58       __STRLITPACK_29            005c6e58     part_io_f:rdhyd.obj
 0003:00029e6c       __STRLITPACK_28            005c6e6c     part_io_f:rdhyd.obj
 0003:00029e74       __STRLITPACK_27            005c6e74     part_io_f:rdhyd.obj
 0003:00029e8c       __STRLITPACK_26            005c6e8c     part_io_f:rdhyd.obj
 0003:00029e94       __STRLITPACK_24            005c6e94     part_io_f:rdhyd.obj
 0003:00029eb4       __STRLITPACK_22            005c6eb4     part_io_f:rdhyd.obj
 0003:00029ee4       __STRLITPACK_21            005c6ee4     part_io_f:rdhyd.obj
 0003:00029ef0       __STRLITPACK_18            005c6ef0     part_io_f:rdhyd.obj
 0003:00029efc       __STRLITPACK_14            005c6efc     part_io_f:rdhyd.obj
 0003:00029f00       __STRLITPACK_13            005c6f00     part_io_f:rdhyd.obj
 0003:00029f08       __STRLITPACK_10            005c6f08     part_io_f:rdhyd.obj
 0003:00029f18       __STRLITPACK_9             005c6f18     part_io_f:rdhyd.obj
 0003:00029f2c       __STRLITPACK_6             005c6f2c     part_io_f:rdhyd.obj
 0003:00029f40       __STRLITPACK_4             005c6f40     part_io_f:rdhyd.obj
 0003:00029f60       __STRLITPACK_2             005c6f60     part_io_f:rdhyd.obj
 0003:00029f84       __STRLITPACK_11            005c6f84     part_io_f:rdhyd.obj
 0003:00029fa8       __STRLITPACK_0             005c6fa8     part_io_f:dd_prepare.obj
 0003:00029fb4       __STRLITPACK_27.0.1        005c6fb4     part_io_f:dlwqtd.obj
 0003:00029fbc       __STRLITPACK_28.0.1        005c6fbc     part_io_f:dlwqtd.obj
 0003:00029fc4       __STRLITPACK_33.0.1        005c6fc4     part_io_f:dlwqtd.obj
 0003:00029fcc       __STRLITPACK_34.0.1        005c6fcc     part_io_f:dlwqtd.obj
 0003:00029fd4       __STRLITPACK_35.0.1        005c6fd4     part_io_f:dlwqtd.obj
 0003:00029fdc       __STRLITPACK_36.0.1        005c6fdc     part_io_f:dlwqtd.obj
 0003:00029fe4       __STRLITPACK_37.0.1        005c6fe4     part_io_f:dlwqtd.obj
 0003:00029fec       __STRLITPACK_29.0.1        005c6fec     part_io_f:dlwqtd.obj
 0003:00029ff4       __STRLITPACK_30.0.1        005c6ff4     part_io_f:dlwqtd.obj
 0003:00029ffc       __STRLITPACK_31.0.1        005c6ffc     part_io_f:dlwqtd.obj
 0003:0002a004       __STRLITPACK_32.0.1        005c7004     part_io_f:dlwqtd.obj
 0003:0002a00c       __NLITPACK_0.0.1           005c700c     part_io_f:dlwqtd.obj
 0003:0002a010       __STRLITPACK_38.0.1        005c7010     part_io_f:dlwqtd.obj
 0003:0002a018       __STRLITPACK_39.0.1        005c7018     part_io_f:dlwqtd.obj
 0003:0002a020       __STRLITPACK_40.0.1        005c7020     part_io_f:dlwqtd.obj
 0003:0002a028       __STRLITPACK_41.0.1        005c7028     part_io_f:dlwqtd.obj
 0003:0002a030       __STRLITPACK_42.0.1        005c7030     part_io_f:dlwqtd.obj
 0003:0002a038       __STRLITPACK_43.0.1        005c7038     part_io_f:dlwqtd.obj
 0003:0002a040       __STRLITPACK_44.0.1        005c7040     part_io_f:dlwqtd.obj
 0003:0002a048       __STRLITPACK_45.0.1        005c7048     part_io_f:dlwqtd.obj
 0003:0002a050       __STRLITPACK_46.0.1        005c7050     part_io_f:dlwqtd.obj
 0003:0002a058       __STRLITPACK_47.0.1        005c7058     part_io_f:dlwqtd.obj
 0003:0002a060       __STRLITPACK_48.0.1        005c7060     part_io_f:dlwqtd.obj
 0003:0002a068       __STRLITPACK_23.0.1        005c7068     part_io_f:dlwqtd.obj
 0003:0002a070       __STRLITPACK_24.0.1        005c7070     part_io_f:dlwqtd.obj
 0003:0002a078       __STRLITPACK_25.0.1        005c7078     part_io_f:dlwqtd.obj
 0003:0002a080       __STRLITPACK_26.0.1        005c7080     part_io_f:dlwqtd.obj
 0003:0002a088       __STRLITPACK_18            005c7088     part_io_f:dlwqtd.obj
 0003:0002a090       __STRLITPACK_29.0.1        005c7090     part_io_f:dlwqfl.obj
 0003:0002a098       __STRLITPACK_30.0.1        005c7098     part_io_f:dlwqfl.obj
 0003:0002a0a0       __STRLITPACK_31.0.1        005c70a0     part_io_f:dlwqfl.obj
 0003:0002a0a8       __STRLITPACK_32.0.1        005c70a8     part_io_f:dlwqfl.obj
 0003:0002a0b0       __STRLITPACK_35.0.1        005c70b0     part_io_f:dlwqfl.obj
 0003:0002a0b8       __STRLITPACK_36.0.1        005c70b8     part_io_f:dlwqfl.obj
 0003:0002a0c0       __STRLITPACK_37.0.1        005c70c0     part_io_f:dlwqfl.obj
 0003:0002a0c8       __STRLITPACK_38.0.1        005c70c8     part_io_f:dlwqfl.obj
 0003:0002a0d0       __STRLITPACK_39.0.1        005c70d0     part_io_f:dlwqfl.obj
 0003:0002a0d8       __STRLITPACK_33.0.1        005c70d8     part_io_f:dlwqfl.obj
 0003:0002a0e0       __STRLITPACK_34.0.1        005c70e0     part_io_f:dlwqfl.obj
 0003:0002a0e8       __NLITPACK_0.0.1           005c70e8     part_io_f:dlwqfl.obj
 0003:0002a0ec       __STRLITPACK_40.0.1        005c70ec     part_io_f:dlwqfl.obj
 0003:0002a0f4       __STRLITPACK_41.0.1        005c70f4     part_io_f:dlwqfl.obj
 0003:0002a0fc       __STRLITPACK_42.0.1        005c70fc     part_io_f:dlwqfl.obj
 0003:0002a104       __STRLITPACK_43.0.1        005c7104     part_io_f:dlwqfl.obj
 0003:0002a10c       __STRLITPACK_44.0.1        005c710c     part_io_f:dlwqfl.obj
 0003:0002a114       __STRLITPACK_45.0.1        005c7114     part_io_f:dlwqfl.obj
 0003:0002a11c       __STRLITPACK_46.0.1        005c711c     part_io_f:dlwqfl.obj
 0003:0002a124       __STRLITPACK_47.0.1        005c7124     part_io_f:dlwqfl.obj
 0003:0002a12c       __STRLITPACK_48.0.1        005c712c     part_io_f:dlwqfl.obj
 0003:0002a134       __STRLITPACK_49.0.1        005c7134     part_io_f:dlwqfl.obj
 0003:0002a13c       __STRLITPACK_50.0.1        005c713c     part_io_f:dlwqfl.obj
 0003:0002a144       __STRLITPACK_27.0.1        005c7144     part_io_f:dlwqfl.obj
 0003:0002a14c       __STRLITPACK_28.0.1        005c714c     part_io_f:dlwqfl.obj
 0003:0002a154       __STRLITPACK_22            005c7154     part_io_f:dlwqfl.obj
 0003:0002a15c       __STRLITPACK_20            005c715c     part_io_f:dlwqfl.obj
 0003:0002a18c       __STRLITPACK_18            005c718c     part_io_f:dlwqfl.obj
 0003:0002a1b8       __STRLITPACK_29.0.1        005c71b8     part_io_f:dlwqbl.obj
 0003:0002a1c0       __STRLITPACK_30.0.1        005c71c0     part_io_f:dlwqbl.obj
 0003:0002a1c8       __STRLITPACK_31.0.1        005c71c8     part_io_f:dlwqbl.obj
 0003:0002a1d0       __STRLITPACK_32.0.1        005c71d0     part_io_f:dlwqbl.obj
 0003:0002a1d8       __STRLITPACK_33.0.1        005c71d8     part_io_f:dlwqbl.obj
 0003:0002a1e0       __STRLITPACK_34.0.1        005c71e0     part_io_f:dlwqbl.obj
 0003:0002a1e8       __STRLITPACK_35.0.1        005c71e8     part_io_f:dlwqbl.obj
 0003:0002a1f0       __STRLITPACK_36.0.1        005c71f0     part_io_f:dlwqbl.obj
 0003:0002a1f8       __STRLITPACK_39.0.1        005c71f8     part_io_f:dlwqbl.obj
 0003:0002a200       __STRLITPACK_40.0.1        005c7200     part_io_f:dlwqbl.obj
 0003:0002a208       __STRLITPACK_41.0.1        005c7208     part_io_f:dlwqbl.obj
 0003:0002a210       __STRLITPACK_42.0.1        005c7210     part_io_f:dlwqbl.obj
 0003:0002a218       __STRLITPACK_43.0.1        005c7218     part_io_f:dlwqbl.obj
 0003:0002a220       __STRLITPACK_37.0.1        005c7220     part_io_f:dlwqbl.obj
 0003:0002a228       __STRLITPACK_38.0.1        005c7228     part_io_f:dlwqbl.obj
 0003:0002a230       __NLITPACK_0.0.1           005c7230     part_io_f:dlwqbl.obj
 0003:0002a234       __STRLITPACK_44.0.1        005c7234     part_io_f:dlwqbl.obj
 0003:0002a23c       __STRLITPACK_45.0.1        005c723c     part_io_f:dlwqbl.obj
 0003:0002a244       __STRLITPACK_46.0.1        005c7244     part_io_f:dlwqbl.obj
 0003:0002a24c       __STRLITPACK_47.0.1        005c724c     part_io_f:dlwqbl.obj
 0003:0002a254       __STRLITPACK_48.0.1        005c7254     part_io_f:dlwqbl.obj
 0003:0002a25c       __STRLITPACK_49.0.1        005c725c     part_io_f:dlwqbl.obj
 0003:0002a264       __STRLITPACK_50.0.1        005c7264     part_io_f:dlwqbl.obj
 0003:0002a26c       __STRLITPACK_51.0.1        005c726c     part_io_f:dlwqbl.obj
 0003:0002a274       __STRLITPACK_52.0.1        005c7274     part_io_f:dlwqbl.obj
 0003:0002a27c       __STRLITPACK_53.0.1        005c727c     part_io_f:dlwqbl.obj
 0003:0002a284       __STRLITPACK_54.0.1        005c7284     part_io_f:dlwqbl.obj
 0003:0002a28c       __STRLITPACK_27.0.1        005c728c     part_io_f:dlwqbl.obj
 0003:0002a294       __STRLITPACK_28.0.1        005c7294     part_io_f:dlwqbl.obj
 0003:0002a29c       __STRLITPACK_22            005c729c     part_io_f:dlwqbl.obj
 0003:0002a2a4       __STRLITPACK_20            005c72a4     part_io_f:dlwqbl.obj
 0003:0002a2d4       __STRLITPACK_18            005c72d4     part_io_f:dlwqbl.obj
 0003:0002a300       __STRLITPACK_11.0.1        005c7300     part_io_f:rdwnd.obj
 0003:0002a310       __NLITPACK_0.0.1           005c7310     part_io_f:rdwnd.obj
 0003:0002a314       __STRLITPACK_24.0.1        005c7314     part_io_f:rdwnd.obj
 0003:0002a318       __STRLITPACK_25.0.1        005c7318     part_io_f:rdwnd.obj
 0003:0002a320       __NLITPACK_1.0.1           005c7320     part_io_f:rdwnd.obj
 0003:0002a324       __STRLITPACK_22.0.1        005c7324     part_io_f:rdwnd.obj
 0003:0002a328       __STRLITPACK_23.0.1        005c7328     part_io_f:rdwnd.obj
 0003:0002a330       __STRLITPACK_20.0.1        005c7330     part_io_f:rdwnd.obj
 0003:0002a334       __STRLITPACK_21.0.1        005c7334     part_io_f:rdwnd.obj
 0003:0002a33c       __STRLITPACK_18.0.1        005c733c     part_io_f:rdwnd.obj
 0003:0002a340       __STRLITPACK_19.0.1        005c7340     part_io_f:rdwnd.obj
 0003:0002a348       __STRLITPACK_16.0.1        005c7348     part_io_f:rdwnd.obj
 0003:0002a34c       __STRLITPACK_17.0.1        005c734c     part_io_f:rdwnd.obj
 0003:0002a354       __STRLITPACK_14.0.1        005c7354     part_io_f:rdwnd.obj
 0003:0002a358       __STRLITPACK_15.0.1        005c7358     part_io_f:rdwnd.obj
 0003:0002a360       __STRLITPACK_12.0.1        005c7360     part_io_f:rdwnd.obj
 0003:0002a364       __STRLITPACK_13.0.1        005c7364     part_io_f:rdwnd.obj
 0003:0002a380       _2il0floatpacket.1         005c7380     part_io_f:rdwnd.obj
 0003:0002a390       _2il0floatpacket.0         005c7390     part_io_f:rdwnd.obj
 0003:0002a398       _2il0floatpacket.2         005c7398     part_io_f:rdwnd.obj
 0003:0002a3a0       _2il0floatpacket.3         005c73a0     part_io_f:rdwnd.obj
 0003:0002a3a8       __STRLITPACK_9             005c73a8     part_io_f:rdwnd.obj
 0003:0002a3b0       __STRLITPACK_8             005c73b0     part_io_f:rdwnd.obj
 0003:0002a3b8       __STRLITPACK_10            005c73b8     part_io_f:rdwnd.obj
 0003:0002a3c0       __STRLITPACK_0             005c73c0     part_io_f:filldm.obj
 0003:0002a3d0       __NLITPACK_0.0.2           005c73d0     part_io_f:putget.obj
 0003:0002a3d4       __STRLITPACK_72.0.2        005c73d4     part_io_f:putget.obj
 0003:0002a3dc       __NLITPACK_1.0.2           005c73dc     part_io_f:putget.obj
 0003:0002a3e0       __NLITPACK_2.0.3           005c73e0     part_io_f:putget.obj
 0003:0002a3e4       __STRLITPACK_73.0.3        005c73e4     part_io_f:putget.obj
 0003:0002a3ec       __NLITPACK_3.0.3           005c73ec     part_io_f:putget.obj
 0003:0002a3f0       __NLITPACK_4.0.4           005c73f0     part_io_f:putget.obj
 0003:0002a3f4       __STRLITPACK_74.0.4        005c73f4     part_io_f:putget.obj
 0003:0002a3fc       __NLITPACK_5.0.4           005c73fc     part_io_f:putget.obj
 0003:0002a400       __NLITPACK_6.0.5           005c7400     part_io_f:putget.obj
 0003:0002a404       __STRLITPACK_75.0.5        005c7404     part_io_f:putget.obj
 0003:0002a40c       __NLITPACK_7.0.5           005c740c     part_io_f:putget.obj
 0003:0002a410       __NLITPACK_8.0.6           005c7410     part_io_f:putget.obj
 0003:0002a414       __STRLITPACK_76.0.6        005c7414     part_io_f:putget.obj
 0003:0002a41c       __NLITPACK_9.0.6           005c741c     part_io_f:putget.obj
 0003:0002a420       __NLITPACK_10.0.7          005c7420     part_io_f:putget.obj
 0003:0002a424       __STRLITPACK_77.0.7        005c7424     part_io_f:putget.obj
 0003:0002a42c       __NLITPACK_11.0.7          005c742c     part_io_f:putget.obj
 0003:0002a430       __NLITPACK_12.0.8          005c7430     part_io_f:putget.obj
 0003:0002a434       __NLITPACK_13.0.8          005c7434     part_io_f:putget.obj
 0003:0002a438       __NLITPACK_14.0.9          005c7438     part_io_f:putget.obj
 0003:0002a43c       __NLITPACK_15.0.9          005c743c     part_io_f:putget.obj
 0003:0002a440       _2il0floatpacket.0         005c7440     part_io_f:putget.obj
 0003:0002a450       _2il0floatpacket.1         005c7450     part_io_f:putget.obj
 0003:0002a460       _2il0floatpacket.2         005c7460     part_io_f:putget.obj
 0003:0002a468       _2il0floatpacket.3         005c7468     part_io_f:putget.obj
 0003:0002a470       _2il0floatpacket.4         005c7470     part_io_f:putget.obj
 0003:0002a478       __STRLITPACK_71            005c7478     part_io_f:putget.obj
 0003:0002a484       __STRLITPACK_70            005c7484     part_io_f:putget.obj
 0003:0002a488       __STRLITPACK_69            005c7488     part_io_f:putget.obj
 0003:0002a490       __STRLITPACK_68            005c7490     part_io_f:putget.obj
 0003:0002a498       __STRLITPACK_67            005c7498     part_io_f:putget.obj
 0003:0002a49c       __STRLITPACK_66            005c749c     part_io_f:putget.obj
 0003:0002a4a0       __STRLITPACK_63            005c74a0     part_io_f:putget.obj
 0003:0002a4a4       __STRLITPACK_64            005c74a4     part_io_f:putget.obj
 0003:0002a4a8       __STRLITPACK_65            005c74a8     part_io_f:putget.obj
 0003:0002a4ac       __STRLITPACK_62            005c74ac     part_io_f:putget.obj
 0003:0002a4bc       __STRLITPACK_61            005c74bc     part_io_f:putget.obj
 0003:0002a4c0       __STRLITPACK_60            005c74c0     part_io_f:putget.obj
 0003:0002a4c8       __STRLITPACK_59            005c74c8     part_io_f:putget.obj
 0003:0002a4d0       __STRLITPACK_58            005c74d0     part_io_f:putget.obj
 0003:0002a4d4       __STRLITPACK_57            005c74d4     part_io_f:putget.obj
 0003:0002a4d8       __STRLITPACK_54            005c74d8     part_io_f:putget.obj
 0003:0002a4dc       __STRLITPACK_55            005c74dc     part_io_f:putget.obj
 0003:0002a4e0       __STRLITPACK_56            005c74e0     part_io_f:putget.obj
 0003:0002a4e4       __STRLITPACK_52            005c74e4     part_io_f:putget.obj
 0003:0002a4e8       __STRLITPACK_51            005c74e8     part_io_f:putget.obj
 0003:0002a4f0       __STRLITPACK_50            005c74f0     part_io_f:putget.obj
 0003:0002a4f8       __STRLITPACK_49            005c74f8     part_io_f:putget.obj
 0003:0002a4fc       __STRLITPACK_48            005c74fc     part_io_f:putget.obj
 0003:0002a500       __STRLITPACK_45            005c7500     part_io_f:putget.obj
 0003:0002a504       __STRLITPACK_46            005c7504     part_io_f:putget.obj
 0003:0002a508       __STRLITPACK_47            005c7508     part_io_f:putget.obj
 0003:0002a50c       __STRLITPACK_53            005c750c     part_io_f:putget.obj
 0003:0002a51c       __STRLITPACK_44            005c751c     part_io_f:putget.obj
 0003:0002a528       __STRLITPACK_43            005c7528     part_io_f:putget.obj
 0003:0002a52c       __STRLITPACK_42            005c752c     part_io_f:putget.obj
 0003:0002a534       __STRLITPACK_41            005c7534     part_io_f:putget.obj
 0003:0002a53c       __STRLITPACK_40            005c753c     part_io_f:putget.obj
 0003:0002a540       __STRLITPACK_39            005c7540     part_io_f:putget.obj
 0003:0002a544       __STRLITPACK_36            005c7544     part_io_f:putget.obj
 0003:0002a548       __STRLITPACK_37            005c7548     part_io_f:putget.obj
 0003:0002a54c       __STRLITPACK_38            005c754c     part_io_f:putget.obj
 0003:0002a550       __STRLITPACK_35            005c7550     part_io_f:putget.obj
 0003:0002a560       __STRLITPACK_34            005c7560     part_io_f:putget.obj
 0003:0002a564       __STRLITPACK_33            005c7564     part_io_f:putget.obj
 0003:0002a56c       __STRLITPACK_32            005c756c     part_io_f:putget.obj
 0003:0002a574       __STRLITPACK_31            005c7574     part_io_f:putget.obj
 0003:0002a578       __STRLITPACK_30            005c7578     part_io_f:putget.obj
 0003:0002a57c       __STRLITPACK_27            005c757c     part_io_f:putget.obj
 0003:0002a580       __STRLITPACK_28            005c7580     part_io_f:putget.obj
 0003:0002a584       __STRLITPACK_29            005c7584     part_io_f:putget.obj
 0003:0002a588       __STRLITPACK_25            005c7588     part_io_f:putget.obj
 0003:0002a58c       __STRLITPACK_24            005c758c     part_io_f:putget.obj
 0003:0002a594       __STRLITPACK_23            005c7594     part_io_f:putget.obj
 0003:0002a59c       __STRLITPACK_22            005c759c     part_io_f:putget.obj
 0003:0002a5a0       __STRLITPACK_21            005c75a0     part_io_f:putget.obj
 0003:0002a5a4       __STRLITPACK_18            005c75a4     part_io_f:putget.obj
 0003:0002a5a8       __STRLITPACK_19            005c75a8     part_io_f:putget.obj
 0003:0002a5ac       __STRLITPACK_20            005c75ac     part_io_f:putget.obj
 0003:0002a5b0       __STRLITPACK_26            005c75b0     part_io_f:putget.obj
 0003:0002a5c0       __STRLITPACK_17            005c75c0     part_io_f:putget.obj
 0003:0002a5cc       __STRLITPACK_16            005c75cc     part_io_f:putget.obj
 0003:0002a5d0       __STRLITPACK_15            005c75d0     part_io_f:putget.obj
 0003:0002a5d8       __STRLITPACK_14            005c75d8     part_io_f:putget.obj
 0003:0002a5e0       __STRLITPACK_13            005c75e0     part_io_f:putget.obj
 0003:0002a5e4       __STRLITPACK_12            005c75e4     part_io_f:putget.obj
 0003:0002a5e8       __STRLITPACK_9             005c75e8     part_io_f:putget.obj
 0003:0002a5ec       __STRLITPACK_10            005c75ec     part_io_f:putget.obj
 0003:0002a5f0       __STRLITPACK_11            005c75f0     part_io_f:putget.obj
 0003:0002a5f4       __STRLITPACK_8             005c75f4     part_io_f:putget.obj
 0003:0002a604       __STRLITPACK_7             005c7604     part_io_f:putget.obj
 0003:0002a608       __STRLITPACK_6             005c7608     part_io_f:putget.obj
 0003:0002a610       __STRLITPACK_5             005c7610     part_io_f:putget.obj
 0003:0002a618       __STRLITPACK_4             005c7618     part_io_f:putget.obj
 0003:0002a61c       __STRLITPACK_3             005c761c     part_io_f:putget.obj
 0003:0002a620       __STRLITPACK_0             005c7620     part_io_f:putget.obj
 0003:0002a624       __STRLITPACK_1             005c7624     part_io_f:putget.obj
 0003:0002a628       __STRLITPACK_2             005c7628     part_io_f:putget.obj
 0003:0002a630       __STRLITPACK_36.0.2        005c7630     part_io_f:dlpr12.obj
 0003:0002a638       __STRLITPACK_37.0.2        005c7638     part_io_f:dlpr12.obj
 0003:0002a640       __STRLITPACK_38.0.2        005c7640     part_io_f:dlpr12.obj
 0003:0002a64c       __NLITPACK_1.0.2           005c764c     part_io_f:dlpr12.obj
 0003:0002a650       __NLITPACK_0.0.2           005c7650     part_io_f:dlpr12.obj
 0003:0002a654       __NLITPACK_3.0.2           005c7654     part_io_f:dlpr12.obj
 0003:0002a658       __NLITPACK_2.0.2           005c7658     part_io_f:dlpr12.obj
 0003:0002a65c       __NLITPACK_4.0.2           005c765c     part_io_f:dlpr12.obj
 0003:0002a660       __NLITPACK_6.0.2           005c7660     part_io_f:dlpr12.obj
 0003:0002a664       __NLITPACK_5.0.2           005c7664     part_io_f:dlpr12.obj
 0003:0002a668       __NLITPACK_7.0.2           005c7668     part_io_f:dlpr12.obj
 0003:0002a66c       __STRLITPACK_39.0.2        005c766c     part_io_f:dlpr12.obj
 0003:0002a670       __STRLITPACK_40.0.2        005c7670     part_io_f:dlpr12.obj
 0003:0002a678       __STRLITPACK_41.0.2        005c7678     part_io_f:dlpr12.obj
 0003:0002a67c       __STRLITPACK_42.0.2        005c767c     part_io_f:dlpr12.obj
 0003:0002a684       __STRLITPACK_43.0.2        005c7684     part_io_f:dlpr12.obj
 0003:0002a68c       __STRLITPACK_44.0.2        005c768c     part_io_f:dlpr12.obj
 0003:0002a690       __STRLITPACK_45.0.2        005c7690     part_io_f:dlpr12.obj
 0003:0002a698       __STRLITPACK_46.0.2        005c7698     part_io_f:dlpr12.obj
 0003:0002a69c       __STRLITPACK_47.0.2        005c769c     part_io_f:dlpr12.obj
 0003:0002a6a0       __STRLITPACK_48.0.2        005c76a0     part_io_f:dlpr12.obj
 0003:0002a6a8       __STRLITPACK_49.0.2        005c76a8     part_io_f:dlpr12.obj
 0003:0002a6b0       __STRLITPACK_50.0.2        005c76b0     part_io_f:dlpr12.obj
 0003:0002a6b4       __STRLITPACK_51.0.2        005c76b4     part_io_f:dlpr12.obj
 0003:0002a6bc       __STRLITPACK_52.0.2        005c76bc     part_io_f:dlpr12.obj
 0003:0002a6c4       __STRLITPACK_53.0.2        005c76c4     part_io_f:dlpr12.obj
 0003:0002a6cc       __STRLITPACK_54.0.2        005c76cc     part_io_f:dlpr12.obj
 0003:0002a6d4       __STRLITPACK_55.0.2        005c76d4     part_io_f:dlpr12.obj
 0003:0002a6dc       __STRLITPACK_56.0.2        005c76dc     part_io_f:dlpr12.obj
 0003:0002a6e4       __STRLITPACK_57.0.2        005c76e4     part_io_f:dlpr12.obj
 0003:0002a6ec       __STRLITPACK_58.0.2        005c76ec     part_io_f:dlpr12.obj
 0003:0002a700       _2__cnst_pck.0             005c7700     part_io_f:dlpr12.obj
 0003:0002a720       _2il0floatpacket.1         005c7720     part_io_f:dlpr12.obj
 0003:0002a728       _2il0floatpacket.2         005c7728     part_io_f:dlpr12.obj
 0003:0002a730       _2il0floatpacket.3         005c7730     part_io_f:dlpr12.obj
 0003:0002a738       _2il0floatpacket.4         005c7738     part_io_f:dlpr12.obj
 0003:0002a740       _2il0floatpacket.5         005c7740     part_io_f:dlpr12.obj
 0003:0002a748       _2il0floatpacket.6         005c7748     part_io_f:dlpr12.obj
 0003:0002a750       _2il0floatpacket.7         005c7750     part_io_f:dlpr12.obj
 0003:0002a758       _2il0floatpacket.8         005c7758     part_io_f:dlpr12.obj
 0003:0002a760       __STRLITPACK_34            005c7760     part_io_f:dlpr12.obj
 0003:0002a768       __STRLITPACK_33            005c7768     part_io_f:dlpr12.obj
 0003:0002a770       __STRLITPACK_32            005c7770     part_io_f:dlpr12.obj
 0003:0002a778       __STRLITPACK_31            005c7778     part_io_f:dlpr12.obj
 0003:0002a784       __STRLITPACK_30            005c7784     part_io_f:dlpr12.obj
 0003:0002a794       __STRLITPACK_29            005c7794     part_io_f:dlpr12.obj
 0003:0002a79c       __STRLITPACK_28            005c779c     part_io_f:dlpr12.obj
 0003:0002a7a8       __STRLITPACK_27            005c77a8     part_io_f:dlpr12.obj
 0003:0002a7b4       __STRLITPACK_26            005c77b4     part_io_f:dlpr12.obj
 0003:0002a7bc       __STRLITPACK_25            005c77bc     part_io_f:dlpr12.obj
 0003:0002a7c8       __STRLITPACK_24            005c77c8     part_io_f:dlpr12.obj
 0003:0002a7d4       __STRLITPACK_23            005c77d4     part_io_f:dlpr12.obj
 0003:0002a7e0       __STRLITPACK_22            005c77e0     part_io_f:dlpr12.obj
 0003:0002a7ec       __STRLITPACK_21            005c77ec     part_io_f:dlpr12.obj
 0003:0002a7f4       __STRLITPACK_20            005c77f4     part_io_f:dlpr12.obj
 0003:0002a7fc       __STRLITPACK_19            005c77fc     part_io_f:dlpr12.obj
 0003:0002a804       __STRLITPACK_18            005c7804     part_io_f:dlpr12.obj
 0003:0002a80c       __STRLITPACK_14            005c780c     part_io_f:dlpr12.obj
 0003:0002a814       __STRLITPACK_13            005c7814     part_io_f:dlpr12.obj
 0003:0002a81c       __STRLITPACK_12            005c781c     part_io_f:dlpr12.obj
 0003:0002a824       __STRLITPACK_11            005c7824     part_io_f:dlpr12.obj
 0003:0002a82c       __STRLITPACK_10            005c782c     part_io_f:dlpr12.obj
 0003:0002a834       __STRLITPACK_35            005c7834     part_io_f:dlpr12.obj
 0003:0002a840       __STRLITPACK_4.0.3         005c7840     part_io_f:meteo1temphelpers.obj
 0003:0002a848       __STRLITPACK_37.0.7        005c7848     part_io_f:meteo1temphelpers.obj
 0003:0002a850       __STRLITPACK_38.0.7        005c7850     part_io_f:meteo1temphelpers.obj
 0003:0002a858       __STRLITPACK_39.0.7        005c7858     part_io_f:meteo1temphelpers.obj
 0003:0002a860       __STRLITPACK_40.0.7        005c7860     part_io_f:meteo1temphelpers.obj
 0003:0002a868       __STRLITPACK_54.0.14       005c7868     part_io_f:meteo1temphelpers.obj
 0003:0002a870       __STRLITPACK_55.0.14       005c7870     part_io_f:meteo1temphelpers.obj
 0003:0002a880       __STRLITPACK_59.0.14       005c7880     part_io_f:meteo1temphelpers.obj
 0003:0002a888       __STRLITPACK_60.0.14       005c7888     part_io_f:meteo1temphelpers.obj
 0003:0002a890       __STRLITPACK_61.0.14       005c7890     part_io_f:meteo1temphelpers.obj
 0003:0002a898       __STRLITPACK_62.0.14       005c7898     part_io_f:meteo1temphelpers.obj
 0003:0002a8a0       __STRLITPACK_56.0.14       005c78a0     part_io_f:meteo1temphelpers.obj
 0003:0002a8b0       __STRLITPACK_57.0.14       005c78b0     part_io_f:meteo1temphelpers.obj
 0003:0002a8b8       __STRLITPACK_58.0.14       005c78b8     part_io_f:meteo1temphelpers.obj
 0003:0002a8c0       __STRLITPACK_73.0.15       005c78c0     part_io_f:meteo1temphelpers.obj
 0003:0002a8c8       __STRLITPACK_74.0.15       005c78c8     part_io_f:meteo1temphelpers.obj
 0003:0002a8dc       __STRLITPACK_75.0.15       005c78dc     part_io_f:meteo1temphelpers.obj
 0003:0002a8e8       __STRLITPACK_76.0.15       005c78e8     part_io_f:meteo1temphelpers.obj
 0003:0002a8f0       __STRLITPACK_77.0.15       005c78f0     part_io_f:meteo1temphelpers.obj
 0003:0002a8f8       __STRLITPACK_78.0.15       005c78f8     part_io_f:meteo1temphelpers.obj
 0003:0002a900       __STRLITPACK_79.0.15       005c7900     part_io_f:meteo1temphelpers.obj
 0003:0002a908       __STRLITPACK_80.0.15       005c7908     part_io_f:meteo1temphelpers.obj
 0003:0002a910       __STRLITPACK_82.0.16       005c7910     part_io_f:meteo1temphelpers.obj
 0003:0002a918       __STRLITPACK_13.0.5        005c7918     part_io_f:meteo1temphelpers.obj
 0003:0002a920       __STRLITPACK_14.0.5        005c7920     part_io_f:meteo1temphelpers.obj
 0003:0002a928       __STRLITPACK_7.0.4         005c7928     part_io_f:meteo1temphelpers.obj
 0003:0002a930       __STRLITPACK_8.0.4         005c7930     part_io_f:meteo1temphelpers.obj
 0003:0002a938       __STRLITPACK_9.0.4         005c7938     part_io_f:meteo1temphelpers.obj
 0003:0002a940       __STRLITPACK_10.0.4        005c7940     part_io_f:meteo1temphelpers.obj
 0003:0002a950       _2il0floatpacket.8         005c7950     part_io_f:meteo1temphelpers.obj
 0003:0002a960       _2il0floatpacket.9         005c7960     part_io_f:meteo1temphelpers.obj
 0003:0002a970       _2il0floatpacket.4         005c7970     part_io_f:meteo1temphelpers.obj
 0003:0002a978       _2il0floatpacket.5         005c7978     part_io_f:meteo1temphelpers.obj
 0003:0002a980       _2il0floatpacket.6         005c7980     part_io_f:meteo1temphelpers.obj
 0003:0002a988       _2il0floatpacket.7         005c7988     part_io_f:meteo1temphelpers.obj
 0003:0002a990       _2il0floatpacket.10        005c7990     part_io_f:meteo1temphelpers.obj
 0003:0002a998       __STRLITPACK_2.0.2         005c7998     part_io_f:meteo1temphelpers.obj
 0003:0002a9a4       __STRLITPACK_26.0.6        005c79a4     part_io_f:meteo1temphelpers.obj
 0003:0002a9ac       __STRLITPACK_22            005c79ac     part_io_f:meteo1temphelpers.obj
 0003:0002a9c4       __STRLITPACK_27.0.6        005c79c4     part_io_f:meteo1temphelpers.obj
 0003:0002a9cc       __STRLITPACK_28.0.6        005c79cc     part_io_f:meteo1temphelpers.obj
 0003:0002a9d4       __STRLITPACK_19            005c79d4     part_io_f:meteo1temphelpers.obj
 0003:0002a9d8       __STRLITPACK_29.0.6        005c79d8     part_io_f:meteo1temphelpers.obj
 0003:0002a9e0       __STRLITPACK_16            005c79e0     part_io_f:meteo1temphelpers.obj
 0003:0002a9e8       __STRLITPACK_30.0.6        005c79e8     part_io_f:meteo1temphelpers.obj
 0003:0002a9f0       __STRLITPACK_31.0.6        005c79f0     part_io_f:meteo1temphelpers.obj
 0003:0002a9f8       __STRLITPACK_15            005c79f8     part_io_f:meteo1temphelpers.obj
 0003:0002aa04       __STRLITPACK_34            005c7a04     part_io_f:meteo1temphelpers.obj
 0003:0002aa08       __STRLITPACK_32            005c7a08     part_io_f:meteo1temphelpers.obj
 0003:0002aa20       __STRLITPACK_41            005c7a20     part_io_f:meteo1temphelpers.obj
 0003:0002aa24       __STRLITPACK_43            005c7a24     part_io_f:meteo1temphelpers.obj
 0003:0002aa40       __STRLITPACK_42            005c7a40     part_io_f:meteo1temphelpers.obj
 0003:0002aa5c       _2il0floatpacket.0         005c7a5c     part_io_f:meteo1temphelpers.obj
 0003:0002aa60       _2il0floatpacket.1         005c7a60     part_io_f:meteo1temphelpers.obj
 0003:0002aa64       _2il0floatpacket.2         005c7a64     part_io_f:meteo1temphelpers.obj
 0003:0002aa68       _2il0floatpacket.3         005c7a68     part_io_f:meteo1temphelpers.obj
 0003:0002aa6c       __STRLITPACK_52            005c7a6c     part_io_f:meteo1temphelpers.obj
 0003:0002aa80       __STRLITPACK_48            005c7a80     part_io_f:meteo1temphelpers.obj
 0003:0002aa94       __STRLITPACK_45            005c7a94     part_io_f:meteo1temphelpers.obj
 0003:0002aa9c       __STRLITPACK_44            005c7a9c     part_io_f:meteo1temphelpers.obj
 0003:0002aaac       __STRLITPACK_50            005c7aac     part_io_f:meteo1temphelpers.obj
 0003:0002aabc       __STRLITPACK_71            005c7abc     part_io_f:meteo1temphelpers.obj
 0003:0002aad0       __STRLITPACK_70            005c7ad0     part_io_f:meteo1temphelpers.obj
 0003:0002aadc       __STRLITPACK_69            005c7adc     part_io_f:meteo1temphelpers.obj
 0003:0002aae0       __STRLITPACK_66            005c7ae0     part_io_f:meteo1temphelpers.obj
 0003:0002aae8       __STRLITPACK_65            005c7ae8     part_io_f:meteo1temphelpers.obj
 0003:0002ab0c       __STRLITPACK_63            005c7b0c     part_io_f:meteo1temphelpers.obj
 0003:0002ab1c       __STRLITPACK_81            005c7b1c     part_io_f:meteo1temphelpers.obj
 0003:0002ab20       __STRLITPACK_83            005c7b20     part_io_f:meteo1temphelpers.obj
 0003:0002ab24       __STRLITPACK_11            005c7b24     part_io_f:meteo1temphelpers.obj
 0003:0002ab4c       __STRLITPACK_5             005c7b4c     part_io_f:meteo1temphelpers.obj
 0003:0002ab60       .T1165_.0.13               005c7b60     part_io_f:malloc.obj
 0003:0002ab70       .T1173_.0.13               005c7b70     part_io_f:malloc.obj
 0003:0002ab80       .T1286_.0.14               005c7b80     part_io_f:malloc.obj
 0003:0002ab90       .T1294_.0.14               005c7b90     part_io_f:malloc.obj
 0003:0002aba0       .T1985_.0.21               005c7ba0     part_io_f:malloc.obj
 0003:0002abb0       .T1993_.0.21               005c7bb0     part_io_f:malloc.obj
 0003:0002abc0       .T2117_.0.22               005c7bc0     part_io_f:malloc.obj
 0003:0002abd0       .T2125_.0.22               005c7bd0     part_io_f:malloc.obj
 0003:0002abe0       .T2793_.0.29               005c7be0     part_io_f:malloc.obj
 0003:0002abf0       .T2801_.0.29               005c7bf0     part_io_f:malloc.obj
 0003:0002ac00       .T2914_.0.30               005c7c00     part_io_f:malloc.obj
 0003:0002ac10       .T2922_.0.30               005c7c10     part_io_f:malloc.obj
 0003:0002ac20       .T3599_.0.37               005c7c20     part_io_f:malloc.obj
 0003:0002ac30       .T3607_.0.37               005c7c30     part_io_f:malloc.obj
 0003:0002ac40       .T3720_.0.38               005c7c40     part_io_f:malloc.obj
 0003:0002ac50       .T3728_.0.38               005c7c50     part_io_f:malloc.obj
 0003:0002ac60       .T4405_.0.45               005c7c60     part_io_f:malloc.obj
 0003:0002ac70       .T4413_.0.45               005c7c70     part_io_f:malloc.obj
 0003:0002ac80       .T4526_.0.46               005c7c80     part_io_f:malloc.obj
 0003:0002ac90       .T4534_.0.46               005c7c90     part_io_f:malloc.obj
 0003:0002aca0       __NLITPACK_0.0.2           005c7ca0     deltares_common:rd_token.obj
 0003:0002aca4       __NLITPACK_1.0.3           005c7ca4     deltares_common:rd_token.obj
 0003:0002aca8       __NLITPACK_2.0.4           005c7ca8     deltares_common:rd_token.obj
 0003:0002acac       __NLITPACK_3.0.5           005c7cac     deltares_common:rd_token.obj
 0003:0002acb0       __NLITPACK_4.0.6           005c7cb0     deltares_common:rd_token.obj
 0003:0002acb4       __NLITPACK_5.0.7           005c7cb4     deltares_common:rd_token.obj
 0003:0002acb8       _2il0floatpacket.0         005c7cb8     deltares_common:rd_token.obj
 0003:0002acc0       .T85_.0.3                  005c7cc0     deltares_common:string_module.obj
 0003:0002ace0       __STRLITPACK_7             005c7ce0     deltares_common:string_module.obj
 0003:0002ada0       _2il0floatpacket.1         005c7da0     deltares_common:string_module.obj
 0003:0002adb0       _2il0floatpacket.2         005c7db0     deltares_common:string_module.obj
 0003:0002adc0       _2il0floatpacket.3         005c7dc0     deltares_common:string_module.obj
 0003:0002add0       _2il0floatpacket.4         005c7dd0     deltares_common:string_module.obj
 0003:0002ade0       _2il0floatpacket.5         005c7de0     deltares_common:string_module.obj
 0003:0002adf0       _2il0floatpacket.6         005c7df0     deltares_common:string_module.obj
 0003:0002ae00       _2il0floatpacket.7         005c7e00     deltares_common:string_module.obj
 0003:0002ae10       _2il0floatpacket.0         005c7e10     deltares_common:string_module.obj
 0003:0002ae18       _2il0floatpacket.8         005c7e18     deltares_common:string_module.obj
 0003:0002ae20       _2il0floatpacket.9         005c7e20     deltares_common:string_module.obj
 0003:0002ae28       __STRLITPACK_8             005c7e28     deltares_common:string_module.obj
 0003:0002ae64       __STRLITPACK_6             005c7e64     deltares_common:string_module.obj
 0003:0002ae68       __STRLITPACK_5             005c7e68     deltares_common:string_module.obj
 0003:0002ae6c       __STRLITPACK_4             005c7e6c     deltares_common:string_module.obj
 0003:0002ae70       __STRLITPACK_3             005c7e70     deltares_common:string_module.obj
 0003:0002ae74       __STRLITPACK_0             005c7e74     deltares_common:string_module.obj
 0003:0002ae78       __STRLITPACK_2             005c7e78     deltares_common:string_module.obj
 0003:0002ae94       __STRLITPACK_1             005c7e94     deltares_common:string_module.obj
 0003:0002aec0       __STRLITPACK_32.0.1        005c7ec0     deltares_common:rdtok1.obj
 0003:0002aec8       __STRLITPACK_33.0.1        005c7ec8     deltares_common:rdtok1.obj
 0003:0002aed0       __STRLITPACK_34.0.1        005c7ed0     deltares_common:rdtok1.obj
 0003:0002aed8       __STRLITPACK_35.0.1        005c7ed8     deltares_common:rdtok1.obj
 0003:0002aee0       __STRLITPACK_36.0.1        005c7ee0     deltares_common:rdtok1.obj
 0003:0002aee8       __NLITPACK_0.0.1           005c7ee8     deltares_common:rdtok1.obj
 0003:0002aeec       __STRLITPACK_27.0.1        005c7eec     deltares_common:rdtok1.obj
 0003:0002aef4       __NLITPACK_1.0.1           005c7ef4     deltares_common:rdtok1.obj
 0003:0002aef8       __STRLITPACK_28.0.1        005c7ef8     deltares_common:rdtok1.obj
 0003:0002aefc       __STRLITPACK_29.0.1        005c7efc     deltares_common:rdtok1.obj
 0003:0002af04       __STRLITPACK_30.0.1        005c7f04     deltares_common:rdtok1.obj
 0003:0002af14       __STRLITPACK_31.0.1        005c7f14     deltares_common:rdtok1.obj
 0003:0002af18       _2il0floatpacket.0         005c7f18     deltares_common:rdtok1.obj
 0003:0002af20       _2il0floatpacket.1         005c7f20     deltares_common:rdtok1.obj
 0003:0002af28       _2il0floatpacket.2         005c7f28     deltares_common:rdtok1.obj
 0003:0002af30       _2il0floatpacket.3         005c7f30     deltares_common:rdtok1.obj
 0003:0002af38       _2il0floatpacket.4         005c7f38     deltares_common:rdtok1.obj
 0003:0002af40       _2il0floatpacket.5         005c7f40     deltares_common:rdtok1.obj
 0003:0002af48       _2il0floatpacket.6         005c7f48     deltares_common:rdtok1.obj
 0003:0002af50       _2il0floatpacket.7         005c7f50     deltares_common:rdtok1.obj
 0003:0002af58       _2il0floatpacket.8         005c7f58     deltares_common:rdtok1.obj
 0003:0002af60       _2il0floatpacket.9         005c7f60     deltares_common:rdtok1.obj
 0003:0002af68       _2il0floatpacket.10        005c7f68     deltares_common:rdtok1.obj
 0003:0002af70       _2il0floatpacket.11        005c7f70     deltares_common:rdtok1.obj
 0003:0002af78       __STRLITPACK_26            005c7f78     deltares_common:rdtok1.obj
 0003:0002af7c       __STRLITPACK_25            005c7f7c     deltares_common:rdtok1.obj
 0003:0002af80       __STRLITPACK_14            005c7f80     deltares_common:rdtok1.obj
 0003:0002af88       __STRLITPACK_9             005c7f88     deltares_common:rdtok1.obj
 0003:0002af8c       __STRLITPACK_8             005c7f8c     deltares_common:rdtok1.obj
 0003:0002af90       __STRLITPACK_10            005c7f90     deltares_common:rdtok1.obj
 0003:0002af94       __STRLITPACK_13            005c7f94     deltares_common:rdtok1.obj
 0003:0002af98       __STRLITPACK_12            005c7f98     deltares_common:rdtok1.obj
 0003:0002af9c       __STRLITPACK_11            005c7f9c     deltares_common:rdtok1.obj
 0003:0002afa0       __STRLITPACK_16            005c7fa0     deltares_common:rdtok1.obj
 0003:0002afc4       __STRLITPACK_15            005c7fc4     deltares_common:rdtok1.obj
 0003:0002afc8       __STRLITPACK_18            005c7fc8     deltares_common:rdtok1.obj
 0003:0002afe8       __STRLITPACK_17            005c7fe8     deltares_common:rdtok1.obj
 0003:0002afec       __STRLITPACK_19            005c7fec     deltares_common:rdtok1.obj
 0003:0002b00c       __STRLITPACK_21            005c800c     deltares_common:rdtok1.obj
 0003:0002b038       __STRLITPACK_20            005c8038     deltares_common:rdtok1.obj
 0003:0002b03c       __STRLITPACK_22            005c803c     deltares_common:rdtok1.obj
 0003:0002b06c       __STRLITPACK_23            005c806c     deltares_common:rdtok1.obj
 0003:0002b0a4       __STRLITPACK_24            005c80a4     deltares_common:rdtok1.obj
 0003:0002b0d8       MESSAGE_MODULE_mp_WRITEMESSAGES$format_pack.0.9 005c80d8     deltares_common:message_module.obj
 0003:0002b0e4       __STRLITPACK_11.0.9        005c80e4     deltares_common:message_module.obj
 0003:0002b0f0       _2il0floatpacket.0         005c80f0     deltares_common:message_module.obj
 0003:0002b0f8       _2il0floatpacket.1         005c80f8     deltares_common:message_module.obj
 0003:0002b100       _2il0floatpacket.2         005c8100     deltares_common:message_module.obj
 0003:0002b108       _2il0floatpacket.3         005c8108     deltares_common:message_module.obj
 0003:0002b110       _2il0floatpacket.4         005c8110     deltares_common:message_module.obj
 0003:0002b118       _2il0floatpacket.5         005c8118     deltares_common:message_module.obj
 0003:0002b120       __STRLITPACK_4             005c8120     deltares_common:message_module.obj
 0003:0002b148       __STRLITPACK_6             005c8148     deltares_common:message_module.obj
 0003:0002b174       __STRLITPACK_5             005c8174     deltares_common:message_module.obj
 0003:0002b1a0       __STRLITPACK_13.0.11       005c81a0     deltares_common:message_module.obj
 0003:0002b1a8       __STRLITPACK_12.0.10       005c81a8     deltares_common:message_module.obj
 0003:0002b1b0       __STRLITPACK_35.0.1        005c81b0     deltares_common:gettok.obj
 0003:0002b1b8       __STRLITPACK_37.0.1        005c81b8     deltares_common:gettok.obj
 0003:0002b1c0       __STRLITPACK_36.0.1        005c81c0     deltares_common:gettok.obj
 0003:0002b1c8       __STRLITPACK_39.0.1        005c81c8     deltares_common:gettok.obj
 0003:0002b1d0       __STRLITPACK_38.0.1        005c81d0     deltares_common:gettok.obj
 0003:0002b1d8       _2il0floatpacket.0         005c81d8     deltares_common:gettok.obj
 0003:0002b1e0       __STRLITPACK_32            005c81e0     deltares_common:gettok.obj
 0003:0002b1e4       __STRLITPACK_31            005c81e4     deltares_common:gettok.obj
 0003:0002b1e8       __STRLITPACK_30            005c81e8     deltares_common:gettok.obj
 0003:0002b1ec       __STRLITPACK_29            005c81ec     deltares_common:gettok.obj
 0003:0002b1f0       __STRLITPACK_28            005c81f0     deltares_common:gettok.obj
 0003:0002b1f4       __STRLITPACK_27            005c81f4     deltares_common:gettok.obj
 0003:0002b1f8       __STRLITPACK_26            005c81f8     deltares_common:gettok.obj
 0003:0002b1fc       __STRLITPACK_25            005c81fc     deltares_common:gettok.obj
 0003:0002b200       __STRLITPACK_24            005c8200     deltares_common:gettok.obj
 0003:0002b204       __STRLITPACK_23            005c8204     deltares_common:gettok.obj
 0003:0002b208       __STRLITPACK_22            005c8208     deltares_common:gettok.obj
 0003:0002b20c       __STRLITPACK_21            005c820c     deltares_common:gettok.obj
 0003:0002b210       __STRLITPACK_14            005c8210     deltares_common:gettok.obj
 0003:0002b214       __STRLITPACK_13            005c8214     deltares_common:gettok.obj
 0003:0002b218       __STRLITPACK_12            005c8218     deltares_common:gettok.obj
 0003:0002b21c       __STRLITPACK_11            005c821c     deltares_common:gettok.obj
 0003:0002b220       __STRLITPACK_10            005c8220     deltares_common:gettok.obj
 0003:0002b224       __STRLITPACK_9             005c8224     deltares_common:gettok.obj
 0003:0002b228       __STRLITPACK_8             005c8228     deltares_common:gettok.obj
 0003:0002b22c       __STRLITPACK_7             005c822c     deltares_common:gettok.obj
 0003:0002b230       __STRLITPACK_6             005c8230     deltares_common:gettok.obj
 0003:0002b240       __STRLITPACK_29.0.1        005c8240     deltares_common:mestok.obj
 0003:0002b244       __STRLITPACK_30.0.1        005c8244     deltares_common:mestok.obj
 0003:0002b24c       __STRLITPACK_31.0.1        005c824c     deltares_common:mestok.obj
 0003:0002b254       __STRLITPACK_32.0.1        005c8254     deltares_common:mestok.obj
 0003:0002b25c       __STRLITPACK_33.0.1        005c825c     deltares_common:mestok.obj
 0003:0002b260       __STRLITPACK_34.0.1        005c8260     deltares_common:mestok.obj
 0003:0002b268       __STRLITPACK_35.0.1        005c8268     deltares_common:mestok.obj
 0003:0002b270       __STRLITPACK_36.0.1        005c8270     deltares_common:mestok.obj
 0003:0002b278       __STRLITPACK_39.0.1        005c8278     deltares_common:mestok.obj
 0003:0002b280       __STRLITPACK_40.0.1        005c8280     deltares_common:mestok.obj
 0003:0002b288       __STRLITPACK_42.0.1        005c8288     deltares_common:mestok.obj
 0003:0002b290       __STRLITPACK_43.0.1        005c8290     deltares_common:mestok.obj
 0003:0002b294       __STRLITPACK_44.0.1        005c8294     deltares_common:mestok.obj
 0003:0002b29c       __STRLITPACK_41.0.1        005c829c     deltares_common:mestok.obj
 0003:0002b2a4       __STRLITPACK_38.0.1        005c82a4     deltares_common:mestok.obj
 0003:0002b2ac       __STRLITPACK_37.0.1        005c82ac     deltares_common:mestok.obj
 0003:0002b2c0       _2il0floatpacket.0         005c82c0     deltares_common:mestok.obj
 0003:0002b2d0       _2il0floatpacket.1         005c82d0     deltares_common:mestok.obj
 0003:0002b2d8       _2il0floatpacket.2         005c82d8     deltares_common:mestok.obj
 0003:0002b2e0       _2il0floatpacket.3         005c82e0     deltares_common:mestok.obj
 0003:0002b2e8       __STRLITPACK_25            005c82e8     deltares_common:mestok.obj
 0003:0002b2ec       __STRLITPACK_24            005c82ec     deltares_common:mestok.obj
 0003:0002b2f0       __STRLITPACK_21            005c82f0     deltares_common:mestok.obj
 0003:0002b2f4       __STRLITPACK_16            005c82f4     deltares_common:mestok.obj
 0003:0002b300       .2.5_2.switchtab.5         005c8300     libifcoremt:for_rint_fmt.obj
 0003:0002b308       .2.6_2.switchtab.3         005c8308     libifcoremt:for_rint_fmt.obj
 0003:0002b340       .2.6_2.switchtab.4         005c8340     libifcoremt:for_rint_fmt.obj
 0003:0002b380       .2.6_2.switchtab.5         005c8380     libifcoremt:for_rint_fmt.obj
 0003:0002b3e4       .2.7_2.switchtab.3         005c83e4     libifcoremt:for_backspace.obj
 0003:0002b3f4       .2.7_2.switchtab.4         005c83f4     libifcoremt:for_backspace.obj
 0003:0002b41c       .2.14_2.switchtab.3        005c841c     libifcoremt:for_rint_lis.obj
 0003:0002b424       .2.14_2.switchtab.4        005c8424     libifcoremt:for_rint_lis.obj
 0003:0002b48c       .2.15_2.switchtab.4        005c848c     libifcoremt:for_rint_lis.obj
 0003:0002b49c       .2.16_2.switchtab.4        005c849c     libifcoremt:for_rint_lis.obj
 0003:0002b574       .2.17_2.switchtab.1        005c8574     libifcoremt:for_rint_lis.obj
 0003:0002b648       .2.17_2.switchtab.2        005c8648     libifcoremt:for_rint_lis.obj
 0003:0002b67c       .2.17_2.switchtab.3        005c867c     libifcoremt:for_rint_lis.obj
 0003:0002b6e4       .2.8_2.switchtab.11        005c86e4     libifcoremt:for_wint_lis.obj
 0003:0002b6ec       .2.8_2.switchtab.12        005c86ec     libifcoremt:for_wint_lis.obj
 0003:0002b7a0       _static_const_table        005c87a0     libmmt:log_sse2.obj
 0003:0002c000       _static_const_table        005c9000     libmmt:log10f_sse2.obj
 0003:0002c840       _pone_ld                   005c9840     libmmt:f__powr8i4.obj
 0003:0002c860       _static_const_table        005c9860     libmmt:sincos_sse2.obj
 0003:0002d940       _static_const_table        005ca940     libmmt:cos_sse2.obj
 0003:0002e220       _static_const_table        005cb220     libmmt:acos_sse2.obj
 0003:0002fa00       _static_const_table        005cca00     libmmt:sincos_wmt.obj
 0003:00030ae0       __SP                       005cdae0     libmmt:sincos_gen.obj
 0003:00030b60       __CP                       005cdb60     libmmt:sincos_gen.obj
 0003:00030be0       __small_value_64           005cdbe0     libmmt:sincos_gen.obj
 0003:00030bf0       __ones                     005cdbf0     libmmt:sincos_gen.obj
 0003:00030c00       __SQ2                      005cdc00     libmmt:sincos_gen.obj
 0003:00030c10       __CQ2                      005cdc10     libmmt:sincos_gen.obj
 0003:00030c20       __SQ1                      005cdc20     libmmt:sincos_gen.obj
 0003:00030c30       __CQ1                      005cdc30     libmmt:sincos_gen.obj
 0003:00030c40       __TWO_40H                  005cdc40     libmmt:sincos_gen.obj
 0003:00030c50       __SQ0                      005cdc50     libmmt:sincos_gen.obj
 0003:00030c80       __CQ0                      005cdc80     libmmt:sincos_gen.obj
 0003:00030cb0       __Pi4Inv                   005cdcb0     libmmt:sincos_gen.obj
 0003:00030cc0       __Pi4x3                    005cdcc0     libmmt:sincos_gen.obj
 0003:00030ce0       __Pi4x4                    005cdce0     libmmt:sincos_gen.obj
 0003:00030d00       __infs                     005cdd00     libmmt:sincos_gen.obj
 0003:00030d10       __zeros                    005cdd10     libmmt:sincos_gen.obj
 0003:00030d20       _static_const_table        005cdd20     libmmt:atan_wmt.obj
 0003:000317c0       __P1                       005ce7c0     libmmt:atan_gen.obj
 0003:00031820       __P2                       005ce820     libmmt:atan_gen.obj
 0003:00031860       _2il0floatpacket.0         005ce860     libmmt:atan_gen.obj
 0003:00031868       __small_value_64           005ce868     libmmt:atan_gen.obj
 0003:00031878       __P4                       005ce878     libmmt:atan_gen.obj
 0003:00031898       __P3                       005ce898     libmmt:atan_gen.obj
 0003:000318c8       __TWO_39H                  005ce8c8     libmmt:atan_gen.obj
 0003:000318d0       __TWO_32H                  005ce8d0     libmmt:atan_gen.obj
 0003:000318d8       __pi_2l                    005ce8d8     libmmt:atan_gen.obj
 0003:000318f8       __pi_2d                    005ce8f8     libmmt:atan_gen.obj
 0003:00031920       _coscoef_red               005ce920     libmmt:cos_atm.obj
 0003:00031b60       _coscoef                   005ceb60     libmmt:cos_atm.obj
 0003:000323f0       _2il0floatpacket.127       005cf3f0     libmmt:cos_atm.obj
 0003:000323f8       _2il0floatpacket.128       005cf3f8     libmmt:cos_atm.obj
 0003:00032400       _2il0floatpacket.129       005cf400     libmmt:cos_atm.obj
 0003:00032408       _2il0floatpacket.130       005cf408     libmmt:cos_atm.obj
 0003:00032410       _2il0floatpacket.131       005cf410     libmmt:cos_atm.obj
 0003:00032418       _2il0floatpacket.132       005cf418     libmmt:cos_atm.obj
 0003:00032420       _2il0floatpacket.133       005cf420     libmmt:cos_atm.obj
 0003:00032428       _2il0floatpacket.134       005cf428     libmmt:cos_atm.obj
 0003:00032430       _2il0floatpacket.135       005cf430     libmmt:cos_atm.obj
 0003:00032438       _2il0floatpacket.136       005cf438     libmmt:cos_atm.obj
 0003:00032440       _2il0floatpacket.137       005cf440     libmmt:cos_atm.obj
 0003:00032448       _2il0floatpacket.138       005cf448     libmmt:cos_atm.obj
 0003:00032450       _2il0floatpacket.139       005cf450     libmmt:cos_atm.obj
 0003:00032458       _2il0floatpacket.140       005cf458     libmmt:cos_atm.obj
 0003:00032460       _static_const_table        005cf460     libmmt:cos_pnr.obj
 0003:00032d20       _static_const_table        005cfd20     libmmt:cos_wmt.obj
 0003:00033600       __sin_cos_tbl              005d0600     libmmt:cos_gen.obj
 0003:00033c60       __SP                       005d0c60     libmmt:cos_gen.obj
 0003:00033ce0       __CP                       005d0ce0     libmmt:cos_gen.obj
 0003:00033d60       __ones                     005d0d60     libmmt:cos_gen.obj
 0003:00033d70       __CQ2                      005d0d70     libmmt:cos_gen.obj
 0003:00033d80       __CQ1                      005d0d80     libmmt:cos_gen.obj
 0003:00033d90       __TWO_40H                  005d0d90     libmmt:cos_gen.obj
 0003:00033da0       __CQ0                      005d0da0     libmmt:cos_gen.obj
 0003:00033dd0       __coeff_s                  005d0dd0     libmmt:cos_gen.obj
 0003:00033df0       __coeff_c                  005d0df0     libmmt:cos_gen.obj
 0003:00033e10       __Pi2x3                    005d0e10     libmmt:cos_gen.obj
 0003:00033e30       __Pix3                     005d0e30     libmmt:cos_gen.obj
 0003:00033e50       __Pi23x3                   005d0e50     libmmt:cos_gen.obj
 0003:00033e70       __Pi24x3                   005d0e70     libmmt:cos_gen.obj
 0003:00033e90       __Pi4Inv                   005d0e90     libmmt:cos_gen.obj
 0003:00033ea0       __Pi4x3                    005d0ea0     libmmt:cos_gen.obj
 0003:00033ec0       __Pi4x4                    005d0ec0     libmmt:cos_gen.obj
 0003:00033ee0       __infs                     005d0ee0     libmmt:cos_gen.obj
 0003:00033ef0       __zeros                    005d0ef0     libmmt:cos_gen.obj
 0003:00033f00       _2il0floatpacket.0         005d0f00     libmmt:cos_gen.obj
 0003:00033f08       _2il0floatpacket.1         005d0f08     libmmt:cos_gen.obj
 0003:00033f10       _2il0floatpacket.2         005d0f10     libmmt:cos_gen.obj
 0003:00033f20       _sincoef                   005d0f20     libmmt:sin_atm.obj
 0003:000347c0       _sincoef_red               005d17c0     libmmt:sin_atm.obj
 0003:000349f0       _2il0floatpacket.148       005d19f0     libmmt:sin_atm.obj
 0003:00034a00       _2il0floatpacket.135       005d1a00     libmmt:sin_atm.obj
 0003:00034a08       _2il0floatpacket.136       005d1a08     libmmt:sin_atm.obj
 0003:00034a10       _2il0floatpacket.137       005d1a10     libmmt:sin_atm.obj
 0003:00034a18       _2il0floatpacket.138       005d1a18     libmmt:sin_atm.obj
 0003:00034a20       _2il0floatpacket.139       005d1a20     libmmt:sin_atm.obj
 0003:00034a28       _2il0floatpacket.140       005d1a28     libmmt:sin_atm.obj
 0003:00034a30       _2il0floatpacket.141       005d1a30     libmmt:sin_atm.obj
 0003:00034a38       _2il0floatpacket.142       005d1a38     libmmt:sin_atm.obj
 0003:00034a40       _2il0floatpacket.143       005d1a40     libmmt:sin_atm.obj
 0003:00034a48       _2il0floatpacket.144       005d1a48     libmmt:sin_atm.obj
 0003:00034a50       _2il0floatpacket.145       005d1a50     libmmt:sin_atm.obj
 0003:00034a58       _2il0floatpacket.146       005d1a58     libmmt:sin_atm.obj
 0003:00034a60       _2il0floatpacket.147       005d1a60     libmmt:sin_atm.obj
 0003:00034a80       _static_const_table        005d1a80     libmmt:sin_pnr.obj
 0003:00035360       _static_const_table        005d2360     libmmt:sin_wmt.obj
 0003:00035c60       __sin_cos_tbl              005d2c60     libmmt:sin_gen.obj
 0003:000362c0       __CP                       005d32c0     libmmt:sin_gen.obj
 0003:00036340       __SP                       005d3340     libmmt:sin_gen.obj
 0003:000363c0       __small_value_64           005d33c0     libmmt:sin_gen.obj
 0003:000363d0       __SQ2                      005d33d0     libmmt:sin_gen.obj
 0003:000363e0       __SQ1                      005d33e0     libmmt:sin_gen.obj
 0003:000363f0       __TWO_40H                  005d33f0     libmmt:sin_gen.obj
 0003:00036400       __SQ00                     005d3400     libmmt:sin_gen.obj
 0003:00036440       __coeff_s                  005d3440     libmmt:sin_gen.obj
 0003:00036460       __coeff_c                  005d3460     libmmt:sin_gen.obj
 0003:00036480       __ones                     005d3480     libmmt:sin_gen.obj
 0003:00036490       __Pi2x3                    005d3490     libmmt:sin_gen.obj
 0003:000364b0       __Pix3                     005d34b0     libmmt:sin_gen.obj
 0003:000364d0       __Pi23x3                   005d34d0     libmmt:sin_gen.obj
 0003:000364f0       __Pi24x3                   005d34f0     libmmt:sin_gen.obj
 0003:00036510       __Pi4Inv                   005d3510     libmmt:sin_gen.obj
 0003:00036520       __Pi4x3                    005d3520     libmmt:sin_gen.obj
 0003:00036540       __Pi4x4                    005d3540     libmmt:sin_gen.obj
 0003:00036560       __infs                     005d3560     libmmt:sin_gen.obj
 0003:00036570       __zeros                    005d3570     libmmt:sin_gen.obj
 0003:00036580       _2il0floatpacket.0         005d3580     libmmt:sin_gen.obj
 0003:00036588       _2il0floatpacket.1         005d3588     libmmt:sin_gen.obj
 0003:00036590       _2il0floatpacket.2         005d3590     libmmt:sin_gen.obj
 0003:000365a0       ___svml_irem4_dispatch_table 005d35a0     svml_dispmt:svml_i_rem4_iface_la.obj
 0003:000365d0       ___svml_fmod2_dispatch_table 005d35d0     svml_dispmt:svml_d_fmod2_iface_la.obj
 0003:00036600       ___svml_sincos2_dispatch_table 005d3600     svml_dispmt:svml_d_sincos2_iface_la.obj
 0003:00036630       ___svml_cos2_dispatch_table 005d3630     svml_dispmt:svml_d_cos2_iface_la.obj
 0003:00036660       _static_const_table        005d3660     svml_dispmt:svml_i_rem4_core_t7la.obj
 0003:00036690       ___vdtwo                   005d3690     svml_dispmt:svml_i_rem4_core_p8la.obj
 0003:000366a0       ___vdalpha                 005d36a0     svml_dispmt:svml_i_rem4_core_p8la.obj
 0003:000366b0       ___vzero                   005d36b0     svml_dispmt:svml_i_rem4_core_p8la.obj
 0003:000366c0       ___vdtwo                   005d36c0     svml_dispmt:svml_i_rem4_core_n9la.obj
 0003:000366e0       ___vdalpha                 005d36e0     svml_dispmt:svml_i_rem4_core_n9la.obj
 0003:00036700       ___vzero                   005d3700     svml_dispmt:svml_i_rem4_core_n9la.obj
 0003:00036720       _2il0floatpacket.6         005d3720     svml_dispmt:svml_d_fmod2_core_w7la.obj
 0003:00036730       _2il0floatpacket.7         005d3730     svml_dispmt:svml_d_fmod2_core_w7la.obj
 0003:00036740       _2il0floatpacket.8         005d3740     svml_dispmt:svml_d_fmod2_core_w7la.obj
 0003:00036750       _2il0floatpacket.6         005d3750     svml_dispmt:svml_d_fmod2_core_t7la.obj
 0003:00036760       _2il0floatpacket.7         005d3760     svml_dispmt:svml_d_fmod2_core_t7la.obj
 0003:00036770       _2il0floatpacket.8         005d3770     svml_dispmt:svml_d_fmod2_core_t7la.obj
 0003:00036780       _2il0floatpacket.26        005d3780     svml_dispmt:svml_d_sincos2_core_w7la.obj
 0003:00036790       _2il0floatpacket.27        005d3790     svml_dispmt:svml_d_sincos2_core_w7la.obj
 0003:000367a0       _2il0floatpacket.28        005d37a0     svml_dispmt:svml_d_sincos2_core_w7la.obj
 0003:000367b0       _2il0floatpacket.29        005d37b0     svml_dispmt:svml_d_sincos2_core_w7la.obj
 0003:000367c0       _2il0floatpacket.30        005d37c0     svml_dispmt:svml_d_sincos2_core_w7la.obj
 0003:000367d0       _2il0floatpacket.31        005d37d0     svml_dispmt:svml_d_sincos2_core_w7la.obj
 0003:000367e0       _2il0floatpacket.32        005d37e0     svml_dispmt:svml_d_sincos2_core_w7la.obj
 0003:000367f0       _2il0floatpacket.33        005d37f0     svml_dispmt:svml_d_sincos2_core_w7la.obj
 0003:00036800       _2il0floatpacket.34        005d3800     svml_dispmt:svml_d_sincos2_core_w7la.obj
 0003:00036810       _2il0floatpacket.35        005d3810     svml_dispmt:svml_d_sincos2_core_w7la.obj
 0003:00036820       _2il0floatpacket.36        005d3820     svml_dispmt:svml_d_sincos2_core_w7la.obj
 0003:00036830       _2il0floatpacket.37        005d3830     svml_dispmt:svml_d_sincos2_core_w7la.obj
 0003:00036840       _2il0floatpacket.38        005d3840     svml_dispmt:svml_d_sincos2_core_w7la.obj
 0003:00036850       _2il0floatpacket.39        005d3850     svml_dispmt:svml_d_sincos2_core_w7la.obj
 0003:00036860       _2il0floatpacket.40        005d3860     svml_dispmt:svml_d_sincos2_core_w7la.obj
 0003:00036870       _2il0floatpacket.41        005d3870     svml_dispmt:svml_d_sincos2_core_w7la.obj
 0003:00036880       _2il0floatpacket.42        005d3880     svml_dispmt:svml_d_sincos2_core_w7la.obj
 0003:00036890       _2il0floatpacket.43        005d3890     svml_dispmt:svml_d_sincos2_core_w7la.obj
 0003:000368a0       _2il0floatpacket.26        005d38a0     svml_dispmt:svml_d_sincos2_core_n9la.obj
 0003:000368b0       _2il0floatpacket.27        005d38b0     svml_dispmt:svml_d_sincos2_core_n9la.obj
 0003:000368c0       _2il0floatpacket.28        005d38c0     svml_dispmt:svml_d_sincos2_core_n9la.obj
 0003:000368d0       _2il0floatpacket.29        005d38d0     svml_dispmt:svml_d_sincos2_core_n9la.obj
 0003:000368e0       _2il0floatpacket.30        005d38e0     svml_dispmt:svml_d_sincos2_core_n9la.obj
 0003:000368f0       _2il0floatpacket.31        005d38f0     svml_dispmt:svml_d_sincos2_core_n9la.obj
 0003:00036900       _2il0floatpacket.32        005d3900     svml_dispmt:svml_d_sincos2_core_n9la.obj
 0003:00036910       _2il0floatpacket.33        005d3910     svml_dispmt:svml_d_sincos2_core_n9la.obj
 0003:00036920       _2il0floatpacket.34        005d3920     svml_dispmt:svml_d_sincos2_core_n9la.obj
 0003:00036930       _2il0floatpacket.35        005d3930     svml_dispmt:svml_d_sincos2_core_n9la.obj
 0003:00036940       _2il0floatpacket.36        005d3940     svml_dispmt:svml_d_sincos2_core_n9la.obj
 0003:00036950       _2il0floatpacket.37        005d3950     svml_dispmt:svml_d_sincos2_core_n9la.obj
 0003:00036960       _2il0floatpacket.38        005d3960     svml_dispmt:svml_d_sincos2_core_n9la.obj
 0003:00036970       _2il0floatpacket.39        005d3970     svml_dispmt:svml_d_sincos2_core_n9la.obj
 0003:00036980       _2il0floatpacket.40        005d3980     svml_dispmt:svml_d_sincos2_core_n9la.obj
 0003:00036990       _2il0floatpacket.41        005d3990     svml_dispmt:svml_d_sincos2_core_n9la.obj
 0003:000369a0       _2il0floatpacket.42        005d39a0     svml_dispmt:svml_d_sincos2_core_n9la.obj
 0003:000369b0       _2il0floatpacket.43        005d39b0     svml_dispmt:svml_d_sincos2_core_n9la.obj
 0003:000369c0       _static_const_table        005d39c0     svml_dispmt:svml_d_cos2_core_w7la.obj
 0003:00036b00       _static_const_table        005d3b00     svml_dispmt:svml_d_cos2_core_t7la.obj
 0003:00036cc0       _static_const_table        005d3cc0     svml_dispmt:svml_d_cos2_core_p8la.obj
 0003:00036e80       _static_const_table        005d3e80     svml_dispmt:svml_d_cos2_core_n9la.obj
 0003:00037340       _2il0floatpacket.3         005d4340     svml_dispmt:svml_d_fmod_cout_w7la.obj
 0003:00037350       _2il0floatpacket.0         005d4350     svml_dispmt:svml_d_fmod_cout_w7la.obj
 0003:00037358       _2il0floatpacket.1         005d4358     svml_dispmt:svml_d_fmod_cout_w7la.obj
 0003:00037360       _2il0floatpacket.2         005d4360     svml_dispmt:svml_d_fmod_cout_w7la.obj
 0003:00047f80       __vmldSinCosHATab          005e4f80     svml_dispmt:svml_d_sincos_cout_w7la.obj
 0003:00047fa0       __e02PI                    005e4fa0     svml_dispmt:svml_d_dtrig_.obj
 0003:00048140       __e04PI                    005e5140     svml_dispmt:svml_d_dtrig_.obj
 0003:000482d0       _2il0floatpacket.0         005e52d0     svml_dispmt:svml_d_dtrig_.obj
 0003:000482e0       _2il0floatpacket.1         005e52e0     svml_dispmt:svml_d_dtrig_.obj
 0003:000482e8       __d02PI                    005e52e8     svml_dispmt:svml_d_dtrig_.obj
 0003:000482f8       __DP4                      005e52f8     svml_dispmt:svml_d_dtrig_.obj
 0003:00048318       __dPI02                    005e5318     svml_dispmt:svml_d_dtrig_.obj
 0003:00048328       __d04PI                    005e5328     svml_dispmt:svml_d_dtrig_.obj
 0003:00048338       __QP4                      005e5338     svml_dispmt:svml_d_dtrig_.obj
 0003:00048358       __dPI04                    005e5358     svml_dispmt:svml_d_dtrig_.obj
 0003:00048380       __STRLITPACK_46.0.1        005e5380     part_utils_f:write_version.obj
 0003:00048388       __STRLITPACK_47.0.1        005e5388     part_utils_f:write_version.obj
 0003:00048390       __STRLITPACK_48.0.1        005e5390     part_utils_f:write_version.obj
 0003:00048398       __STRLITPACK_49.0.1        005e5398     part_utils_f:write_version.obj
 0003:000483a0       __STRLITPACK_50.0.1        005e53a0     part_utils_f:write_version.obj
 0003:000483b0       _2il0floatpacket.0         005e53b0     part_utils_f:write_version.obj
 0003:000483c0       _2il0floatpacket.1         005e53c0     part_utils_f:write_version.obj
 0003:000483d0       _2il0floatpacket.2         005e53d0     part_utils_f:write_version.obj
 0003:000483e0       _2il0floatpacket.3         005e53e0     part_utils_f:write_version.obj
 0003:000483e8       _2il0floatpacket.4         005e53e8     part_utils_f:write_version.obj
 0003:000483f0       __STRLITPACK_32            005e53f0     part_utils_f:write_version.obj
 0003:00048400       __STRLITPACK_31            005e5400     part_utils_f:write_version.obj
 0003:00048404       __STRLITPACK_30            005e5404     part_utils_f:write_version.obj
 0003:00048414       __STRLITPACK_20            005e5414     part_utils_f:write_version.obj
 0003:00048430       __STRLITPACK_16            005e5430     part_utils_f:write_version.obj
 0003:00048460       __STRLITPACK_63.0.1        005e5460     part_utils_f:polpart.obj
 0003:00048470       __STRLITPACK_75.0.1        005e5470     part_utils_f:polpart.obj
 0003:00048478       __STRLITPACK_76.0.1        005e5478     part_utils_f:polpart.obj
 0003:00048480       __STRLITPACK_77.0.1        005e5480     part_utils_f:polpart.obj
 0003:00048488       __STRLITPACK_78.0.1        005e5488     part_utils_f:polpart.obj
 0003:00048490       __STRLITPACK_79.0.1        005e5490     part_utils_f:polpart.obj
 0003:00048498       __STRLITPACK_80.0.1        005e5498     part_utils_f:polpart.obj
 0003:000484a0       __STRLITPACK_64.0.1        005e54a0     part_utils_f:polpart.obj
 0003:000484a8       __STRLITPACK_65.0.1        005e54a8     part_utils_f:polpart.obj
 0003:000484b0       __STRLITPACK_66.0.1        005e54b0     part_utils_f:polpart.obj
 0003:000484b8       __STRLITPACK_67.0.1        005e54b8     part_utils_f:polpart.obj
 0003:000484c0       __STRLITPACK_68.0.1        005e54c0     part_utils_f:polpart.obj
 0003:000484c8       __STRLITPACK_69.0.1        005e54c8     part_utils_f:polpart.obj
 0003:000484d0       __STRLITPACK_70.0.1        005e54d0     part_utils_f:polpart.obj
 0003:000484d8       __STRLITPACK_71.0.1        005e54d8     part_utils_f:polpart.obj
 0003:000484e0       __STRLITPACK_81.0.1        005e54e0     part_utils_f:polpart.obj
 0003:000484e8       __STRLITPACK_82.0.1        005e54e8     part_utils_f:polpart.obj
 0003:000484f0       __STRLITPACK_83.0.1        005e54f0     part_utils_f:polpart.obj
 0003:000484f8       __STRLITPACK_84.0.1        005e54f8     part_utils_f:polpart.obj
 0003:00048500       __STRLITPACK_85.0.1        005e5500     part_utils_f:polpart.obj
 0003:00048508       __STRLITPACK_86.0.1        005e5508     part_utils_f:polpart.obj
 0003:00048510       __STRLITPACK_87.0.1        005e5510     part_utils_f:polpart.obj
 0003:00048518       __STRLITPACK_88.0.1        005e5518     part_utils_f:polpart.obj
 0003:00048520       __STRLITPACK_89.0.1        005e5520     part_utils_f:polpart.obj
 0003:00048528       __STRLITPACK_90.0.1        005e5528     part_utils_f:polpart.obj
 0003:00048530       __STRLITPACK_91.0.1        005e5530     part_utils_f:polpart.obj
 0003:00048538       __STRLITPACK_92.0.1        005e5538     part_utils_f:polpart.obj
 0003:00048540       __STRLITPACK_72.0.1        005e5540     part_utils_f:polpart.obj
 0003:00048548       __STRLITPACK_73.0.1        005e5548     part_utils_f:polpart.obj
 0003:00048550       __STRLITPACK_74.0.1        005e5550     part_utils_f:polpart.obj
 0003:00048558       __STRLITPACK_62            005e5558     part_utils_f:polpart.obj
 0003:00048560       __STRLITPACK_61            005e5560     part_utils_f:polpart.obj
 0003:00048564       __STRLITPACK_47            005e5564     part_utils_f:polpart.obj
 0003:00048584       __STRLITPACK_43            005e5584     part_utils_f:polpart.obj
 0003:000485a8       __STRLITPACK_39            005e55a8     part_utils_f:polpart.obj
 0003:000485c8       __STRLITPACK_35            005e55c8     part_utils_f:polpart.obj
 0003:000485ec       __STRLITPACK_34            005e55ec     part_utils_f:polpart.obj
 0003:000485fc       __STRLITPACK_59            005e55fc     part_utils_f:polpart.obj
 0003:00048600       __STRLITPACK_57            005e5600     part_utils_f:polpart.obj
 0003:00048618       __STRLITPACK_55            005e5618     part_utils_f:polpart.obj
 0003:00048640       __STRLITPACK_53            005e5640     part_utils_f:polpart.obj
 0003:00048644       __STRLITPACK_30            005e5644     part_utils_f:polpart.obj
 0003:00048664       __STRLITPACK_26            005e5664     part_utils_f:polpart.obj
 0003:00048684       __STRLITPACK_22            005e5684     part_utils_f:polpart.obj
 0003:000486a4       __STRLITPACK_18            005e56a4     part_utils_f:polpart.obj
 0003:000486c4       __STRLITPACK_17            005e56c4     part_utils_f:polpart.obj
 0003:000486d4       __STRLITPACK_13            005e56d4     part_utils_f:polpart.obj
 0003:000486f4       __STRLITPACK_9             005e56f4     part_utils_f:polpart.obj
 0003:00048714       __STRLITPACK_5             005e5714     part_utils_f:polpart.obj
 0003:00048734       __STRLITPACK_1             005e5734     part_utils_f:polpart.obj
 0003:00048754       __STRLITPACK_0             005e5754     part_utils_f:polpart.obj
 0003:00048770       _2il0floatpacket.0         005e5770     part_utils_f:noextspaces.obj
 0003:00048780       __STRLITPACK_3             005e5780     part_utils_f:noextspaces.obj
 0003:0004878c       __STRLITPACK_2             005e578c     part_utils_f:noextspaces.obj
 0003:00048790       __STRLITPACK_1             005e5790     part_utils_f:noextspaces.obj
 0003:000487a0       _GS_ExceptionPointers      005e57a0     MSVCRT:gs_report.obj
 0003:000487a8       __sehtable._main           005e57a8     libifcoremt:for_main.obj
 0003:00049bd8       __sehtable$___tmainCRTStartup 005e6bd8     MSVCRT:crtexe.obj
 0003:00049bf8       __sehtable$__onexit        005e6bf8     MSVCRT:atonexit.obj
 0003:00049c18       __sehtable$__IsNonwritableInCurrentImage 005e6c18     MSVCRT:pesect.obj
 0003:00049f8c       .idata$6                   005e6f8c     libiomp5md:libiomp5md.dll
 0003:00049fc8       .idata$6                   005e6fc8     ImageHlp:imagehlp.dll
 0003:0004a344       .idata$6                   005e7344     MSVCRT:MSVCR120.dll
 0003:0004a99c       .idata$6                   005e799c     kernel32:KERNEL32.dll
 0004:00000000       DELPAR$format_pack.0.1     005e8000     main.obj
 0004:00000020       DELPAR_MOD_mp_DELPAR$format_pack.0.2 005e8020     part_kernel_f:delpar.obj
 0004:00000330       _DELPAR_MOD_mp_DELPAR$RSEED.0.2 005e8330     part_kernel_f:delpar.obj
 0004:00000340       PLOTGRP$format_pack.0.1    005e8340     part_kernel_f:plotgr.obj
 0004:00000360       PART08$format_pack.0.1     005e8360     part_kernel_f:part08.obj
 0004:00000580       PART06$format_pack.0.1     005e8580     part_kernel_f:part06.obj
 0004:000006e0       PART15$format_pack.0.1     005e86e0     part_kernel_f:part15.obj
 0004:00000720       OILDSP_MOD_mp_OILDSP$format_pack.0.2 005e8720     part_kernel_f:oildsp.obj
 0004:00000f28       _OILDSP_MOD_mp_OILDSP$RSEED.0.2 005e8f28     part_kernel_f:oildsp.obj
 0004:00000f30       _OILDSP_MOD_mp_OILDSP$FIRST.0.2 005e8f30     part_kernel_f:oildsp.obj
 0004:00000f40       PARTWQ_MOD_mp_PARTWQ$format_pack.0.2 005e8f40     part_kernel_f:partwq.obj
 0004:000012e4       _PARTWQ_MOD_mp_PARTWQ$FIRST.0.2 005e92e4     part_kernel_f:partwq.obj
 0004:000012e8       _PARTWQ_MOD_mp_PARTWQ$SUBNAM.0.2 005e92e8     part_kernel_f:partwq.obj
 0004:00001300       PART09_MOD_mp_PART09$format_pack.0.2 005e9300     part_kernel_f:part09.obj
 0004:00001460       PART14_MOD_mp_PART14$format_pack.0.2 005e9460     part_kernel_f:part14.obj
 0004:0000173c       _PART14_MOD_mp_PART14$FIRST.0.2 005e973c     part_kernel_f:part14.obj
 0004:00001740       PARTUR_MOD_mp_PARTUR$format_pack.0.2 005e9740     part_kernel_f:partur.obj
 0004:00001888       _PARTUR_MOD_mp_PARTUR$FIRST.0.2 005e9888     part_kernel_f:partur.obj
 0004:000018a0       PART21_MOD_mp_PART21$format_pack.0.2 005e98a0     part_kernel_f:part21.obj
 0004:00001b4c       _PART21_MOD_mp_PART21$FIRST.0.2 005e9b4c     part_kernel_f:part21.obj
 0004:00001b60       PARTVS$format_pack.0.1     005e9b60     part_kernel_f:partvs.obj
 0004:00001cec       .2.4_2_kmpc_loc_struct_pack.12 005e9cec     part_kernel_f:partvs.obj
 0004:00001d00       .2.4_2__kmpc_loc_pack.11   005e9d00     part_kernel_f:partvs.obj
 0004:00001d1c       .2.4_2_kmpc_loc_struct_pack.20 005e9d1c     part_kernel_f:partvs.obj
 0004:00001d30       .2.4_2__kmpc_loc_pack.19   005e9d30     part_kernel_f:partvs.obj
 0004:00001d4c       .2.4_2_kmpc_loc_struct_pack.95 005e9d4c     part_kernel_f:partvs.obj
 0004:00001d60       .2.4_2__kmpc_loc_pack.94   005e9d60     part_kernel_f:partvs.obj
 0004:00001d80       PART10_MOD_mp_PART10$format_pack.0.2 005e9d80     part_kernel_f:part10.obj
 0004:00001fa8       _PART10_MOD_mp_PART10$RSEED.0.2 005e9fa8     part_kernel_f:part10.obj
 0004:00001fb0       _PART10_MOD_mp_PART10$FIRST.0.2 005e9fb0     part_kernel_f:part10.obj
 0004:00001fb4       .2.9_2_kmpc_loc_struct_pack.12 005e9fb4     part_kernel_f:part10.obj
 0004:00001fc8       .2.9_2__kmpc_loc_pack.11   005e9fc8     part_kernel_f:part10.obj
 0004:00001ff0       .2.9_2_kmpc_loc_struct_pack.20 005e9ff0     part_kernel_f:part10.obj
 0004:00002004       .2.9_2__kmpc_loc_pack.19   005ea004     part_kernel_f:part10.obj
 0004:00002030       .2.9_2_kmpc_loc_struct_pack.576 005ea030     part_kernel_f:part10.obj
 0004:00002044       .2.9_2__kmpc_loc_pack.575  005ea044     part_kernel_f:part10.obj
 0004:00002080       _PART18_MOD_mp_PART18$RSEED.0.2 005ea080     part_kernel_f:part18.obj
 0004:00002088       _PART18_MOD_mp_PART18$FIRST.0.2 005ea088     part_kernel_f:part18.obj
 0004:000020a0       INIPART_ASC$format_pack.0.1 005ea0a0     part_kernel_f:inipart_asc.obj
 0004:000022e0       _INIPART_ASC$RSEED.0.1     005ea2e0     part_kernel_f:inipart_asc.obj
 0004:000022e8       _INIPART_ASC$LUN_INI.0.1   005ea2e8     part_kernel_f:inipart_asc.obj
 0004:00002300       GET_VALID_LINE$format_pack.0.1 005ea300     part_kernel_f:inipart.obj
 0004:00002380       INIPART$format_pack.0.2    005ea380     part_kernel_f:inipart.obj
 0004:000025c8       _INIPART$RSEED.0.2         005ea5c8     part_kernel_f:inipart.obj
 0004:000025d0       _INIPART$LUN_INI.0.2       005ea5d0     part_kernel_f:inipart.obj
 0004:000025e0       _DENSTY$FIRST.0.1          005ea5e0     part_kernel_f:densty.obj
 0004:00002600       MUDREL_MOD_mp_MUDREL$format_pack.0.2 005ea600     part_kernel_f:mudrel.obj
 0004:00002748       _MUDREL_MOD_mp_MUDREL$RSEED.0.2 005ea748     part_kernel_f:mudrel.obj
 0004:00002760       PARTFL_MOD_mp_PARTFL$format_pack.0.2 005ea760     part_kernel_f:partfl.obj
 0004:000027dc       _PARTFL_MOD_mp_PARTFL$FIRST.0.2 005ea7dc     part_kernel_f:partfl.obj
 0004:000027e0       _DIFFUS$FIRST.0.1          005ea7e0     part_kernel_f:diffus.obj
 0004:000027e4       TIMERS_mp_TIMLINE$format_pack.0.7 005ea7e4     deltares_common:timers.obj
 0004:0000281c       _TIMERS_mp_TIMLINE$FORCHR.0.7 005ea81c     deltares_common:timers.obj
 0004:00002858       TIMERS_mp_TIMDUMP$format_pack.0.6 005ea858     deltares_common:timers.obj
 0004:00002914       _global_resources          005ea914     libifcoremt:for_reentrancy.obj
 0004:00002934       _global_resources_recurschk 005ea934     libifcoremt:for_reentrancy.obj
 0004:00002960       _msf_def_stopstr_msg       005ea960     libifcoremt:for_stop.obj
 0004:000029a0       _msf_def_stopn_msg         005ea9a0     libifcoremt:for_stop.obj
 0004:000029e0       cannot_find_char.5264.0.8  005ea9e0     libifcoremt:for_rseq_lis.obj
 0004:000029e4       looper.4653.0.9            005ea9e4     libifcoremt:for_lub_mgt.obj
 0004:000029e8       old_context.4653.0.9       005ea9e8     libifcoremt:for_lub_mgt.obj
 0004:000029ec       _for__newunit_curr         005ea9ec     libifcoremt:for_lub_mgt.obj
 0004:00002a00       first_time.3901.0.1        005eaa00     libifcoremt:for_diags_intel.obj
 0004:00002a04       desc_lst.4152.0.10         005eaa04     libifcoremt:for_diags_intel.obj
 0004:00002a20       _for__dec_error_header     005eaa20     libifcoremt:for_diags_intel.obj
 0004:00002a60       _for_msgtab_intel          005eaa60     libifcoremt:for_diags_intel.obj
 0004:000040c8       _first_msg                 005ec0c8     libifcoremt:for_diags_intel.obj
 0004:000040cc       _use_internal_msg          005ec0cc     libifcoremt:for_diags_intel.obj
 0004:000040d0       _severity_table            005ec0d0     libifcoremt:for_diags_intel.obj
 0004:000040e8       _forrtl_header             005ec0e8     libifcoremt:for_diags_intel.obj
 0004:00004100       env_var_value.4632.0.14    005ec100     libifcoremt:for_aio.obj
 0004:00004104       current_arg.5843.0.8       005ec104     libifcoremt:for_nt_open_proc.obj
 0004:00004120       _c_feature_names           005ec120     libirc:new_proc_init.obj
 0004:000041e0       _p_one                     005ec1e0     libirc:ia32_divq.obj
 0004:000041e4       _p_norm                    005ec1e4     libirc:ia32_divq.obj
 0004:000041e8       _p_huge                    005ec1e8     libirc:ia32_divq.obj
 0004:000041ec       _p_half                    005ec1ec     libirc:ia32_divq.obj
 0004:000041f0       _p_zero                    005ec1f0     libirc:ia32_divq.obj
 0004:000041f4       _p_tiny                    005ec1f4     libirc:ia32_divq.obj
 0004:000041f8       _p_one                     005ec1f8     libirc:ia32_addsubq.obj
 0004:000041fc       _p_norm                    005ec1fc     libirc:ia32_addsubq.obj
 0004:00004200       _p_huge                    005ec200     libirc:ia32_addsubq.obj
 0004:00004204       _p_tiny                    005ec204     libirc:ia32_addsubq.obj
 0004:00004208       _p_zero                    005ec208     libirc:ia32_addsubq.obj
 0004:0000420c       _p_tiny                    005ec20c     libirc:q2fp.obj
 0004:00004210       _p_one                     005ec210     libirc:q2fp.obj
 0004:00004214       _p_huge                    005ec214     libirc:q2fp.obj
 0004:00004218       _p_norm                    005ec218     libirc:q2fp.obj
 0004:0000421c       _p_zero                    005ec21c     libirc:q2fp.obj
 0004:00004220       _first_msg                 005ec220     libirc:irc_msg_support.obj
 0004:00004224       _use_internal_msg          005ec224     libirc:irc_msg_support.obj
 0004:00004240       _cpuid2_cache_tbl          005ec240     libirc:fast_mem_ops.obj
 0004:00004a60       ___svml_atan2_chosen_core_func 005eca60     svml_dispmt:svml_d_atan2_iface_la.obj
 0004:00004a64       ___svml_atan2_mask_chosen_core_func 005eca64     svml_dispmt:svml_d_atan2_maskiface_la.obj
 0004:00004a68       ___svml_roundf4_chosen_core_func 005eca68     svml_dispmt:svml_s_roundf4_iface_la.obj
 0004:00011300       ALLOC_MOD_mp_ALLOC_INT_1D$format_pack.0.4 005f9300     part_data_f:alloc.obj
 0004:00011420       ALLOC_MOD_mp_ALLOC_INT_2D$format_pack.0.5 005f9420     part_data_f:alloc.obj
 0004:00011540       ALLOC_MOD_mp_ALLOC_INT_3D$format_pack.0.6 005f9540     part_data_f:alloc.obj
 0004:000115e0       ALLOC_MOD_mp_ALLOC_REAL_1D$format_pack.0.8 005f95e0     part_data_f:alloc.obj
 0004:00011700       ALLOC_MOD_mp_ALLOC_DOUBLE_1D$format_pack.0.9 005f9700     part_data_f:alloc.obj
 0004:000117a0       ALLOC_MOD_mp_ALLOC_REAL_2D$format_pack.0.10 005f97a0     part_data_f:alloc.obj
 0004:000118c0       ALLOC_MOD_mp_ALLOC_REAL_3D$format_pack.0.11 005f98c0     part_data_f:alloc.obj
 0004:000119e0       ALLOC_MOD_mp_ALLOC_REAL_4D$format_pack.0.12 005f99e0     part_data_f:alloc.obj
 0004:00011a80       ALLOC_MOD_mp_ALLOC_CHAR_1D$format_pack.0.13 005f9a80     part_data_f:alloc.obj
 0004:00011b20       ALLOC_MOD_mp_EXIT_ALLOC$format_pack.0.3 005f9b20     part_data_f:alloc.obj
 0004:00011c00       ALLOC_MOD_mp_INIT_ALLOC$format_pack.0.2 005f9c00     part_data_f:alloc.obj
 0004:00011ca0       ALLOC_MOD_mp_ALLOC_ERROR$format_pack.0.15 005f9ca0     part_data_f:alloc.obj
 0004:00011d80       _GRID_SEARCH_MOD_mp_FIND$RSEED.0.2 005f9d80     part_utils_f:grid_search.obj
 0004:00011da0       GRID_SEARCH_MOD_mp_INTL2V$format_pack.0.6 005f9da0     part_utils_f:grid_search.obj
 0004:00012060       WAIT_MOD_mp_WAIT$format_pack.0.2 005fa060     part_utils_f:wait.obj
 0004:00012078       GET_KEY_MOD_mp_GET_INT_KEY$format_pack.0.2 005fa078     part_utils_f:get_key.obj
 0004:00012094       GET_KEY_MOD_mp_GET_REAL_KEY$format_pack.0.3 005fa094     part_utils_f:get_key.obj
 0004:000120b0       GET_KEY_MOD_mp_GET_STRING_KEY$format_pack.0.4 005fa0b0     part_utils_f:get_key.obj
 0004:000120bc       SKIP_COMMENT_LINES$format_pack.0.1 005fa0bc     part_utils_f:skip_comments.obj
 0004:000120c8       ERROR$format_pack.0.1      005fa0c8     part_utils_f:show_error.obj
 0004:00012100       RDFNAM$format_pack.0.1     005fa100     part_io_f:rdfnam.obj
 0004:00012220       REPORT_DATE_TIME$format_pack.0.1 005fa220     part_io_f:report_date_time.obj
 0004:00012240       RDLGRI$format_pack.0.1     005fa240     part_io_f:rdlgri.obj
 0004:00012340       RDCCOL$format_pack.0.1     005fa340     part_io_f:rdccol.obj
 0004:00012350       _RDHYDR_MOD_mp_RDHYDR$FIRST.0.2 005fa350     part_io_f:rdhydr.obj
 0004:00012360       OPEN_INIFILE$format_pack.0.5 005fa360     part_io_f:rdpart.obj
 0004:000123c0       RDPART$format_pack.0.6     005fa3c0     part_io_f:rdpart.obj
 0004:00015720       GETDIM_DIS$format_pack.0.2 005fd720     part_io_f:rdpart.obj
 0004:000157c0       GETDIM_INI$format_pack.0.3 005fd7c0     part_io_f:rdpart.obj
 0004:00015960       GETDIM_ASC$format_pack.0.4 005fd960     part_io_f:rdpart.obj
 0004:000159f0       MORE_DATA$format_pack.0.1  005fd9f0     part_io_f:rdpart.obj
 0004:00015a00       _WRTTRK$ELT_BYTES.0.1      005fda00     part_io_f:wrttrk.obj
 0004:00015a08       _WRTTRK$ELT_NAMES.0.1      005fda08     part_io_f:wrttrk.obj
 0004:00015a28       _WRTTRK$ELT_TYPES.0.1      005fda28     part_io_f:wrttrk.obj
 0004:00015a48       _WRTTRK$FIRST.0.1          005fda48     part_io_f:wrttrk.obj
 0004:00015a4c       WRTTRK$format_pack.0.1     005fda4c     part_io_f:wrttrk.obj
 0004:00015a6c       _WRTTRK$GRNAM2.0.1         005fda6c     part_io_f:wrttrk.obj
 0004:00015a7c       _WRTTRK$GRNAM3.0.1         005fda7c     part_io_f:wrttrk.obj
 0004:00015aa0       OPENFL_MOD_mp_OPENFL$format_pack.0.2 005fdaa0     part_io_f:openfl.obj
 0004:00015ba0       PART12_MOD_mp_PART12$format_pack.0.2 005fdba0     part_io_f:part12.obj
 0004:00015ccc       _PART12_MOD_mp_PART12$FIRST1.0.2 005fdccc     part_io_f:part12.obj
 0004:00015cd0       _PART12_MOD_mp_PART12$FIRST.0.2 005fdcd0     part_io_f:part12.obj
 0004:00015cd4       _PART12_MOD_mp_PART12$WRSWCH.0.2 005fdcd4     part_io_f:part12.obj
 0004:00015cd8       _PART12_MOD_mp_PART12$CELID1.0.2 005fdcd8     part_io_f:part12.obj
 0004:00015cdc       .2.7_2_kmpc_loc_struct_pack.12 005fdcdc     part_io_f:part12.obj
 0004:00015cf0       .2.7_2__kmpc_loc_pack.11   005fdcf0     part_io_f:part12.obj
 0004:00015d18       .2.7_2_kmpc_loc_struct_pack.20 005fdd18     part_io_f:part12.obj
 0004:00015d2c       .2.7_2__kmpc_loc_pack.19   005fdd2c     part_io_f:part12.obj
 0004:00015d54       _PART12_MOD_mp_PART12$CELID2.0.2 005fdd54     part_io_f:part12.obj
 0004:00015d58       _PART12_MOD_mp_PART12$SUBNAM.0.2 005fdd58     part_io_f:part12.obj
 0004:00015d60       PART13_MOD_mp_PART13$format_pack.0.2 005fdd60     part_io_f:part13.obj
 0004:00015fc8       _PART13_MOD_mp_PART13$DEFAULT.0.2 005fdfc8     part_io_f:part13.obj
 0004:00015fcc       _PART13_MOD_mp_PART13$FIRST1.0.2 005fdfcc     part_io_f:part13.obj
 0004:00015fd0       _PART13_MOD_mp_PART13$FIRST.0.2 005fdfd0     part_io_f:part13.obj
 0004:00015fd4       _PART13_MOD_mp_PART13$WRSWCH.0.2 005fdfd4     part_io_f:part13.obj
 0004:00015fd8       _PART13_MOD_mp_PART13$CELID1.0.2 005fdfd8     part_io_f:part13.obj
 0004:00015fdc       _PART13_MOD_mp_PART13$CELID2.0.2 005fdfdc     part_io_f:part13.obj
 0004:00015fe0       PARTHS_MOD_mp_PARTHS$format_pack.0.2 005fdfe0     part_io_f:parths.obj
 0004:000161b0       _PARTHS_MOD_mp_PARTHS$FIRST.0.2 005fe1b0     part_io_f:parths.obj
 0004:000161c0       _WRITRK_MOD_mp_WRITRK$ELT_NAMES.0.2 005fe1c0     part_io_f:writrk.obj
 0004:00016280       _WRITRK_MOD_mp_WRITRK$ELT_TYPES.0.2 005fe280     part_io_f:writrk.obj
 0004:00016340       WRITRK_MOD_mp_WRITRK$format_pack.0.2 005fe340     part_io_f:writrk.obj
 0004:00016410       _WRITRK_MOD_mp_WRITRK$ELT_BYTES.0.2 005fe410     part_io_f:writrk.obj
 0004:0001643c       _WRITRK_MOD_mp_WRITRK$FIRST.0.2 005fe43c     part_io_f:writrk.obj
 0004:00016440       _WRITRK_MOD_mp_WRITRK$GRNAM0.0.2 005fe440     part_io_f:writrk.obj
 0004:00016450       _WRITRK_MOD_mp_WRITRK$GRNAM1.0.2 005fe450     part_io_f:writrk.obj
 0004:00016460       TIMESPACE_READ_mp_REACURTIM$format_pack.0.7 005fe460     part_io_f:meteo1.obj
 0004:0001646c       TIMESPACE_READ_mp_READCURVIHEADER$format_pack.0.15 005fe46c     part_io_f:meteo1.obj
 0004:0001649c       TIMESPACE_DATA_mp_READ1PLIZ$format_pack.0.32 005fe49c     part_io_f:meteo1.obj
 0004:000164c0       _TIMESPACE_DATA_mp_METEO_TIDEPOTENTIAL$XZ2.0.45 005fe4c0     part_io_f:meteo1.obj
 0004:000164f0       _TIMESPACE_DATA_mp_METEO_TIDEPOTENTIAL$YZ2.0.45 005fe4f0     part_io_f:meteo1.obj
 0004:00016520       _TIMESPACE_DATA_mp_METEO_TIDEPOTENTIAL$TD2.0.45 005fe520     part_io_f:meteo1.obj
 0004:00016550       _TIMESPACE_DATA_mp_TFORCE$TIDEUC.0.46 005fe550     part_io_f:meteo1.obj
 0004:00016590       _TIMESPACE_DATA_mp_TFORCE$TIDEUS.0.46 005fe590     part_io_f:meteo1.obj
 0004:000165cc       TIMESPACE_DATA_mp_ADDPROVIDER$format_pack.0.26 005fe5cc     part_io_f:meteo1.obj
 0004:000165e0       TIMESPACE_DATA_mp_READPROVIDER$format_pack.0.30 005fe5e0     part_io_f:meteo1.obj
 0004:0001660c       TIMESPACE_DATA_mp_READFOURIERDIMS$format_pack.0.35 005fe60c     part_io_f:meteo1.obj
 0004:00016624       TIMESPACE_READ_mp_READARCINFOHEADER$format_pack.0.12 005fe624     part_io_f:meteo1.obj
 0004:00016654       TIMESPACE_READ_mp_READARCINFOHEADER_D3D$format_pack.0.13 005fe654     part_io_f:meteo1.obj
 0004:00016684       TIMESPACE_DATA_mp_READ1POLYLIN$format_pack.0.31 005fe684     part_io_f:meteo1.obj
 0004:000166b0       .T8233_.0.77               005fe6b0     part_io_f:meteo1.obj
 0004:000166bc       TIMESPACE_mp_UPDATEPROVIDER$format_pack.0.76 005fe6bc     part_io_f:meteo1.obj
 0004:000166d0       TIMESPACE_DATA_mp_READFOURIERCOMPSTIM$format_pack.0.37 005fe6d0     part_io_f:meteo1.obj
 0004:000166e8       TIMESPACE_READ_mp_REAARCTIM$format_pack.0.4 005fe6e8     part_io_f:meteo1.obj
 0004:00016940       _TIMESPACE_DATA_mp_INCREASEELSETSSIZE$BLK..T3404_ 005fe940     part_io_f:meteo1.obj
 0004:00016a00       _TIMESPACE_DATA_mp_INCREASEELSETSSIZE$BLK..T3435_ 005fea00     part_io_f:meteo1.obj
 0004:00016ac0       TIMESPACE_DATA_mp_ASC$format_pack.0.39 005feac0     part_io_f:meteo1.obj
 0004:00016b00       _TIMESPACE_mp_ADDTIMESPACERELATION$BLK..T7484_ 005feb00     part_io_f:meteo1.obj
 0004:00016b80       _TIMESPACE_mp_ADDTIMESPACERELATION$BLK..T7501_ 005feb80     part_io_f:meteo1.obj
 0004:00016c00       _TIMESPACE_DATA_mp_ADDDATAPROVIDER$BLK..T3972_ 005fec00     part_io_f:meteo1.obj
 0004:00016ec0       _TIMESPACE_DATA_mp_ADDDATAPROVIDER$BLK..T3981_ 005feec0     part_io_f:meteo1.obj
 0004:00016f60       _TIMESPACE_DATA_mp_ADDDATAPROVIDER$BLK..T4012_ 005fef60     part_io_f:meteo1.obj
 0004:00017220       _TIMESPACE_DATA_mp_ADDDATAPROVIDER$BLK..T4021_ 005ff220     part_io_f:meteo1.obj
 0004:000172c0       _TIMESPACE_DATA_mp_ADDDATAPROVIDER$BLK..T4050_ 005ff2c0     part_io_f:meteo1.obj
 0004:00017360       _TIMESPACE_DATA_mp_ADDQUANTITY$BLK..T3545_ 005ff360     part_io_f:meteo1.obj
 0004:000174a0       _TIMESPACE_DATA_mp_ADDQUANTITY$BLK..T3556_ 005ff4a0     part_io_f:meteo1.obj
 0004:000175e0       _TIMESPACE_mp_ALLOCSUBDOMS$BLK..T8270_ 005ff5e0     part_io_f:meteo1.obj
 0004:00017650       .T389_.0.5                 005ff650     part_io_f:meteo1.obj
 0004:00017680       .T399_.0.5                 005ff680     part_io_f:meteo1.obj
 0004:000176b0       TIMESPACE_READ_mp_READGRID$format_pack.0.5 005ff6b0     part_io_f:meteo1.obj
 0004:000176bc       TIMESPACE_READ_mp_READARCINFOBLOCK$format_pack.0.6 005ff6bc     part_io_f:meteo1.obj
 0004:000176f4       TIMESPACE_READ_mp_READCURVIBLOCK$format_pack.0.8 005ff6f4     part_io_f:meteo1.obj
 0004:0001772c       TIMESPACE_READ_mp_READSERIES$format_pack.0.9 005ff72c     part_io_f:meteo1.obj
 0004:00017744       TIMESPACE_READ_mp_REASPV$format_pack.0.10 005ff744     part_io_f:meteo1.obj
 0004:0001775c       TIMESPACE_READ_mp_REASPWTIM$format_pack.0.11 005ff75c     part_io_f:meteo1.obj
 0004:0001778c       TIMESPACE_READ_mp_REASPWHEADER$format_pack.0.14 005ff78c     part_io_f:meteo1.obj
 0004:000177b0       TIMESPACE_DATA_mp_BEWVUF$format_pack.0.44 005ff7b0     part_io_f:meteo1.obj
 0004:000177e0       GENFIL_MOD_mp_GENFIL$format_pack.0.2 005ff7e0     part_io_f:genfil.obj
 0004:00017820       RDHYD$format_pack.0.2      005ff820     part_io_f:rdhyd.obj
 0004:000178a0       DLWQTD$format_pack.0.1     005ff8a0     part_io_f:dlwqtd.obj
 0004:00017a60       _DLWQTD$MSGTXT.0.1         005ffa60     part_io_f:dlwqtd.obj
 0004:00017aa0       DLWQFL$format_pack.0.1     005ffaa0     part_io_f:dlwqfl.obj
 0004:00017c60       _DLWQFL$MSGTXT.0.1         005ffc60     part_io_f:dlwqfl.obj
 0004:00017ca0       DLWQBL$format_pack.0.1     005ffca0     part_io_f:dlwqbl.obj
 0004:00017e60       _DLWQBL$MSGTXT.0.1         005ffe60     part_io_f:dlwqbl.obj
 0004:00017ea0       RDWND$format_pack.0.1      005ffea0     part_io_f:rdwnd.obj
 0004:000180a0       _PUTGET_MOD_mp_PUTGET_INT1D$FD_NEF.0.3 006000a0     part_io_f:putget.obj
 0004:000180a4       _PUTGET_MOD_mp_PUTGET_INT2D$FD_NEF.0.4 006000a4     part_io_f:putget.obj
 0004:000180a8       _PUTGET_MOD_mp_PUTGET_REAL$FD_NEF.0.5 006000a8     part_io_f:putget.obj
 0004:000180ac       _PUTGET_MOD_mp_PUTGET_REAL1D$FD_NEF.0.6 006000ac     part_io_f:putget.obj
 0004:000180b0       _PUTGET_MOD_mp_PUTGET_REAL2D$FD_NEF.0.7 006000b0     part_io_f:putget.obj
 0004:000180b4       _PUTGET_MOD_mp_PUTGET_CHAR$FD_NEF.0.8 006000b4     part_io_f:putget.obj
 0004:000180b8       _PUTGET_MOD_mp_PUTGET_CHAR1D$FD_NEF.0.9 006000b8     part_io_f:putget.obj
 0004:000180c0       DLPR12_MOD_mp_DLPR12$format_pack.0.2 006000c0     part_io_f:dlpr12.obj
 0004:00018194       _DLPR12_MOD_mp_DLPR12$FIRST1.0.2 00600194     part_io_f:dlpr12.obj
 0004:00018198       _DLPR12_MOD_mp_DLPR12$FIRST2.0.2 00600198     part_io_f:dlpr12.obj
 0004:0001819c       _DLPR12_MOD_mp_DLPR12$NEFIS.0.2 0060019c     part_io_f:dlpr12.obj
 0004:000181a0       _DLPR12_MOD_mp_DLPR12$WRSWCH.0.2 006001a0     part_io_f:dlpr12.obj
 0004:000181a4       _DLPR12_MOD_mp_DLPR12$CELID1.0.2 006001a4     part_io_f:dlpr12.obj
 0004:000181a8       _DLPR12_MOD_mp_DLPR12$CELID2.0.2 006001a8     part_io_f:dlpr12.obj
 0004:000181c0       ZOEKOPT$format_pack.0.7    006001c0     part_io_f:meteo1temphelpers.obj
 0004:000181e8       _NUMUNI$LASTNUM.0.2        006001e8     part_io_f:meteo1temphelpers.obj
 0004:000181ec       ZOEKJA$format_pack.0.6     006001ec     part_io_f:meteo1temphelpers.obj
 0004:00018210       .T2458_.0.26               00600210     part_io_f:malloc.obj
 0004:00018220       .T3264_.0.34               00600220     part_io_f:malloc.obj
 0004:00018230       .T830_.0.10                00600230     part_io_f:malloc.obj
 0004:00018240       .T1653_.0.18               00600240     part_io_f:malloc.obj
 0004:00018250       .T2678_.0.28               00600250     part_io_f:malloc.obj
 0004:00018260       .T2442_.0.26               00600260     part_io_f:malloc.obj
 0004:00018290       .T3248_.0.34               00600290     part_io_f:malloc.obj
 0004:000182c0       .T814_.0.10                006002c0     part_io_f:malloc.obj
 0004:000182f0       .T1628_.0.18               006002f0     part_io_f:malloc.obj
 0004:00018320       .T2662_.0.28               00600320     part_io_f:malloc.obj
 0004:00018360       RDTOK1$format_pack.0.1     00600360     deltares_common:rdtok1.obj
 0004:000184c0       _MESSAGE_MODULE_mp_WRITE_WARNING$LABEL.0.11 006004c0     deltares_common:message_module.obj
 0004:000184cc       _MESSAGE_MODULE_mp_WRITE_ERROR$LABEL.0.10 006004cc     deltares_common:message_module.obj
 0004:000184e0       GETTOK$format_pack.0.1     006004e0     deltares_common:gettok.obj
 0004:00018540       MESTOK$format_pack.0.1     00600540     deltares_common:mestok.obj
 0004:0001872c       _MESTOK$CREAL.0.1          0060072c     deltares_common:mestok.obj
 0004:00018731       _MESTOK$CCHAR.0.1          00600731     deltares_common:mestok.obj
 0004:0001873b       _MESTOK$CINT.0.1           0060073b     deltares_common:mestok.obj
 0004:00018760       cannot_find_char.5191.0.6  00600760     libifcoremt:for_rint_lis.obj
 0004:00018764       ___svml_irem4_chosen_core_func 00600764     svml_dispmt:svml_i_rem4_iface_la.obj
 0004:00018768       ___svml_fmod2_chosen_core_func 00600768     svml_dispmt:svml_d_fmod2_iface_la.obj
 0004:0001876c       ___svml_sincos2_chosen_core_func 0060076c     svml_dispmt:svml_d_sincos2_iface_la.obj
 0004:00018770       ___svml_cos2_chosen_core_func 00600770     svml_dispmt:svml_d_cos2_iface_la.obj
 0004:00018780       _WRITE_VERSION$OPKOM.0.1   00600780     part_utils_f:write_version.obj
 0004:00018b60       WRITE_VERSION$format_pack.0.1 00600b60     part_utils_f:write_version.obj
 0004:00018bc0       POLPART$format_pack.0.1    00600bc0     part_utils_f:polpart.obj
 0004:00018cd8       _POLPART$LUN_POL.0.1       00600cd8     part_utils_f:polpart.obj
 0004:00018d00       _first_create              00600d00     * CIL library *:* CIL module *
 0004:00018d04       _first_retrieve            00600d04     * CIL library *:* CIL module *
 0004:00018d08       ?first_oc@?1??create_nefis_files@@9@9 00600d08     * CIL library *:* CIL module *
 0004:00018d0c       _nefis_file_version        00600d0c     * CIL library *:* CIL module *
 0004:00018d14       _nefis_company_name        00600d14     * CIL library *:* CIL module *
 0004:00018d20       _nefis_version_id          00600d20     * CIL library *:* CIL module *
 0004:00018d6c       ?first@?1??RT_retrieve_struc@@9@9 00600d6c     * CIL library *:* CIL module *
 0004:00018d70       _company                   00600d70     * CIL library *:* CIL module *
 0004:00018d7c       _short_program_name        00600d7c     * CIL library *:* CIL module *
 0004:00018d84       _file_version              00600d84     * CIL library *:* CIL module *
 0004:00018d90       _ident                     00600d90     * CIL library *:* CIL module *
 0004:00018dd4       _version                   00600dd4     * CIL library *:* CIL module *
 0004:00018ddc       _program_name              00600ddc     * CIL library *:* CIL module *
 0004:00018de4       _svn_revision              00600de4     * CIL library *:* CIL module *
 0004:00018e00       _DELPAR_MOD_mp_DELPAR$ITHNDL.0.2 00600e00     part_kernel_f:delpar.obj
 0004:00018e04       _PART01$ITHNDL.0.1         00600e04     part_kernel_f:part01.obj
 0004:00018e08       _PLOTGRP$ITHNDL.0.1        00600e08     part_kernel_f:plotgr.obj
 0004:00018e0c       _PART08$AM.0.1             00600e0c     part_kernel_f:part08.obj
 0004:00018e10       _PART08$ITHNDL.0.1         00600e10     part_kernel_f:part08.obj
 0004:00018e14       _PART06$ITHNDL.0.1         00600e14     part_kernel_f:part06.obj
 0004:00018e18       _PART03$ITHNDL.0.1         00600e18     part_kernel_f:part03.obj
 0004:00018e1c       _PART15$ITHNDL.0.1         00600e1c     part_kernel_f:part15.obj
 0004:00018e20       _OILDSP_MOD_mp_OILDSP$AMAP.0.2 00600e20     part_kernel_f:oildsp.obj
 0004:00018e80       _OILDSP_MOD_mp_OILDSP$CSV_FNAM.0.2 00600e80     part_kernel_f:oildsp.obj
 0004:00018f80       _OILDSP_MOD_mp_OILDSP$WINDOW.0.2 00600f80     part_kernel_f:oildsp.obj
 0004:00018f90       _OILDSP_MOD_mp_OILDSP$FWATOIL.0.2 00600f90     part_kernel_f:oildsp.obj
 0004:00018fc0       _OILDSP_MOD_mp_OILDSP$RHOOILV.0.2 00600fc0     part_kernel_f:oildsp.obj
 0004:00018ff0       _OILDSP_MOD_mp_OILDSP$VISO.0.2 00600ff0     part_kernel_f:oildsp.obj
 0004:00019020       _OILDSP_MOD_mp_OILDSP$TOTFE.0.2 00601020     part_kernel_f:oildsp.obj
 0004:00019050       _OILDSP_MOD_mp_OILDSP$C1.0.2 00601050     part_kernel_f:oildsp.obj
 0004:00019078       _OILDSP_MOD_mp_OILDSP$C2.0.2 00601078     part_kernel_f:oildsp.obj
 0004:000190a0       _OILDSP_MOD_mp_OILDSP$D180.0.2 006010a0     part_kernel_f:oildsp.obj
 0004:000190c8       _OILDSP_MOD_mp_OILDSP$RHOTMP.0.2 006010c8     part_kernel_f:oildsp.obj
 0004:000190f0       _OILDSP_MOD_mp_OILDSP$RHOOIL.0.2 006010f0     part_kernel_f:oildsp.obj
 0004:00019118       _OILDSP_MOD_mp_OILDSP$VISOTMP.0.2 00601118     part_kernel_f:oildsp.obj
 0004:00019140       _OILDSP_MOD_mp_OILDSP$VISOWAT.0.2 00601140     part_kernel_f:oildsp.obj
 0004:00019168       _OILDSP_MOD_mp_OILDSP$TMPEVAP.0.2 00601168     part_kernel_f:oildsp.obj
 0004:00019190       _OILDSP_MOD_mp_OILDSP$LUNCSV.0.2 00601190     part_kernel_f:oildsp.obj
 0004:000191b8       _OILDSP_MOD_mp_OILDSP$IOPTD.0.2 006011b8     part_kernel_f:oildsp.obj
 0004:000191e0       _OILDSP_MOD_mp_OILDSP$IOPTEV.0.2 006011e0     part_kernel_f:oildsp.obj
 0004:00019208       _OILDSP_MOD_mp_OILDSP$VOLFRAC.0.2 00601208     part_kernel_f:oildsp.obj
 0004:00019230       _OILDSP_MOD_mp_OILDSP$IOILT.0.2 00601230     part_kernel_f:oildsp.obj
 0004:00019258       _OILDSP_MOD_mp_OILDSP$IOILD.0.2 00601258     part_kernel_f:oildsp.obj
 0004:00019280       _OILDSP_MOD_mp_OILDSP$IOILS.0.2 00601280     part_kernel_f:oildsp.obj
 0004:000192a8       _OILDSP_MOD_mp_OILDSP$WSUME.0.2 006012a8     part_kernel_f:oildsp.obj
 0004:000192d0       _OILDSP_MOD_mp_OILDSP$EVEMUL.0.2 006012d0     part_kernel_f:oildsp.obj
 0004:000192f8       _OILDSP_MOD_mp_OILDSP$FAC1.0.2 006012f8     part_kernel_f:oildsp.obj
 0004:00019300       _OILDSP_MOD_mp_OILDSP$FAC2.0.2 00601300     part_kernel_f:oildsp.obj
 0004:00019308       _OILDSP_MOD_mp_OILDSP$ITHNDL.0.2 00601308     part_kernel_f:oildsp.obj
 0004:0001930c       _OILDSP_MOD_mp_OILDSP$TIMLC.0.2 0060130c     part_kernel_f:oildsp.obj
 0004:00019310       _OILDSP_MOD_mp_OILDSP$NFCONS.0.2 00601310     part_kernel_f:oildsp.obj
 0004:00019314       _OILDSP_MOD_mp_OILDSP$TEMP.0.2 00601314     part_kernel_f:oildsp.obj
 0004:00019318       _OILDSP_MOD_mp_OILDSP$CDE.0.2 00601318     part_kernel_f:oildsp.obj
 0004:0001931c       _OILDSP_MOD_mp_OILDSP$VOIL.0.2 0060131c     part_kernel_f:oildsp.obj
 0004:00019320       _OILDSP_MOD_mp_OILDSP$WVELOI.0.2 00601320     part_kernel_f:oildsp.obj
 0004:00019324       _OILDSP_MOD_mp_OILDSP$NPADD.0.2 00601324     part_kernel_f:oildsp.obj
 0004:00019328       _OILDSP_MOD_mp_OILDSP$HMIN.0.2 00601328     part_kernel_f:oildsp.obj
 0004:0001932c       _OILDSP_MOD_mp_OILDSP$IDISAPP.0.2 0060132c     part_kernel_f:oildsp.obj
 0004:00019330       _OILDSP_MOD_mp_OILDSP$INSIDE.0.2 00601330     part_kernel_f:oildsp.obj
 0004:00019340       _PARTWQ_MOD_mp_PARTWQ$TMPEXC.0.2 00601340     part_kernel_f:partwq.obj
 0004:00019420       _PARTWQ_MOD_mp_PARTWQ$QFLOW.0.2 00601420     part_kernel_f:partwq.obj
 0004:00019500       _PARTWQ_MOD_mp_PARTWQ$INTAKE.0.2 00601500     part_kernel_f:partwq.obj
 0004:000195e0       _PARTWQ_MOD_mp_PARTWQ$CINTK.0.2 006015e0     part_kernel_f:partwq.obj
 0004:000196a8       _PARTWQ_MOD_mp_PARTWQ$ITHNDL.0.2 006016a8     part_kernel_f:partwq.obj
 0004:000196ac       _PARTWQ_MOD_mp_PARTWQ$SALAMB.0.2 006016ac     part_kernel_f:partwq.obj
 0004:000196b0       _PARTWQ_MOD_mp_PARTWQ$TMPAMB.0.2 006016b0     part_kernel_f:partwq.obj
 0004:000196b4       _PARTWQ_MOD_mp_PARTWQ$IPOS0.0.2 006016b4     part_kernel_f:partwq.obj
 0004:000196b8       _PARTWQ_MOD_mp_PARTWQ$NCLOAD.0.2 006016b8     part_kernel_f:partwq.obj
 0004:000196bc       _PARTWQ_MOD_mp_PARTWQ$DXBY.0.2 006016bc     part_kernel_f:partwq.obj
 0004:000196c0       _PARTWQ_MOD_mp_PARTWQ$NLOADS.0.2 006016c0     part_kernel_f:partwq.obj
 0004:000196c4       _PARTWQ_MOD_mp_PARTWQ$MNMAX2.0.2 006016c4     part_kernel_f:partwq.obj
 0004:000196c8       _PARTWQ_MOD_mp_PARTWQ$XNLOC.0.2 006016c8     part_kernel_f:partwq.obj
 0004:000196cc       _PARTWQ_MOD_mp_PARTWQ$YNLOC.0.2 006016cc     part_kernel_f:partwq.obj
 0004:000196d0       _PARTWQ_MOD_mp_PARTWQ$IERROR.0.2 006016d0     part_kernel_f:partwq.obj
 0004:000196d4       _PARTWQ_MOD_mp_PARTWQ$YMLOC.0.2 006016d4     part_kernel_f:partwq.obj
 0004:000196d8       _PARTWQ_MOD_mp_PARTWQ$XMLOC.0.2 006016d8     part_kernel_f:partwq.obj
 0004:000196dc       _PARTWQ_MOD_mp_PARTWQ$MMLOC.0.2 006016dc     part_kernel_f:partwq.obj
 0004:000196e0       _PARTWQ_MOD_mp_PARTWQ$NMLOC.0.2 006016e0     part_kernel_f:partwq.obj
 0004:000196e4       _PARTWQ_MOD_mp_PARTWQ$RHOWC.0.2 006016e4     part_kernel_f:partwq.obj
 0004:000196e8       _PARTWQ_MOD_mp_PARTWQ$TEX.0.2 006016e8     part_kernel_f:partwq.obj
 0004:000196ec       _PARTWQ_MOD_mp_PARTWQ$HCAPAC.0.2 006016ec     part_kernel_f:partwq.obj
 0004:000196f0       _PARTWQ_MOD_mp_PARTWQ$ITIME.0.2 006016f0     part_kernel_f:partwq.obj
 0004:00019700       _PART09_MOD_mp_PART09$ITHNDL.0.2 00601700     part_kernel_f:part09.obj
 0004:00019704       _PART09_MOD_mp_PART09$RADIUH.0.2 00601704     part_kernel_f:part09.obj
 0004:00019708       _PART09_MOD_mp_PART09$LCIRCL.0.2 00601708     part_kernel_f:part09.obj
 0004:00019710       _PART14_MOD_mp_PART14$RSEED.0.2 00601710     part_kernel_f:part14.obj
 0004:00019718       _PART14_MOD_mp_PART14$AMASS.0.2 00601718     part_kernel_f:part14.obj
 0004:00019720       _PART14_MOD_mp_PART14$ITHNDL.0.2 00601720     part_kernel_f:part14.obj
 0004:00019724       _PART14_MOD_mp_PART14$LCIRCL.0.2 00601724     part_kernel_f:part14.obj
 0004:00019728       _PART14_MOD_mp_PART14$IDS.0.2 00601728     part_kernel_f:part14.obj
 0004:0001972c       _PART14_MOD_mp_PART14$IDE.0.2 0060172c     part_kernel_f:part14.obj
 0004:00019730       _PART14_MOD_mp_PART14$RADIUH.0.2 00601730     part_kernel_f:part14.obj
 0004:00019738       _PARTUR_MOD_mp_PARTUR$ITHNDL.0.2 00601738     part_kernel_f:partur.obj
 0004:0001973c       _PARTUR_MOD_mp_PARTUR$NOEMAX.0.2 0060173c     part_kernel_f:partur.obj
 0004:00019740       _PART21_MOD_mp_PART21$WINDOW.0.2 00601740     part_kernel_f:part21.obj
 0004:00019750       _PART21_MOD_mp_PART21$ITHNDL.0.2 00601750     part_kernel_f:part21.obj
 0004:00019754       _PART21_MOD_mp_PART21$XPF.0.2 00601754     part_kernel_f:part21.obj
 0004:00019758       _PART21_MOD_mp_PART21$WINDW1.0.2 00601758     part_kernel_f:part21.obj
 0004:0001975c       _PART21_MOD_mp_PART21$WINDW3.0.2 0060175c     part_kernel_f:part21.obj
 0004:00019760       _PART21_MOD_mp_PART21$YPF.0.2 00601760     part_kernel_f:part21.obj
 0004:00019770       _PARTVS$ITHNDL.0.1         00601770     part_kernel_f:partvs.obj
 0004:00019774       ___kmpv_zero_PARTVS_0      00601774     part_kernel_f:partvs.obj
 0004:00019778       _PART17$ITHNDL.0.1         00601778     part_kernel_f:part17.obj
 0004:00019780       _PART10_MOD_mp_PART10$PBOOMCATCH.0.2 00601780     part_kernel_f:part10.obj
 0004:00019910       _PART10_MOD_mp_PART10$DSPRMS.0.2 00601910     part_kernel_f:part10.obj
 0004:00019918       _PART10_MOD_mp_PART10$ITHNDL.0.2 00601918     part_kernel_f:part10.obj
 0004:0001991c       _PART10_MOD_mp_PART10$TWOPI.0.2 0060191c     part_kernel_f:part10.obj
 0004:00019920       _PART10_MOD_mp_PART10$BOOMS.0.2 00601920     part_kernel_f:part10.obj
 0004:00019924       _PART10_MOD_mp_PART10$IBOOMINT.0.2 00601924     part_kernel_f:part10.obj
 0004:00019928       _PART10_MOD_mp_PART10$SQ6.0.2 00601928     part_kernel_f:part10.obj
 0004:0001992c       _PART10_MOD_mp_PART10$CORIOL.0.2 0060192c     part_kernel_f:part10.obj
 0004:00019930       _PART10_MOD_mp_PART10$TWOLAY.0.2 00601930     part_kernel_f:part10.obj
 0004:00019934       _PART10_MOD_mp_PART10$OILMOD.0.2 00601934     part_kernel_f:part10.obj
 0004:00019938       _PART10_MOD_mp_PART10$THREED.0.2 00601938     part_kernel_f:part10.obj
 0004:0001993c       _PART10_MOD_mp_PART10$DSPMAX.0.2 0060193c     part_kernel_f:part10.obj
 0004:00019940       _PART10_MOD_mp_PART10$NRMS.0.2 00601940     part_kernel_f:part10.obj
 0004:00019944       _PART10_MOD_mp_PART10$CDRAG.0.2 00601944     part_kernel_f:part10.obj
 0004:00019948       _PART10_MOD_mp_PART10$DSPMIN.0.2 00601948     part_kernel_f:part10.obj
 0004:0001994c       _PART10_MOD_mp_PART10$PTLAY.0.2 0060194c     part_kernel_f:part10.obj
 0004:00019950       _PART10_MOD_mp_PART10$C2G.0.2 00601950     part_kernel_f:part10.obj
 0004:00019954       _PART10_MOD_mp_PART10$USCRIT.0.2 00601954     part_kernel_f:part10.obj
 0004:00019958       _PART10_MOD_mp_PART10$UECRIT.0.2 00601958     part_kernel_f:part10.obj
 0004:0001995c       _PART10_MOD_mp_PART10$ISUB.0.2 0060195c     part_kernel_f:part10.obj
 0004:00019960       _PART10_MOD_mp_PART10$IPART.0.2 00601960     part_kernel_f:part10.obj
 0004:00019964       _PART10_MOD_mp_PART10$NINACT.0.2 00601964     part_kernel_f:part10.obj
 0004:00019968       _PART10_MOD_mp_PART10$NSTPAR.0.2 00601968     part_kernel_f:part10.obj
 0004:0001996c       _PART10_MOD_mp_PART10$NOPART_SED.0.2 0060196c     part_kernel_f:part10.obj
 0004:00019970       _PART10_MOD_mp_PART10$NOPART_ERO.0.2 00601970     part_kernel_f:part10.obj
 0004:00019974       _PART10_MOD_mp_PART10$CODEF.0.2 00601974     part_kernel_f:part10.obj
 0004:00019978       _PART10_MOD_mp_PART10$SIDEF.0.2 00601978     part_kernel_f:part10.obj
 0004:0001997c       _PART10_MOD_mp_PART10$DXX.0.2 0060197c     part_kernel_f:part10.obj
 0004:00019980       _PART10_MOD_mp_PART10$DYY.0.2 00601980     part_kernel_f:part10.obj
 0004:00019984       _PART10_MOD_mp_PART10$XX.0.2 00601984     part_kernel_f:part10.obj
 0004:00019988       _PART10_MOD_mp_PART10$YY.0.2 00601988     part_kernel_f:part10.obj
 0004:0001998c       _PART10_MOD_mp_PART10$IERROR.0.2 0060198c     part_kernel_f:part10.obj
 0004:00019990       _PART10_MOD_mp_PART10$BOUNCEFIRSTTRY.0.2 00601990     part_kernel_f:part10.obj
 0004:00019994       ___kmpv_zero_PART10_MOD_mp_PART10_0 00601994     part_kernel_f:part10.obj
 0004:000199a0       _PART18_MOD_mp_PART18$ITHNDL.0.2 006019a0     part_kernel_f:part18.obj
 0004:000199c0       _INIPART_ASC$FRACT.0.1     006019c0     part_kernel_f:inipart_asc.obj
 0004:00019a90       _INIPART_ASC$KEY.0.1       00601a90     part_kernel_f:inipart_asc.obj
 0004:00019aa4       _INIPART_ASC$ITHNDL.0.1    00601aa4     part_kernel_f:inipart_asc.obj
 0004:00019ac0       _GET_VALID_LINE$LINE.0.1   00601ac0     part_kernel_f:inipart.obj
 0004:00019ba0       _INIPART$FRACT.0.2         00601ba0     part_kernel_f:inipart.obj
 0004:00019c70       _INIPART$KEY.0.2           00601c70     part_kernel_f:inipart.obj
 0004:00019c84       _INIPART$ITHNDL.0.2        00601c84     part_kernel_f:inipart.obj
 0004:00019c88       _INIPART$BLOK.0.2          00601c88     part_kernel_f:inipart.obj
 0004:00019ca0       _DENSTY$TMPOLD.0.1         00601ca0     part_kernel_f:densty.obj
 0004:00019ca4       _DENSTY$DENSSV.0.1         00601ca4     part_kernel_f:densty.obj
 0004:00019ca8       _DENSTY$ITHNDL.0.1         00601ca8     part_kernel_f:densty.obj
 0004:00019cc0       _MUDREL_MOD_mp_MUDREL$TITLE.0.2 00601cc0     part_kernel_f:mudrel.obj
 0004:00019d60       _MUDREL_MOD_mp_MUDREL$ITHNDL.0.2 00601d60     part_kernel_f:mudrel.obj
 0004:00019d80       _UMAGI$ITHNDL.0.1          00601d80     part_kernel_f:umagi.obj
 0004:00019d84       _P10COR_MOD_mp_P10COR$ITHNDL.0.2 00601d84     part_kernel_f:p10cor.obj
 0004:00019d88       _P10DDB$ITHNDL.0.1         00601d88     part_kernel_f:p10ddb.obj
 0004:00019d8c       _PARTFL_MOD_mp_PARTFL$ITHNDL.0.2 00601d8c     part_kernel_f:partfl.obj
 0004:00019d90       _PARTFL_MOD_mp_PARTFL$SALAMB.0.2 00601d90     part_kernel_f:partfl.obj
 0004:00019d94       _PARTFL_MOD_mp_PARTFL$TMPAMB.0.2 00601d94     part_kernel_f:partfl.obj
 0004:00019d98       _PARTFL_MOD_mp_PARTFL$TEX.0.2 00601d98     part_kernel_f:partfl.obj
 0004:00019d9c       _PARTFL_MOD_mp_PARTFL$TPYCN.0.2 00601d9c     part_kernel_f:partfl.obj
 0004:00019da0       _PARTFL_MOD_mp_PARTFL$GAMMA.0.2 00601da0     part_kernel_f:partfl.obj
 0004:00019da4       _PARTFL_MOD_mp_PARTFL$DENSMN.0.2 00601da4     part_kernel_f:partfl.obj
 0004:00019da8       _PARTFL_MOD_mp_PARTFL$PTLAY.0.2 00601da8     part_kernel_f:partfl.obj
 0004:00019dac       _PARTFL_MOD_mp_PARTFL$TEMPB.0.2 00601dac     part_kernel_f:partfl.obj
 0004:00019db0       _PARTFL_MOD_mp_PARTFL$TEMPT.0.2 00601db0     part_kernel_f:partfl.obj
 0004:00019db4       _PARTFL_MOD_mp_PARTFL$DENSB.0.2 00601db4     part_kernel_f:partfl.obj
 0004:00019db8       _PARTFL_MOD_mp_PARTFL$DENST.0.2 00601db8     part_kernel_f:partfl.obj
 0004:00019dbc       _PARTFL_MOD_mp_PARTFL$UFRIC.0.2 00601dbc     part_kernel_f:partfl.obj
 0004:00019dc0       _PARTFL_MOD_mp_PARTFL$DEPTH.0.2 00601dc0     part_kernel_f:partfl.obj
 0004:00019dc4       _PARTFL_MOD_mp_PARTFL$DIFF0.0.2 00601dc4     part_kernel_f:partfl.obj
 0004:00019dc8       _DIFFUS$PBOLD.0.1          00601dc8     part_kernel_f:diffus.obj
 0004:00019dcc       _DIFFUS$Z1.0.1             00601dcc     part_kernel_f:diffus.obj
 0004:00019dd0       _DIFFUS$Z2.0.1             00601dd0     part_kernel_f:diffus.obj
 0004:00019dd4       _DIFFUS$ITHNDL.0.1         00601dd4     part_kernel_f:diffus.obj
 0004:0001a0d8       done.4210.0.14             006020d8     libifcoremt:for_reentrancy.obj
 0004:0001a0dc       _reentrancy_cleanup_once_block 006020dc     libifcoremt:for_reentrancy.obj
 0004:0001a0e4       _threadstor_index          006020e4     libifcoremt:for_reentrancy.obj
 0004:0001a0e8       _threadstor_init_once_block 006020e8     libifcoremt:for_reentrancy.obj
 0004:0001a0f0       _reentrancy_init_once_block 006020f0     libifcoremt:for_reentrancy.obj
 0004:0001a100       _exceptionbeg              00602100     libifcoremt:for_open.obj
 0004:0001a200       _exceptionend              00602200     libifcoremt:for_open.obj
 0004:0001a300       _rectype_exceptionbeg      00602300     libifcoremt:for_open.obj
 0004:0001a400       _rectype_exceptionend      00602400     libifcoremt:for_open.obj
 0004:0001a500       _endianmode                00602500     libifcoremt:for_open.obj
 0004:0001a504       _endianexception           00602504     libifcoremt:for_open.obj
 0004:0001a508       _exceptioncount            00602508     libifcoremt:for_open.obj
 0004:0001a50c       _endian_var_scanned        0060250c     libifcoremt:for_open.obj
 0004:0001a510       _rectype_var_scanned       00602510     libifcoremt:for_open.obj
 0004:0001a514       _rectype_exception         00602514     libifcoremt:for_open.obj
 0004:0001a518       _rectype_exceptioncount    00602518     libifcoremt:for_open.obj
 0004:0001a51c       _rectype_mode              0060251c     libifcoremt:for_open.obj
 0004:0001a540       _stop_msg_done_block       00602540     libifcoremt:for_stop.obj
 0004:0001a560       _for__vm_alloc_table       00602560     libifcoremt:for_vm.obj
 0004:0001a960       _for__protect_vmalloc_table 00602960     libifcoremt:for_vm.obj
 0004:0001a980       _fix_the_rounding          00602980     libifcoremt:for_secnds.obj
 0004:0001a9a0       old_star_lub.4653.0.9      006029a0     libifcoremt:for_lub_mgt.obj
 0004:0001ee54       _for__newunit_mask         00606e54     libifcoremt:for_lub_mgt.obj
 0004:0001ee58       _for__newunit_flag         00606e58     libifcoremt:for_lub_mgt.obj
 0004:00022760       _for_process_start_time    0060a760     libifcoremt:for_init.obj
 0004:00022768       rtl_init_once_block.4049.0.3 0060a768     libifcoremt:for_init.obj
 0004:00022770       static_1_argv.4076.0.5     0060a770     libifcoremt:for_init.obj
 0004:000227c0       this_image_number.3901.0.1 0060a7c0     libifcoremt:for_diags_intel.obj
 0004:000227c4       ptr_to_THIS_IMAGE.3901.0.1 0060a7c4     libifcoremt:for_diags_intel.obj
 0004:000227e0       _tmp_buf                   0060a7e0     libifcoremt:for_diags_intel.obj
 0004:000228e0       fmt_buf.4217.0.12          0060a8e0     libifcoremt:for_diags_intel.obj
 0004:000229e0       _tmp_sev                   0060a9e0     libifcoremt:for_diags_intel.obj
 0004:000229e4       _tmp_ptr                   0060a9e4     libifcoremt:for_diags_intel.obj
 0004:000229e8       redirect_stderr_once_block.4238.0.15 0060a9e8     libifcoremt:for_diags_intel.obj
 0004:000229f0       _current_user_error_handler 0060a9f0     libifcoremt:for_diags_intel.obj
 0004:000229f4       _current_user_error_context 0060a9f4     libifcoremt:for_diags_intel.obj
 0004:000229f8       _abort_on_exit             0060a9f8     libifcoremt:for_diags_intel.obj
 0004:00022a20       _threads_in_flight         0060aa20     libifcoremt:for_aio.obj
 0004:00022a28       _thread_count              0060aa28     libifcoremt:for_aio.obj
 0004:00022a30       count.4365.0.2             0060aa30     libifcoremt:for_aio.obj
 0004:00022a34       _aio_lub_mutex             0060aa34     libifcoremt:for_aio.obj
 0004:00022a4c       _aio_lub_table_mutex       0060aa4c     libifcoremt:for_aio.obj
 0004:00022a64       _aio_init_flg              0060aa64     libifcoremt:for_aio.obj
 0004:00022a68       _OpenThread_ptr            0060aa68     libifcoremt:for_aio.obj
 0004:00022a6c       _aio_lub                   0060aa6c     libifcoremt:for_aio.obj
 0004:00022a70       _aio_rte_thread            0060aa70     libifcoremt:for_aio.obj
 0004:00022a80       lub_read.4313.0.1          0060aa80     libifcoremt:for_preconnected_units_init.obj
 0004:00022c20       lub_accept.4313.0.1        0060ac20     libifcoremt:for_preconnected_units_init.obj
 0004:00022dc0       lub_print.4313.0.1         0060adc0     libifcoremt:for_preconnected_units_init.obj
 0004:00022f60       lub_type.4313.0.1          0060af60     libifcoremt:for_preconnected_units_init.obj
 0004:00023100       lub_stderr.4313.0.1        0060b100     libifcoremt:for_preconnected_units_init.obj
 0004:000232a0       lub_read_5.4313.0.1        0060b2a0     libifcoremt:for_preconnected_units_init.obj
 0004:00023440       lub_print_6.4313.0.1       0060b440     libifcoremt:for_preconnected_units_init.obj
 0004:000235e0       _for__protect_trace_ops    0060b5e0     libifcoremt:tbk_traceback.obj
 0004:000235e4       for__posix_io_flag_sem.4436.0.5 0060b5e4     libifcoremt:for_portlib.obj
 0004:00023600       _get_msg_buf               0060b600     libirc:irc_msg_support.obj
 0004:00023800       _get_text_buf              0060b800     libirc:irc_msg_support.obj
 0004:00023a00       _print_buf                 0060ba00     libirc:irc_msg_support.obj
 0004:00023c00       _message_catalog           0060bc00     libirc:irc_msg_support.obj
 0004:00023c40       pRtlCaptureContext.5466.0.1 0060bc40     libirc:tbk_backtrace.obj
 0004:00023c60       _error_msg                 0060bc60     libirc:tbk_backtrace.obj
 0004:00023ce0       ___libirc_cache_tbl        0060bce0     libirc:fast_mem_ops.obj
 0004:00023d20       ___libirc_tmp              0060bd20     libirc:fast_mem_ops.obj
 0004:00027d80       _PART11$ITHNDL.0.1         0060fd80     part_utils_f:part11.obj
 0004:00027d84       _GRID_SEARCH_MOD_mp_FIND$ITHNDL.0.2 0060fd84     part_utils_f:grid_search.obj
 0004:00027d88       _GRID_SEARCH_MOD_mp_FIND$N0.0.2 0060fd88     part_utils_f:grid_search.obj
 0004:00027d8c       _GRID_SEARCH_MOD_mp_FIND$RADIUH.0.2 0060fd8c     part_utils_f:grid_search.obj
 0004:00027d90       _GRID_SEARCH_MOD_mp_FIND$ANGLE.0.2 0060fd90     part_utils_f:grid_search.obj
 0004:00027d94       _GRID_SEARCH_MOD_mp_FIND$MOVY.0.2 0060fd94     part_utils_f:grid_search.obj
 0004:00027d98       _GRID_SEARCH_MOD_mp_FIND$MOVX.0.2 0060fd98     part_utils_f:grid_search.obj
 0004:00027d9c       _GRID_SEARCH_MOD_mp_FIND$CFLAG.0.2 0060fd9c     part_utils_f:grid_search.obj
 0004:00027da0       _GRID_SEARCH_MOD_mp_PART07$ITHNDL.0.4 0060fda0     part_utils_f:grid_search.obj
 0004:00027da4       _GRID_SEARCH_MOD_mp_FINDCELL$ITHNDL.0.3 0060fda4     part_utils_f:grid_search.obj
 0004:00027da8       _GRID_SEARCH_MOD_mp_PART07NM$ITHNDL.0.5 0060fda8     part_utils_f:grid_search.obj
 0004:00027dac       _GRID_SEARCH_MOD_mp_INTL2V$ITHNDL.0.6 0060fdac     part_utils_f:grid_search.obj
 0004:00027db0       _PINPOK_MOD_mp_PINPOK$ITHNDL.0.2 0060fdb0     part_utils_f:pinpok.obj
 0004:00027db4       _PART11SP$ITHNDL.0.1       0060fdb4     part_utils_f:part11sp.obj
 0004:00027db8       _BOOMBOUNCE$ITHNDL.0.1     0060fdb8     part_utils_f:boombounce.obj
 0004:00027dbc       _WAIT_MOD_mp_WAIT$ITHNDL.0.2 0060fdbc     part_utils_f:wait.obj
 0004:00027dc0       _GET_KEY_MOD_mp_GET_INT_KEY$KEY_VALUE.0.2 0060fdc0     part_utils_f:get_key.obj
 0004:00027e88       _GET_KEY_MOD_mp_GET_INT_KEY$ITHNDL.0.2 0060fe88     part_utils_f:get_key.obj
 0004:00027e8c       _GET_KEY_MOD_mp_GET_INT_KEY$FORM.0.2 0060fe8c     part_utils_f:get_key.obj
 0004:00027ea0       _GET_KEY_MOD_mp_GET_REAL_KEY$KEY_VALUE.0.3 0060fea0     part_utils_f:get_key.obj
 0004:00027f68       _GET_KEY_MOD_mp_GET_REAL_KEY$ITHNDL.0.3 0060ff68     part_utils_f:get_key.obj
 0004:00027f6c       _GET_KEY_MOD_mp_GET_REAL_KEY$FORM.0.3 0060ff6c     part_utils_f:get_key.obj
 0004:00027f80       _GET_KEY_MOD_mp_GET_STRING_KEY$LINE.0.4 0060ff80     part_utils_f:get_key.obj
 0004:00028060       _GET_KEY_MOD_mp_GET_STRING_KEY$LOWER_LINE.0.4 00610060     part_utils_f:get_key.obj
 0004:00028128       _GET_KEY_MOD_mp_GET_STRING_KEY$ITHNDL.0.4 00610128     part_utils_f:get_key.obj
 0004:00028140       _GET_INDEX$ITHNDL.0.1      00610140     part_utils_f:get_index.obj
 0004:00028160       _SKIP_COMMENT_LINES$LINE.0.1 00610160     part_utils_f:skip_comments.obj
 0004:00028228       _SKIP_COMMENT_LINES$ITHNDL.0.1 00610228     part_utils_f:skip_comments.obj
 0004:00028240       _LOWER_CASE$ITHNDL.0.1     00610240     part_utils_f:lower_case.obj
 0004:00028244       _FILTYP_MOD_mp_FILTYP$ITHNDL.0.2 00610244     part_io_f:filtyp.obj
 0004:00028260       _RDFNAM$FINAME.0.1         00610260     part_io_f:rdfnam.obj
 0004:00028360       _RDFNAM$ITHNDL.0.1         00610360     part_io_f:rdfnam.obj
 0004:00028364       _RDFNAM$CCHAR_SAVE.0.1     00610364     part_io_f:rdfnam.obj
 0004:00028380       _REPORT_DATE_TIME$ITHNDL.0.1 00610380     part_io_f:report_date_time.obj
 0004:00028384       _REPORT_DATE_TIME$TIJD.0.1 00610384     part_io_f:report_date_time.obj
 0004:0002838e       _REPORT_DATE_TIME$DATUM.0.1 0061038e     part_io_f:report_date_time.obj
 0004:00028398       _RDLGRI$ITHNDL.0.1         00610398     part_io_f:rdlgri.obj
 0004:0002839c       _RDCCOL$ITHNDL.0.1         0061039c     part_io_f:rdccol.obj
 0004:000283a0       _RDHYDR_MOD_mp_RDHYDR$ITHNDL.0.2 006103a0     part_io_f:rdhydr.obj
 0004:000283a4       _RDHYDR_MOD_mp_RDHYDR$LUNUT.0.2 006103a4     part_io_f:rdhydr.obj
 0004:000283a8       _RDHYDR_MOD_mp_RDHYDR$IFFLAG.0.2 006103a8     part_io_f:rdhydr.obj
 0004:000283ac       _RDHYDR_MOD_mp_RDHYDR$UPDATV.0.2 006103ac     part_io_f:rdhydr.obj
 0004:000283b0       _RDHYDR_MOD_mp_RDHYDR$ISFLAG.0.2 006103b0     part_io_f:rdhydr.obj
 0004:000283b4       _RDHYDR_MOD_mp_RDHYDR$LBLOCK.0.2 006103b4     part_io_f:rdhydr.obj
 0004:000283b8       _RDHYDR_MOD_mp_RDHYDR$ITIMV2.0.2 006103b8     part_io_f:rdhydr.obj
 0004:000283bc       _RDHYDR_MOD_mp_RDHYDR$ITIMV1.0.2 006103bc     part_io_f:rdhydr.obj
 0004:000283c0       _RDHYDR_MOD_mp_RDHYDR$IDTIMV.0.2 006103c0     part_io_f:rdhydr.obj
 0004:000283c4       _RDHYDR_MOD_mp_RDHYDR$UPDATF.0.2 006103c4     part_io_f:rdhydr.obj
 0004:000283c8       _RDHYDR_MOD_mp_RDHYDR$ITIMF2.0.2 006103c8     part_io_f:rdhydr.obj
 0004:000283cc       _RDHYDR_MOD_mp_RDHYDR$ITIMF1.0.2 006103cc     part_io_f:rdhydr.obj
 0004:000283d0       _RDHYDR_MOD_mp_RDHYDR$IDTIMF.0.2 006103d0     part_io_f:rdhydr.obj
 0004:000283d4       _RDHYDR_MOD_mp_RDHYDR$UPDATD.0.2 006103d4     part_io_f:rdhydr.obj
 0004:000283d8       _RDHYDR_MOD_mp_RDHYDR$ITIMD2.0.2 006103d8     part_io_f:rdhydr.obj
 0004:000283dc       _RDHYDR_MOD_mp_RDHYDR$ITIMD1.0.2 006103dc     part_io_f:rdhydr.obj
 0004:000283e0       _RDHYDR_MOD_mp_RDHYDR$IDTIMD.0.2 006103e0     part_io_f:rdhydr.obj
 0004:000283e4       _RDHYDR_MOD_mp_RDHYDR$ITIMT2.0.2 006103e4     part_io_f:rdhydr.obj
 0004:000283e8       _RDHYDR_MOD_mp_RDHYDR$ITIMT1.0.2 006103e8     part_io_f:rdhydr.obj
 0004:000283ec       _RDHYDR_MOD_mp_RDHYDR$IDTIMT.0.2 006103ec     part_io_f:rdhydr.obj
 0004:000283f0       _RDHYDR_MOD_mp_RDHYDR$IT1.0.2 006103f0     part_io_f:rdhydr.obj
 0004:000283f4       _RDHYDR_MOD_mp_RDHYDR$IT2.0.2 006103f4     part_io_f:rdhydr.obj
 0004:000283f8       _RDHYDR_MOD_mp_RDHYDR$IDELT1.0.2 006103f8     part_io_f:rdhydr.obj
 0004:00028400       _RDPART$CBUFFER.0.6        00610400     part_io_f:rdpart.obj
 0004:00028500       _RDPART$CWORK.0.6          00610500     part_io_f:rdpart.obj
 0004:00028520       _RDPART$ITHNDL.0.6         00610520     part_io_f:rdpart.obj
 0004:00028524       _RDPART$CCHAR_SAVE.0.6     00610524     part_io_f:rdpart.obj
 0004:00028525       _RDPART$FILVERS.0.6        00610525     part_io_f:rdpart.obj
 0004:00028545       _RDPART$CPLASTIC.0.6       00610545     part_io_f:rdpart.obj
 0004:00028560       _GETDIM_DIS$LINE.0.2       00610560     part_io_f:rdpart.obj
 0004:00028640       _MORE_DATA$LINE.0.1        00610640     part_io_f:rdpart.obj
 0004:00028720       _GETDIM_INI$LINE.0.3       00610720     part_io_f:rdpart.obj
 0004:000287e8       _GETDIM_INI$KEY.0.3        006107e8     part_io_f:rdpart.obj
 0004:000287fc       _GETDIM_ASC$KEY.0.4        006107fc     part_io_f:rdpart.obj
 0004:00028820       _GETDPS$ITHNDL.0.1         00610820     part_io_f:getdps.obj
 0004:00028830       _WRTTRK$ELT_DIMS.0.1       00610830     part_io_f:wrttrk.obj
 0004:00028860       _WRTTRK$ITHNDL.0.1         00610860     part_io_f:wrttrk.obj
 0004:00028864       _WRTTRK$CELIDT.0.1         00610864     part_io_f:wrttrk.obj
 0004:00028868       _WRTTRK$ERRMSG.0.1         00610868     part_io_f:wrttrk.obj
 0004:00028870       _OPENFL_MOD_mp_OPENFL$ITHNDL.0.2 00610870     part_io_f:openfl.obj
 0004:00028880       _PART12_MOD_mp_PART12$FILNAM.0.2 00610880     part_io_f:part12.obj
 0004:00028980       _PART12_MOD_mp_PART12$DNAME.0.2 00610980     part_io_f:part12.obj
 0004:000289a0       _PART12_MOD_mp_PART12$ITOFF.0.2 006109a0     part_io_f:part12.obj
 0004:000289c0       _PART12_MOD_mp_PART12$NOSIZE.0.2 006109c0     part_io_f:part12.obj
 0004:000289d8       _PART12_MOD_mp_PART12$ITHNDL.0.2 006109d8     part_io_f:part12.obj
 0004:000289dc       _PART12_MOD_mp_PART12$NOSEG.0.2 006109dc     part_io_f:part12.obj
 0004:000289e0       _PART12_MOD_mp_PART12$GRNAM1.0.2 006109e0     part_io_f:part12.obj
 0004:000289f0       _PART12_MOD_mp_PART12$GRNAM2.0.2 006109f0     part_io_f:part12.obj
 0004:00028a00       _PART12_MOD_mp_PART12$TYPE.0.2 00610a00     part_io_f:part12.obj
 0004:00028a14       ___kmpv_zero_PART12_MOD_mp_PART12_0 00610a14     part_io_f:part12.obj
 0004:00028a20       _PART13_MOD_mp_PART13$FILNAM.0.2 00610a20     part_io_f:part13.obj
 0004:00028b20       _PART13_MOD_mp_PART13$NPLAY.0.2 00610b20     part_io_f:part13.obj
 0004:00028cb0       _PART13_MOD_mp_PART13$WINDOW.0.2 00610cb0     part_io_f:part13.obj
 0004:00028cc0       _PART13_MOD_mp_PART13$THICKN.0.2 00610cc0     part_io_f:part13.obj
 0004:00028cd0       _PART13_MOD_mp_PART13$ITOFF.0.2 00610cd0     part_io_f:part13.obj
 0004:00028cf0       _PART13_MOD_mp_PART13$DNAME.0.2 00610cf0     part_io_f:part13.obj
 0004:00028d10       _PART13_MOD_mp_PART13$NOSIZE.0.2 00610d10     part_io_f:part13.obj
 0004:00028d30       _PART13_MOD_mp_PART13$FILVER.0.2 00610d30     part_io_f:part13.obj
 0004:00028d50       _PART13_MOD_mp_PART13$FILVERS.0.2 00610d50     part_io_f:part13.obj
 0004:00028d64       _PART13_MOD_mp_PART13$ITHNDL.0.2 00610d64     part_io_f:part13.obj
 0004:00028d68       _PART13_MOD_mp_PART13$WINDW1.0.2 00610d68     part_io_f:part13.obj
 0004:00028d6c       _PART13_MOD_mp_PART13$WINDW3.0.2 00610d6c     part_io_f:part13.obj
 0004:00028d70       _PART13_MOD_mp_PART13$XPF.0.2 00610d70     part_io_f:part13.obj
 0004:00028d74       _PART13_MOD_mp_PART13$YPF.0.2 00610d74     part_io_f:part13.obj
 0004:00028d78       _PART13_MOD_mp_PART13$HLPTX2.0.2 00610d78     part_io_f:part13.obj
 0004:00028d7c       _PART13_MOD_mp_PART13$GRNAM1.0.2 00610d7c     part_io_f:part13.obj
 0004:00028d8c       _PART13_MOD_mp_PART13$GRNAM2.0.2 00610d8c     part_io_f:part13.obj
 0004:00028d9c       _PART13_MOD_mp_PART13$GRNAM3.0.2 00610d9c     part_io_f:part13.obj
 0004:00028dac       _PART13_MOD_mp_PART13$TYPE.0.2 00610dac     part_io_f:part13.obj
 0004:00028dc0       _PARTHS_MOD_mp_PARTHS$WINDOW.0.2 00610dc0     part_io_f:parths.obj
 0004:00028dd0       _PARTHS_MOD_mp_PARTHS$THICKN.0.2 00610dd0     part_io_f:parths.obj
 0004:00028dd8       _PARTHS_MOD_mp_PARTHS$ITHNDL.0.2 00610dd8     part_io_f:parths.obj
 0004:00028ddc       _PARTHS_MOD_mp_PARTHS$WINDW1.0.2 00610ddc     part_io_f:parths.obj
 0004:00028de0       _PARTHS_MOD_mp_PARTHS$WINDW3.0.2 00610de0     part_io_f:parths.obj
 0004:00028de4       _PARTHS_MOD_mp_PARTHS$XPF.0.2 00610de4     part_io_f:parths.obj
 0004:00028de8       _PARTHS_MOD_mp_PARTHS$YPF.0.2 00610de8     part_io_f:parths.obj
 0004:00028dec       _PARTHS_MOD_mp_PARTHS$LPLGR.0.2 00610dec     part_io_f:parths.obj
 0004:00028e00       _WRITRK_MOD_mp_WRITRK$ELT_DIMS.0.2 00610e00     part_io_f:writrk.obj
 0004:00028f20       _WRITRK_MOD_mp_WRITRK$FORMT.0.2 00610f20     part_io_f:writrk.obj
 0004:00028f70       _WRITRK_MOD_mp_WRITRK$IVAL.0.2 00610f70     part_io_f:writrk.obj
 0004:00028f78       _WRITRK_MOD_mp_WRITRK$CDUM16.0.2 00610f78     part_io_f:writrk.obj
 0004:00028f88       _WRITRK_MOD_mp_WRITRK$ITHNDL.0.2 00610f88     part_io_f:writrk.obj
 0004:00028f8c       _WRITRK_MOD_mp_WRITRK$CELIDT.0.2 00610f8c     part_io_f:writrk.obj
 0004:00028f90       _WRITRK_MOD_mp_WRITRK$ERRMSG.0.2 00610f90     part_io_f:writrk.obj
 0004:00028f96       _WRITRK_MOD_mp_WRITRK$SIMDAT.0.2 00610f96     part_io_f:writrk.obj
 0004:00028fc0       _DELETE_FILE_MOD_mp_DELETE_FILE$ITHNDL.0.2 00610fc0     part_io_f:delete_file.obj
 0004:00028fe0       _TIMESPACE_READ_mp_REACURTIM$REC.0.7 00610fe0     part_io_f:meteo1.obj
 0004:00029064       _TIMESPACE_READ_mp_REACURTIM$KEYWRD.0.7 00611064     part_io_f:meteo1.obj
 0004:00029080       _TIMESPACE_READ_mp_READCURVIHEADER$REC.0.15 00611080     part_io_f:meteo1.obj
 0004:00029120       _TIMESPACE_DATA_mp_READ1PLIZ$REC.0.32 00611120     part_io_f:meteo1.obj
 0004:00029220       _TIMESPACE_DATA_mp_CMPNUM$L.0.42 00611220     part_io_f:meteo1.obj
 0004:00029978       _TIMESPACE_DATA_mp_METEO_TIDEPOTENTIAL$INI.0.45 00611978     part_io_f:meteo1.obj
 0004:0002997c       _TIMESPACE_DATA_mp_METEO_TIDEPOTENTIAL$NDX2.0.45 0061197c     part_io_f:meteo1.obj
 0004:00029980       _TIMESPACE_DATA_mp_TFORCE$ELMNTS.0.46 00611980     part_io_f:meteo1.obj
 0004:000299c0       _TIMESPACE_DATA_mp_TFORCE$ITABLE.0.46 006119c0     part_io_f:meteo1.obj
 0004:0002d080       _TIMESPACE_DATA_mp_TFORCE$AMPS.0.46 00615080     part_io_f:meteo1.obj
 0004:0002e280       _TIMESPACE_DATA_mp_TFORCE$CAN.0.46 00616280     part_io_f:meteo1.obj
 0004:0002f480       _TIMESPACE_DATA_mp_TFORCE$SAN.0.46 00617480     part_io_f:meteo1.obj
 0004:00030680       _TIMESPACE_DATA_mp_TFORCE$CANSUM.0.46 00618680     part_io_f:meteo1.obj
 0004:000306c0       _TIMESPACE_DATA_mp_TFORCE$SANSUM.0.46 006186c0     part_io_f:meteo1.obj
 0004:00030700       _TIMESPACE_DATA_mp_TFORCE$RECS.0.46 00618700     part_io_f:meteo1.obj
 0004:000352a0       _TIMESPACE_DATA_mp_TFORCE$RECORD.0.46 0061d2a0     part_io_f:meteo1.obj
 0004:00035300       _TIMESPACE_DATA_mp_TFORCE$POL1.0.46 0061d300     part_io_f:meteo1.obj
 0004:00035340       _TIMESPACE_DATA_mp_TFORCE$FACTORIAL.0.46 0061d340     part_io_f:meteo1.obj
 0004:00035380       _TIMESPACE_DATA_mp_TFORCE$RKLOVE.0.46 0061d380     part_io_f:meteo1.obj
 0004:000353a0       _TIMESPACE_DATA_mp_TFORCE$RHLOVE.0.46 0061d3a0     part_io_f:meteo1.obj
 0004:000353c0       _TIMESPACE_DATA_mp_TFORCE$FACTOR.0.46 0061d3c0     part_io_f:meteo1.obj
 0004:000353d0       _TIMESPACE_DATA_mp_TFORCE$KK.0.46 0061d3d0     part_io_f:meteo1.obj
 0004:00035400       _TIMESPACE_DATA_mp_TFORCE$SM1.0.46 0061d400     part_io_f:meteo1.obj
 0004:00035420       _TIMESPACE_DATA_mp_TFORCE$CM1.0.46 0061d420     part_io_f:meteo1.obj
 0004:00035440       _TIMESPACE_DATA_mp_TFORCE$IRC.0.46 0061d440     part_io_f:meteo1.obj
 0004:00035444       _TIMESPACE_DATA_mp_TFORCE$NTABLE.0.46 0061d444     part_io_f:meteo1.obj
 0004:00035450       _TIMESPACE_TRIANGLE_mp_TRIINT_Z1D$ZP.0.55 0061d450     part_io_f:meteo1.obj
 0004:00035470       _TIMESPACE_TRIANGLE_mp_TRIINT_Z1D$INDXP.0.55 0061d470     part_io_f:meteo1.obj
 0004:00035480       _TIMESPACE_DATA_mp_ADDPROVIDER$QIDC.0.26 0061d480     part_io_f:meteo1.obj
 0004:00035580       _TIMESPACE_DATA_mp_ADDPROVIDER$FILENAME0.0.26 0061d580     part_io_f:meteo1.obj
 0004:00035680       _TIMESPACE_DATA_mp_ADDPROVIDER$NUM00.0.26 0061d680     part_io_f:meteo1.obj
 0004:00035684       _TIMESPACE_DATA_mp_ADDPROVIDER$OPERAND0.0.26 0061d684     part_io_f:meteo1.obj
 0004:00035685       _TIMESPACE_DATA_mp_ADDPROVIDER$TEX.0.26 0061d685     part_io_f:meteo1.obj
 0004:000356a0       _TIMESPACE_DATA_mp_READPROVIDER$KEYWRD.0.30 0061d6a0     part_io_f:meteo1.obj
 0004:000357a0       _TIMESPACE_DATA_mp_READPROVIDER$REC.0.30 0061d7a0     part_io_f:meteo1.obj
 0004:000358a0       _TIMESPACE_DATA_mp_ADDDATAPROVIDER$HFIELD.0.28 0061d8a0     part_io_f:meteo1.obj
 0004:000358c0       _TIMESPACE_DATA_mp_READFOURIERDIMS$REC.0.35 0061d8c0     part_io_f:meteo1.obj
 0004:000359c0       _TIMESPACE_DATA_mp_READFOURIERDIMS$COMPNAME.0.35 0061d9c0     part_io_f:meteo1.obj
 0004:000359e0       _TIMESPACE_READ_mp_READARCINFOHEADER$REC.0.12 0061d9e0     part_io_f:meteo1.obj
 0004:00035a64       _TIMESPACE_READ_mp_READARCINFOHEADER$KEYWORD.0.12 0061da64     part_io_f:meteo1.obj
 0004:00035a82       _TIMESPACE_READ_mp_READARCINFOHEADER$DUMMY.0.12 0061da82     part_io_f:meteo1.obj
 0004:00035aa0       _TIMESPACE_READ_mp_READARCINFOHEADER_D3D$REC.0.13 0061daa0     part_io_f:meteo1.obj
 0004:00035b40       _TIMESPACE_READ_mp_READARCINFOHEADER_D3D$GRIDFILE.0.13 0061db40     part_io_f:meteo1.obj
 0004:00035c08       _TIMESPACE_READ_mp_READARCINFOHEADER_D3D$KEYWORD.0.13 0061dc08     part_io_f:meteo1.obj
 0004:00035c26       _TIMESPACE_READ_mp_READARCINFOHEADER_D3D$DUMMY.0.13 0061dc26     part_io_f:meteo1.obj
 0004:00035c27       _TIMESPACE_READ_mp_READARCINFOHEADER_D3D$FILEVERSION.0.13 0061dc27     part_io_f:meteo1.obj
 0004:00035c2b       _TIMESPACE_READ_mp_READARCINFOHEADER_D3D$FILETYPE.0.13 0061dc2b     part_io_f:meteo1.obj
 0004:00035c53       _TIMESPACE_READ_mp_READARCINFOHEADER_D3D$FIRST_DATA_VALUE.0.13 0061dc53     part_io_f:meteo1.obj
 0004:00035c7b       _TIMESPACE_READ_mp_READARCINFOHEADER_D3D$DATA_ROW.0.13 0061dc7b     part_io_f:meteo1.obj
 0004:00035ca3       _TIMESPACE_READ_mp_READARCINFOHEADER_D3D$QUANTITY1.0.13 0061dca3     part_io_f:meteo1.obj
 0004:00035ccb       _TIMESPACE_READ_mp_READARCINFOHEADER_D3D$UNIT1.0.13 0061dccb     part_io_f:meteo1.obj
 0004:00035d00       _TIMESPACE_DATA_mp_READ1POLYLIN$REC.0.31 0061dd00     part_io_f:meteo1.obj
 0004:00035e00       _TIMESPACE_mp_GETTIMESPACEVALUE$UV.0.77 0061de00     part_io_f:meteo1.obj
 0004:00035f40       _TIMESPACE_mp_GETTIMESPACEVALUE$LOWERINDEX.0.77 0061df40     part_io_f:meteo1.obj
 0004:00035f50       _TIMESPACE_mp_GETTIMESPACEVALUE$UPPERINDEX.0.77 0061df50     part_io_f:meteo1.obj
 0004:00035f60       _TIMESPACE_mp_GETTIMESPACEVALUE$U.0.77 0061df60     part_io_f:meteo1.obj
 0004:00035f80       _TIMESPACE_mp_GETTIMESPACEVALUE$F.0.77 0061df80     part_io_f:meteo1.obj
 0004:00035fa0       _TIMESPACE_mp_GETTIMESPACEVALUE$V.0.77 0061dfa0     part_io_f:meteo1.obj
 0004:00035fc0       _TIMESPACE_mp_GETTIMESPACEVALUE$OPERAND.0.77 0061dfc0     part_io_f:meteo1.obj
 0004:00035fc8       _TIMESPACE_mp_UPDATETIMESPACEPROVIDERS$DATAPROVIDER.0.75 0061dfc8     part_io_f:meteo1.obj
 0004:00035fcc       _TIMESPACE_mp_UPDATEPROVIDER$NCHECKPREV.0.76 0061dfcc     part_io_f:meteo1.obj
 0004:00035fe0       _TIMESPACE_DATA_mp_READFOURIERCOMPSTIM$REC.0.37 0061dfe0     part_io_f:meteo1.obj
 0004:000360e0       _TIMESPACE_DATA_mp_READFOURIERCOMPSTIM$COMPNAME.0.37 0061e0e0     part_io_f:meteo1.obj
 0004:00036100       _TIMESPACE_READ_mp_REAARCTIM$REC.0.4 0061e100     part_io_f:meteo1.obj
 0004:00036184       _TIMESPACE_READ_mp_REAARCTIM$KEYWRD.0.4 0061e184     part_io_f:meteo1.obj
 0004:000361a0       _TIMESPACE_READ_mp_READARCINFOBLOCK$REC.0.6 0061e1a0     part_io_f:meteo1.obj
 0004:000373a0       _TIMESPACE_READ_mp_READCURVIBLOCK$REC.0.8 0061f3a0     part_io_f:meteo1.obj
 0004:000385a0       _TIMESPACE_READ_mp_READSERIES$REC.0.9 006205a0     part_io_f:meteo1.obj
 0004:00038640       _TIMESPACE_READ_mp_REASPV$REC.0.10 00620640     part_io_f:meteo1.obj
 0004:000386e0       _TIMESPACE_READ_mp_REASPWTIM$REC.0.11 006206e0     part_io_f:meteo1.obj
 0004:00038780       _TIMESPACE_READ_mp_REASPWHEADER$REC.0.14 00620780     part_io_f:meteo1.obj
 0004:00038820       _TIMESPACE_DATA_mp_CONNECTSINGLESTATIONFILE$QID0.0.27 00620820     part_io_f:meteo1.obj
 0004:00038920       _TIMESPACE_DATA_mp_CONNECTSINGLESTATIONFILE$KEYWRD.0.27 00620920     part_io_f:meteo1.obj
 0004:00038a20       _TIMESPACE_DATA_mp_CONNECTSINGLESTATIONFILE$REC.0.27 00620a20     part_io_f:meteo1.obj
 0004:00038b20       _TIMESPACE_DATA_mp_ASC$KOMBES.0.39 00620b20     part_io_f:meteo1.obj
 0004:0003d440       _TIMESPACE_DATA_mp_ASC$KNAAM.0.39 00625440     part_io_f:meteo1.obj
 0004:0003dba0       _TIMESPACE_DATA_mp_ASC$JNAAM.0.39 00625ba0     part_io_f:meteo1.obj
 0004:00041620       _TIMESPACE_DATA_mp_DATUMI$RMD.0.40 00629620     part_io_f:meteo1.obj
 0004:00041680       _TIMESPACE_DATA_mp_ASC$V.0.39 00629680     part_io_f:meteo1.obj
 0004:00041700       _TIMESPACE_DATA_mp_ASC$F.0.39 00629700     part_io_f:meteo1.obj
 0004:000417d0       _TIMESPACE_DATA_mp_CONNECTSINGLESTATIONFILE$TRANSFORMCOEF0.0.27 006297d0     part_io_f:meteo1.obj
 0004:000417e0       _TIMESPACE_DATA_mp_ASC$JDATUM.0.39 006297e0     part_io_f:meteo1.obj
 0004:00041800       _TIMESPACE_DATA_mp_ASC$W.0.39 00629800     part_io_f:meteo1.obj
 0004:00041810       _TIMESPACE_DATA_mp_ASC$V0U.0.39 00629810     part_io_f:meteo1.obj
 0004:00041820       _TIMESPACE_DATA_mp_ASC$FR.0.39 00629820     part_io_f:meteo1.obj
 0004:00041830       _TIMESPACE_TRIANGLE_mp_FINDTRI_INDICES_WEIGHTS$XT.0.57 00629830     part_io_f:meteo1.obj
 0004:00041850       _TIMESPACE_TRIANGLE_mp_FINDTRI_INDICES_WEIGHTS$YT.0.57 00629850     part_io_f:meteo1.obj
 0004:00041868       _TIMESPACE_TRIANGLE_mp_FINDTRI_INDICES_WEIGHTS$NROLDFIND.0.57 00629868     part_io_f:meteo1.obj
 0004:0004186c       _TIMESPACE_READ_mp_READGRID$HEADER.0.5 0062986c     part_io_f:meteo1.obj
 0004:00041876       _TIMESPACE_READ_mp_READGRID$DUMMY.0.5 00629876     part_io_f:meteo1.obj
 0004:00041877       _TIMESPACE_READ_mp_READARCINFOBLOCK$TEX.0.6 00629877     part_io_f:meteo1.obj
 0004:00041887       _TIMESPACE_READ_mp_READCURVIBLOCK$TEX.0.8 00629887     part_io_f:meteo1.obj
 0004:000418a0       _GENFIL_MOD_mp_GENFIL$ITHNDL.0.2 006298a0     part_io_f:genfil.obj
 0004:000418c0       _RDHYD$LINE.0.2            006298c0     part_io_f:rdhyd.obj
 0004:00041cc0       _RDHYD$TOKEN1.0.2          00629cc0     part_io_f:rdhyd.obj
 0004:00041d20       _RDHYD$TOKEN2.0.2          00629d20     part_io_f:rdhyd.obj
 0004:00041d70       _RDHYD$ITHNDL.0.2          00629d70     part_io_f:rdhyd.obj
 0004:00041d80       _DD_PREPARE$ITHNDL.0.2     00629d80     part_io_f:dd_prepare.obj
 0004:00041d84       _DLWQTD$ITHNDL.0.1         00629d84     part_io_f:dlwqtd.obj
 0004:00041d88       _DLWQFL$ITHNDL.0.1         00629d88     part_io_f:dlwqfl.obj
 0004:00041d8c       _DLWQBL$ITHNDL.0.1         00629d8c     part_io_f:dlwqbl.obj
 0004:00041da0       _RDWND$FINAMX.0.1          00629da0     part_io_f:rdwnd.obj
 0004:00041e20       _RDWND$FINAMY.0.1          00629e20     part_io_f:rdwnd.obj
 0004:00041ea0       _RDWND$TCOEF.0.1           00629ea0     part_io_f:rdwnd.obj
 0004:00041eb0       _RDWND$ITHNDL.0.1          00629eb0     part_io_f:rdwnd.obj
 0004:00041eb4       _RDWND$OPERA.0.1           00629eb4     part_io_f:rdwnd.obj
 0004:00041eb5       _RDWND$QID.0.1             00629eb5     part_io_f:rdwnd.obj
 0004:00041ec0       _FILLDM_MOD_mp_FILLDM$ITHNDL.0.2 00629ec0     part_io_f:filldm.obj
 0004:00041ed0       _PUTGET_MOD_mp_PUTGET_INT$BUFFR.0.2 00629ed0     part_io_f:putget.obj
 0004:00041ed4       _PUTGET_MOD_mp_PUTGET_INT$ITHNDL.0.2 00629ed4     part_io_f:putget.obj
 0004:00041ed8       _PUTGET_MOD_mp_PUTGET_INT1D$ITHNDL.0.3 00629ed8     part_io_f:putget.obj
 0004:00041edc       _PUTGET_MOD_mp_PUTGET_INT2D$ITHNDL.0.4 00629edc     part_io_f:putget.obj
 0004:00041ee0       _PUTGET_MOD_mp_PUTGET_REAL$BUFFR.0.5 00629ee0     part_io_f:putget.obj
 0004:00041ee4       _PUTGET_MOD_mp_PUTGET_REAL$ITHNDL.0.5 00629ee4     part_io_f:putget.obj
 0004:00041ee8       _PUTGET_MOD_mp_PUTGET_REAL1D$ITHNDL.0.6 00629ee8     part_io_f:putget.obj
 0004:00041eec       _PUTGET_MOD_mp_PUTGET_REAL2D$ITHNDL.0.7 00629eec     part_io_f:putget.obj
 0004:00041ef0       _PUTGET_MOD_mp_PUTGET_CHAR$ITHNDL.0.8 00629ef0     part_io_f:putget.obj
 0004:00041ef4       _PUTGET_MOD_mp_PUTGET_CHAR1D$ITHNDL.0.9 00629ef4     part_io_f:putget.obj
 0004:00041f00       _DLPR12_MOD_mp_DLPR12$FILNAM.0.2 00629f00     part_io_f:dlpr12.obj
 0004:00042000       _DLPR12_MOD_mp_DLPR12$WINDOW.0.2 0062a000     part_io_f:dlpr12.obj
 0004:00042010       _DLPR12_MOD_mp_DLPR12$ITOFF.0.2 0062a010     part_io_f:dlpr12.obj
 0004:00042030       _DLPR12_MOD_mp_DLPR12$NOSIZE.0.2 0062a030     part_io_f:dlpr12.obj
 0004:00042048       _DLPR12_MOD_mp_DLPR12$ITHNDL.0.2 0062a048     part_io_f:dlpr12.obj
 0004:0004204c       _DLPR12_MOD_mp_DLPR12$SUBSTANCE.0.2 0062a04c     part_io_f:dlpr12.obj
 0004:00042060       _DLPR12_MOD_mp_DLPR12$GRNAM1.0.2 0062a060     part_io_f:dlpr12.obj
 0004:00042070       _DLPR12_MOD_mp_DLPR12$GRNAM2.0.2 0062a070     part_io_f:dlpr12.obj
 0004:00042080       _DLPR12_MOD_mp_DLPR12$TYPE.0.2 0062a080     part_io_f:dlpr12.obj
 0004:000420a0       _ZOEKOPT$REC.0.7           0062a0a0     part_io_f:meteo1temphelpers.obj
 0004:0004219f       _NEWFIL$RW.0.15            0062a19f     part_io_f:meteo1temphelpers.obj
 0004:000421c0       _ZOEKVAL$REC.0.16          0062a1c0     part_io_f:meteo1temphelpers.obj
 0004:000422e0       _M_ALLOC_mp_REALLOCREAL2X$UINDEX.0.2 0062a2e0     part_io_f:malloc.obj
 0004:000422f0       _M_ALLOC_mp_REALLOCREAL2X$LINDEX.0.2 0062a2f0     part_io_f:malloc.obj
 0004:00042300       _M_ALLOC_mp_REALLOCDOUBLE2X$UINDEX.0.3 0062a300     part_io_f:malloc.obj
 0004:00042310       _M_ALLOC_mp_REALLOCDOUBLE2X$LINDEX.0.3 0062a310     part_io_f:malloc.obj
 0004:00042320       _M_ALLOC_mp_REALLOCINT2X$UINDEX.0.4 0062a320     part_io_f:malloc.obj
 0004:00042330       _M_ALLOC_mp_REALLOCINT2X$LINDEX.0.4 0062a330     part_io_f:malloc.obj
 0004:00042340       _M_ALLOC_mp_REALLOCCHARACTER2X$UINDEX.0.5 0062a340     part_io_f:malloc.obj
 0004:00042350       _M_ALLOC_mp_REALLOCCHARACTER2X$LINDEX.0.5 0062a350     part_io_f:malloc.obj
 0004:00042360       _M_ALLOC_mp_REALLOCREAL3X$UINDEX.0.6 0062a360     part_io_f:malloc.obj
 0004:00042370       _M_ALLOC_mp_REALLOCREAL3X$LINDEX.0.6 0062a370     part_io_f:malloc.obj
 0004:00042380       _M_ALLOC_mp_REALLOCPINT2$LINDEX_.0.9 0062a380     part_io_f:malloc.obj
 0004:00042390       _M_ALLOC_mp_REALLOCPINT2$SHIFT_.0.9 0062a390     part_io_f:malloc.obj
 0004:000423a0       _M_ALLOC_mp_REALLOCPINT2$LIND.0.9 0062a3a0     part_io_f:malloc.obj
 0004:000423b0       _M_ALLOC_mp_REALLOCPINT2$UIND.0.9 0062a3b0     part_io_f:malloc.obj
 0004:000423c0       _M_ALLOC_mp_REALLOCPINT2$MLIND.0.9 0062a3c0     part_io_f:malloc.obj
 0004:000423d0       _M_ALLOC_mp_REALLOCPINT2$MUIND.0.9 0062a3d0     part_io_f:malloc.obj
 0004:000423e0       _M_ALLOC_mp_REALLOCPINT3$LINDEX_.0.11 0062a3e0     part_io_f:malloc.obj
 0004:000423f0       _M_ALLOC_mp_REALLOCPINT3$SHIFT_.0.11 0062a3f0     part_io_f:malloc.obj
 0004:00042400       _M_ALLOC_mp_REALLOCPINT3$UIND.0.11 0062a400     part_io_f:malloc.obj
 0004:00042410       _M_ALLOC_mp_REALLOCPINT3$LIND.0.11 0062a410     part_io_f:malloc.obj
 0004:00042420       _M_ALLOC_mp_REALLOCPINT3$MLIND.0.11 0062a420     part_io_f:malloc.obj
 0004:00042430       _M_ALLOC_mp_REALLOCPINT3$MUIND.0.11 0062a430     part_io_f:malloc.obj
 0004:00042440       _M_ALLOC_mp_REALLOCINT3$LINDEX_.0.12 0062a440     part_io_f:malloc.obj
 0004:00042450       _M_ALLOC_mp_REALLOCINT3$SHIFT_.0.12 0062a450     part_io_f:malloc.obj
 0004:00042460       _M_ALLOC_mp_REALLOCINT3$UIND.0.12 0062a460     part_io_f:malloc.obj
 0004:00042470       _M_ALLOC_mp_REALLOCINT3$LIND.0.12 0062a470     part_io_f:malloc.obj
 0004:00042480       _M_ALLOC_mp_REALLOCINT3$MLIND.0.12 0062a480     part_io_f:malloc.obj
 0004:00042490       _M_ALLOC_mp_REALLOCINT3$MUIND.0.12 0062a490     part_io_f:malloc.obj
 0004:000424a0       _M_ALLOC_mp_REALLOCPINT4$LINDEX_.0.13 0062a4a0     part_io_f:malloc.obj
 0004:000424b0       _M_ALLOC_mp_REALLOCPINT4$SHIFT_.0.13 0062a4b0     part_io_f:malloc.obj
 0004:000424c0       _M_ALLOC_mp_REALLOCPINT4$UIND.0.13 0062a4c0     part_io_f:malloc.obj
 0004:000424d0       _M_ALLOC_mp_REALLOCPINT4$LIND.0.13 0062a4d0     part_io_f:malloc.obj
 0004:000424e0       _M_ALLOC_mp_REALLOCPINT4$MLIND.0.13 0062a4e0     part_io_f:malloc.obj
 0004:000424f0       _M_ALLOC_mp_REALLOCPINT4$MUIND.0.13 0062a4f0     part_io_f:malloc.obj
 0004:00042500       _M_ALLOC_mp_REALLOCINT4$LINDEX_.0.14 0062a500     part_io_f:malloc.obj
 0004:00042510       _M_ALLOC_mp_REALLOCINT4$SHIFT_.0.14 0062a510     part_io_f:malloc.obj
 0004:00042520       _M_ALLOC_mp_REALLOCINT4$UIND.0.14 0062a520     part_io_f:malloc.obj
 0004:00042530       _M_ALLOC_mp_REALLOCINT4$LIND.0.14 0062a530     part_io_f:malloc.obj
 0004:00042540       _M_ALLOC_mp_REALLOCINT4$MLIND.0.14 0062a540     part_io_f:malloc.obj
 0004:00042550       _M_ALLOC_mp_REALLOCINT4$MUIND.0.14 0062a550     part_io_f:malloc.obj
 0004:00042560       _M_ALLOC_mp_REALLOCPCHARACTER2$LINDEX_.0.17 0062a560     part_io_f:malloc.obj
 0004:00042570       _M_ALLOC_mp_REALLOCPCHARACTER2$SHIFT_.0.17 0062a570     part_io_f:malloc.obj
 0004:00042580       _M_ALLOC_mp_REALLOCPCHARACTER2$LIND.0.17 0062a580     part_io_f:malloc.obj
 0004:00042590       _M_ALLOC_mp_REALLOCPCHARACTER2$UIND.0.17 0062a590     part_io_f:malloc.obj
 0004:000425a0       _M_ALLOC_mp_REALLOCPCHARACTER2$MLIND.0.17 0062a5a0     part_io_f:malloc.obj
 0004:000425b0       _M_ALLOC_mp_REALLOCPCHARACTER2$MUIND.0.17 0062a5b0     part_io_f:malloc.obj
 0004:000425c0       _M_ALLOC_mp_REALLOCPCHARACTER3$LINDEX_.0.19 0062a5c0     part_io_f:malloc.obj
 0004:000425d0       _M_ALLOC_mp_REALLOCPCHARACTER3$SHIFT_.0.19 0062a5d0     part_io_f:malloc.obj
 0004:000425e0       _M_ALLOC_mp_REALLOCPCHARACTER3$UIND.0.19 0062a5e0     part_io_f:malloc.obj
 0004:000425f0       _M_ALLOC_mp_REALLOCPCHARACTER3$LIND.0.19 0062a5f0     part_io_f:malloc.obj
 0004:00042600       _M_ALLOC_mp_REALLOCPCHARACTER3$MLIND.0.19 0062a600     part_io_f:malloc.obj
 0004:00042610       _M_ALLOC_mp_REALLOCPCHARACTER3$MUIND.0.19 0062a610     part_io_f:malloc.obj
 0004:00042620       _M_ALLOC_mp_REALLOCCHARACTER3$LINDEX_.0.20 0062a620     part_io_f:malloc.obj
 0004:00042630       _M_ALLOC_mp_REALLOCCHARACTER3$SHIFT_.0.20 0062a630     part_io_f:malloc.obj
 0004:00042640       _M_ALLOC_mp_REALLOCCHARACTER3$UIND.0.20 0062a640     part_io_f:malloc.obj
 0004:00042650       _M_ALLOC_mp_REALLOCCHARACTER3$LIND.0.20 0062a650     part_io_f:malloc.obj
 0004:00042660       _M_ALLOC_mp_REALLOCCHARACTER3$MLIND.0.20 0062a660     part_io_f:malloc.obj
 0004:00042670       _M_ALLOC_mp_REALLOCCHARACTER3$MUIND.0.20 0062a670     part_io_f:malloc.obj
 0004:00042680       _M_ALLOC_mp_REALLOCPCHARACTER4$LINDEX_.0.21 0062a680     part_io_f:malloc.obj
 0004:00042690       _M_ALLOC_mp_REALLOCPCHARACTER4$SHIFT_.0.21 0062a690     part_io_f:malloc.obj
 0004:000426a0       _M_ALLOC_mp_REALLOCPCHARACTER4$UIND.0.21 0062a6a0     part_io_f:malloc.obj
 0004:000426b0       _M_ALLOC_mp_REALLOCPCHARACTER4$LIND.0.21 0062a6b0     part_io_f:malloc.obj
 0004:000426c0       _M_ALLOC_mp_REALLOCPCHARACTER4$MLIND.0.21 0062a6c0     part_io_f:malloc.obj
 0004:000426d0       _M_ALLOC_mp_REALLOCPCHARACTER4$MUIND.0.21 0062a6d0     part_io_f:malloc.obj
 0004:000426e0       _M_ALLOC_mp_REALLOCCHARACTER4$LINDEX_.0.22 0062a6e0     part_io_f:malloc.obj
 0004:000426f0       _M_ALLOC_mp_REALLOCCHARACTER4$SHIFT_.0.22 0062a6f0     part_io_f:malloc.obj
 0004:00042700       _M_ALLOC_mp_REALLOCCHARACTER4$UIND.0.22 0062a700     part_io_f:malloc.obj
 0004:00042710       _M_ALLOC_mp_REALLOCCHARACTER4$LIND.0.22 0062a710     part_io_f:malloc.obj
 0004:00042720       _M_ALLOC_mp_REALLOCCHARACTER4$MLIND.0.22 0062a720     part_io_f:malloc.obj
 0004:00042730       _M_ALLOC_mp_REALLOCCHARACTER4$MUIND.0.22 0062a730     part_io_f:malloc.obj
 0004:00042740       _M_ALLOC_mp_REALLOCPREAL2$LINDEX_.0.25 0062a740     part_io_f:malloc.obj
 0004:00042750       _M_ALLOC_mp_REALLOCPREAL2$SHIFT_.0.25 0062a750     part_io_f:malloc.obj
 0004:00042760       _M_ALLOC_mp_REALLOCPREAL2$LIND.0.25 0062a760     part_io_f:malloc.obj
 0004:00042770       _M_ALLOC_mp_REALLOCPREAL2$UIND.0.25 0062a770     part_io_f:malloc.obj
 0004:00042780       _M_ALLOC_mp_REALLOCPREAL2$MLIND.0.25 0062a780     part_io_f:malloc.obj
 0004:00042790       _M_ALLOC_mp_REALLOCPREAL2$MUIND.0.25 0062a790     part_io_f:malloc.obj
 0004:000427a0       _M_ALLOC_mp_REALLOCPREAL3$LINDEX_.0.27 0062a7a0     part_io_f:malloc.obj
 0004:000427b0       _M_ALLOC_mp_REALLOCPREAL3$SHIFT_.0.27 0062a7b0     part_io_f:malloc.obj
 0004:000427c0       _M_ALLOC_mp_REALLOCPREAL3$UIND.0.27 0062a7c0     part_io_f:malloc.obj
 0004:000427d0       _M_ALLOC_mp_REALLOCPREAL3$LIND.0.27 0062a7d0     part_io_f:malloc.obj
 0004:000427e0       _M_ALLOC_mp_REALLOCPREAL3$MLIND.0.27 0062a7e0     part_io_f:malloc.obj
 0004:000427f0       _M_ALLOC_mp_REALLOCPREAL3$MUIND.0.27 0062a7f0     part_io_f:malloc.obj
 0004:00042800       _M_ALLOC_mp_REALLOCPREAL4$LINDEX_.0.29 0062a800     part_io_f:malloc.obj
 0004:00042810       _M_ALLOC_mp_REALLOCPREAL4$SHIFT_.0.29 0062a810     part_io_f:malloc.obj
 0004:00042820       _M_ALLOC_mp_REALLOCPREAL4$UIND.0.29 0062a820     part_io_f:malloc.obj
 0004:00042830       _M_ALLOC_mp_REALLOCPREAL4$LIND.0.29 0062a830     part_io_f:malloc.obj
 0004:00042840       _M_ALLOC_mp_REALLOCPREAL4$MLIND.0.29 0062a840     part_io_f:malloc.obj
 0004:00042850       _M_ALLOC_mp_REALLOCPREAL4$MUIND.0.29 0062a850     part_io_f:malloc.obj
 0004:00042860       _M_ALLOC_mp_REALLOCREAL4$LINDEX_.0.30 0062a860     part_io_f:malloc.obj
 0004:00042870       _M_ALLOC_mp_REALLOCREAL4$SHIFT_.0.30 0062a870     part_io_f:malloc.obj
 0004:00042880       _M_ALLOC_mp_REALLOCREAL4$UIND.0.30 0062a880     part_io_f:malloc.obj
 0004:00042890       _M_ALLOC_mp_REALLOCREAL4$LIND.0.30 0062a890     part_io_f:malloc.obj
 0004:000428a0       _M_ALLOC_mp_REALLOCREAL4$MLIND.0.30 0062a8a0     part_io_f:malloc.obj
 0004:000428b0       _M_ALLOC_mp_REALLOCREAL4$MUIND.0.30 0062a8b0     part_io_f:malloc.obj
 0004:000428c0       _M_ALLOC_mp_REALLOCPDOUBLE2$LINDEX_.0.33 0062a8c0     part_io_f:malloc.obj
 0004:000428d0       _M_ALLOC_mp_REALLOCPDOUBLE2$SHIFT_.0.33 0062a8d0     part_io_f:malloc.obj
 0004:000428e0       _M_ALLOC_mp_REALLOCPDOUBLE2$LIND.0.33 0062a8e0     part_io_f:malloc.obj
 0004:000428f0       _M_ALLOC_mp_REALLOCPDOUBLE2$UIND.0.33 0062a8f0     part_io_f:malloc.obj
 0004:00042900       _M_ALLOC_mp_REALLOCPDOUBLE2$MLIND.0.33 0062a900     part_io_f:malloc.obj
 0004:00042910       _M_ALLOC_mp_REALLOCPDOUBLE2$MUIND.0.33 0062a910     part_io_f:malloc.obj
 0004:00042920       _M_ALLOC_mp_REALLOCPDOUBLE3$LINDEX_.0.35 0062a920     part_io_f:malloc.obj
 0004:00042930       _M_ALLOC_mp_REALLOCPDOUBLE3$SHIFT_.0.35 0062a930     part_io_f:malloc.obj
 0004:00042940       _M_ALLOC_mp_REALLOCPDOUBLE3$UIND.0.35 0062a940     part_io_f:malloc.obj
 0004:00042950       _M_ALLOC_mp_REALLOCPDOUBLE3$LIND.0.35 0062a950     part_io_f:malloc.obj
 0004:00042960       _M_ALLOC_mp_REALLOCPDOUBLE3$MLIND.0.35 0062a960     part_io_f:malloc.obj
 0004:00042970       _M_ALLOC_mp_REALLOCPDOUBLE3$MUIND.0.35 0062a970     part_io_f:malloc.obj
 0004:00042980       _M_ALLOC_mp_REALLOCDOUBLE3$LINDEX_.0.36 0062a980     part_io_f:malloc.obj
 0004:00042990       _M_ALLOC_mp_REALLOCDOUBLE3$SHIFT_.0.36 0062a990     part_io_f:malloc.obj
 0004:000429a0       _M_ALLOC_mp_REALLOCDOUBLE3$UIND.0.36 0062a9a0     part_io_f:malloc.obj
 0004:000429b0       _M_ALLOC_mp_REALLOCDOUBLE3$LIND.0.36 0062a9b0     part_io_f:malloc.obj
 0004:000429c0       _M_ALLOC_mp_REALLOCDOUBLE3$MLIND.0.36 0062a9c0     part_io_f:malloc.obj
 0004:000429d0       _M_ALLOC_mp_REALLOCDOUBLE3$MUIND.0.36 0062a9d0     part_io_f:malloc.obj
 0004:000429e0       _M_ALLOC_mp_REALLOCPDOUBLE4$LINDEX_.0.37 0062a9e0     part_io_f:malloc.obj
 0004:000429f0       _M_ALLOC_mp_REALLOCPDOUBLE4$SHIFT_.0.37 0062a9f0     part_io_f:malloc.obj
 0004:00042a00       _M_ALLOC_mp_REALLOCPDOUBLE4$UIND.0.37 0062aa00     part_io_f:malloc.obj
 0004:00042a10       _M_ALLOC_mp_REALLOCPDOUBLE4$LIND.0.37 0062aa10     part_io_f:malloc.obj
 0004:00042a20       _M_ALLOC_mp_REALLOCPDOUBLE4$MLIND.0.37 0062aa20     part_io_f:malloc.obj
 0004:00042a30       _M_ALLOC_mp_REALLOCPDOUBLE4$MUIND.0.37 0062aa30     part_io_f:malloc.obj
 0004:00042a40       _M_ALLOC_mp_REALLOCDOUBLE4$LINDEX_.0.38 0062aa40     part_io_f:malloc.obj
 0004:00042a50       _M_ALLOC_mp_REALLOCDOUBLE4$SHIFT_.0.38 0062aa50     part_io_f:malloc.obj
 0004:00042a60       _M_ALLOC_mp_REALLOCDOUBLE4$UIND.0.38 0062aa60     part_io_f:malloc.obj
 0004:00042a70       _M_ALLOC_mp_REALLOCDOUBLE4$LIND.0.38 0062aa70     part_io_f:malloc.obj
 0004:00042a80       _M_ALLOC_mp_REALLOCDOUBLE4$MLIND.0.38 0062aa80     part_io_f:malloc.obj
 0004:00042a90       _M_ALLOC_mp_REALLOCDOUBLE4$MUIND.0.38 0062aa90     part_io_f:malloc.obj
 0004:00042aa0       _M_ALLOC_mp_REALLOCPLOGICAL2$LINDEX_.0.41 0062aaa0     part_io_f:malloc.obj
 0004:00042ab0       _M_ALLOC_mp_REALLOCPLOGICAL2$SHIFT_.0.41 0062aab0     part_io_f:malloc.obj
 0004:00042ac0       _M_ALLOC_mp_REALLOCPLOGICAL2$LIND.0.41 0062aac0     part_io_f:malloc.obj
 0004:00042ad0       _M_ALLOC_mp_REALLOCPLOGICAL2$UIND.0.41 0062aad0     part_io_f:malloc.obj
 0004:00042ae0       _M_ALLOC_mp_REALLOCPLOGICAL2$MLIND.0.41 0062aae0     part_io_f:malloc.obj
 0004:00042af0       _M_ALLOC_mp_REALLOCPLOGICAL2$MUIND.0.41 0062aaf0     part_io_f:malloc.obj
 0004:00042b00       _M_ALLOC_mp_REALLOCLOGICAL2$LINDEX_.0.42 0062ab00     part_io_f:malloc.obj
 0004:00042b10       _M_ALLOC_mp_REALLOCLOGICAL2$SHIFT_.0.42 0062ab10     part_io_f:malloc.obj
 0004:00042b20       _M_ALLOC_mp_REALLOCLOGICAL2$UIND.0.42 0062ab20     part_io_f:malloc.obj
 0004:00042b30       _M_ALLOC_mp_REALLOCLOGICAL2$LIND.0.42 0062ab30     part_io_f:malloc.obj
 0004:00042b40       _M_ALLOC_mp_REALLOCLOGICAL2$MUIND.0.42 0062ab40     part_io_f:malloc.obj
 0004:00042b50       _M_ALLOC_mp_REALLOCLOGICAL2$MLIND.0.42 0062ab50     part_io_f:malloc.obj
 0004:00042b60       _M_ALLOC_mp_REALLOCPLOGICAL3$LINDEX_.0.43 0062ab60     part_io_f:malloc.obj
 0004:00042b70       _M_ALLOC_mp_REALLOCPLOGICAL3$SHIFT_.0.43 0062ab70     part_io_f:malloc.obj
 0004:00042b80       _M_ALLOC_mp_REALLOCPLOGICAL3$UIND.0.43 0062ab80     part_io_f:malloc.obj
 0004:00042b90       _M_ALLOC_mp_REALLOCPLOGICAL3$LIND.0.43 0062ab90     part_io_f:malloc.obj
 0004:00042ba0       _M_ALLOC_mp_REALLOCPLOGICAL3$MLIND.0.43 0062aba0     part_io_f:malloc.obj
 0004:00042bb0       _M_ALLOC_mp_REALLOCPLOGICAL3$MUIND.0.43 0062abb0     part_io_f:malloc.obj
 0004:00042bc0       _M_ALLOC_mp_REALLOCLOGICAL3$LINDEX_.0.44 0062abc0     part_io_f:malloc.obj
 0004:00042bd0       _M_ALLOC_mp_REALLOCLOGICAL3$SHIFT_.0.44 0062abd0     part_io_f:malloc.obj
 0004:00042be0       _M_ALLOC_mp_REALLOCLOGICAL3$UIND.0.44 0062abe0     part_io_f:malloc.obj
 0004:00042bf0       _M_ALLOC_mp_REALLOCLOGICAL3$LIND.0.44 0062abf0     part_io_f:malloc.obj
 0004:00042c00       _M_ALLOC_mp_REALLOCLOGICAL3$MLIND.0.44 0062ac00     part_io_f:malloc.obj
 0004:00042c10       _M_ALLOC_mp_REALLOCLOGICAL3$MUIND.0.44 0062ac10     part_io_f:malloc.obj
 0004:00042c20       _M_ALLOC_mp_REALLOCPLOGICAL4$LINDEX_.0.45 0062ac20     part_io_f:malloc.obj
 0004:00042c30       _M_ALLOC_mp_REALLOCPLOGICAL4$SHIFT_.0.45 0062ac30     part_io_f:malloc.obj
 0004:00042c40       _M_ALLOC_mp_REALLOCPLOGICAL4$UIND.0.45 0062ac40     part_io_f:malloc.obj
 0004:00042c50       _M_ALLOC_mp_REALLOCPLOGICAL4$LIND.0.45 0062ac50     part_io_f:malloc.obj
 0004:00042c60       _M_ALLOC_mp_REALLOCPLOGICAL4$MLIND.0.45 0062ac60     part_io_f:malloc.obj
 0004:00042c70       _M_ALLOC_mp_REALLOCPLOGICAL4$MUIND.0.45 0062ac70     part_io_f:malloc.obj
 0004:00042c80       _M_ALLOC_mp_REALLOCLOGICAL4$LINDEX_.0.46 0062ac80     part_io_f:malloc.obj
 0004:00042c90       _M_ALLOC_mp_REALLOCLOGICAL4$SHIFT_.0.46 0062ac90     part_io_f:malloc.obj
 0004:00042ca0       _M_ALLOC_mp_REALLOCLOGICAL4$UIND.0.46 0062aca0     part_io_f:malloc.obj
 0004:00042cb0       _M_ALLOC_mp_REALLOCLOGICAL4$LIND.0.46 0062acb0     part_io_f:malloc.obj
 0004:00042cc0       _M_ALLOC_mp_REALLOCLOGICAL4$MLIND.0.46 0062acc0     part_io_f:malloc.obj
 0004:00042cd0       _M_ALLOC_mp_REALLOCLOGICAL4$MUIND.0.46 0062acd0     part_io_f:malloc.obj
 0004:00042ce0       .T2466_.0.26               0062ace0     part_io_f:malloc.obj
 0004:00042cf0       _M_ALLOC_mp_REALLOCREAL2$SHIFT_.0.26 0062acf0     part_io_f:malloc.obj
 0004:00042d00       _M_ALLOC_mp_REALLOCREAL2$LINDEX_.0.26 0062ad00     part_io_f:malloc.obj
 0004:00042d10       _M_ALLOC_mp_REALLOCREAL2$UIND.0.26 0062ad10     part_io_f:malloc.obj
 0004:00042d20       _M_ALLOC_mp_REALLOCREAL2$LIND.0.26 0062ad20     part_io_f:malloc.obj
 0004:00042d30       _M_ALLOC_mp_REALLOCREAL2$MLIND.0.26 0062ad30     part_io_f:malloc.obj
 0004:00042d40       _M_ALLOC_mp_REALLOCREAL2$MUIND.0.26 0062ad40     part_io_f:malloc.obj
 0004:00042d50       .T3272_.0.34               0062ad50     part_io_f:malloc.obj
 0004:00042d60       _M_ALLOC_mp_REALLOCDOUBLE2$SHIFT_.0.34 0062ad60     part_io_f:malloc.obj
 0004:00042d70       _M_ALLOC_mp_REALLOCDOUBLE2$LINDEX_.0.34 0062ad70     part_io_f:malloc.obj
 0004:00042d80       _M_ALLOC_mp_REALLOCDOUBLE2$UIND.0.34 0062ad80     part_io_f:malloc.obj
 0004:00042d90       _M_ALLOC_mp_REALLOCDOUBLE2$LIND.0.34 0062ad90     part_io_f:malloc.obj
 0004:00042da0       _M_ALLOC_mp_REALLOCDOUBLE2$MLIND.0.34 0062ada0     part_io_f:malloc.obj
 0004:00042db0       _M_ALLOC_mp_REALLOCDOUBLE2$MUIND.0.34 0062adb0     part_io_f:malloc.obj
 0004:00042dc0       .T838_.0.10                0062adc0     part_io_f:malloc.obj
 0004:00042dd0       _M_ALLOC_mp_REALLOCINT2$SHIFT_.0.10 0062add0     part_io_f:malloc.obj
 0004:00042de0       _M_ALLOC_mp_REALLOCINT2$LINDEX_.0.10 0062ade0     part_io_f:malloc.obj
 0004:00042df0       _M_ALLOC_mp_REALLOCINT2$UIND.0.10 0062adf0     part_io_f:malloc.obj
 0004:00042e00       _M_ALLOC_mp_REALLOCINT2$LIND.0.10 0062ae00     part_io_f:malloc.obj
 0004:00042e10       _M_ALLOC_mp_REALLOCINT2$MLIND.0.10 0062ae10     part_io_f:malloc.obj
 0004:00042e20       _M_ALLOC_mp_REALLOCINT2$MUIND.0.10 0062ae20     part_io_f:malloc.obj
 0004:00042e30       .T1661_.0.18               0062ae30     part_io_f:malloc.obj
 0004:00042e40       _M_ALLOC_mp_REALLOCCHARACTER2$SHIFT_.0.18 0062ae40     part_io_f:malloc.obj
 0004:00042e50       _M_ALLOC_mp_REALLOCCHARACTER2$LINDEX_.0.18 0062ae50     part_io_f:malloc.obj
 0004:00042e60       _M_ALLOC_mp_REALLOCCHARACTER2$UIND.0.18 0062ae60     part_io_f:malloc.obj
 0004:00042e70       _M_ALLOC_mp_REALLOCCHARACTER2$LIND.0.18 0062ae70     part_io_f:malloc.obj
 0004:00042e80       _M_ALLOC_mp_REALLOCCHARACTER2$MUIND.0.18 0062ae80     part_io_f:malloc.obj
 0004:00042e90       _M_ALLOC_mp_REALLOCCHARACTER2$MLIND.0.18 0062ae90     part_io_f:malloc.obj
 0004:00042ea0       _M_ALLOC_mp_REALLOCREAL3$LINDEX_.0.28 0062aea0     part_io_f:malloc.obj
 0004:00042eb0       .T2686_.0.28               0062aeb0     part_io_f:malloc.obj
 0004:00042ec0       _M_ALLOC_mp_REALLOCREAL3$SHIFT_.0.28 0062aec0     part_io_f:malloc.obj
 0004:00042ed0       _M_ALLOC_mp_REALLOCREAL3$UIND.0.28 0062aed0     part_io_f:malloc.obj
 0004:00042ee0       _M_ALLOC_mp_REALLOCREAL3$LIND.0.28 0062aee0     part_io_f:malloc.obj
 0004:00042ef0       _M_ALLOC_mp_REALLOCREAL3$MLIND.0.28 0062aef0     part_io_f:malloc.obj
 0004:00042f00       _M_ALLOC_mp_REALLOCREAL3$MUIND.0.28 0062af00     part_io_f:malloc.obj
 0004:00042f20       _RDTOK1$CHULP.0.1          0062af20     deltares_common:rdtok1.obj
 0004:00043320       _RDTOK1$LINE.0.1           0062b320     deltares_common:rdtok1.obj
 0004:00043720       _RDTOK1$LINE2.0.1          0062b720     deltares_common:rdtok1.obj
 0004:00043770       _RDTOK1$I.0.1              0062b770     deltares_common:rdtok1.obj
 0004:00043774       _RDTOK1$IFL.0.1            0062b774     deltares_common:rdtok1.obj
 0004:00043778       _RDTOK1$LUNIN.0.1          0062b778     deltares_common:rdtok1.obj
 0004:0004377c       _RDTOK1$IPOSL.0.1          0062b77c     deltares_common:rdtok1.obj
 0004:00043780       _RDTOK1$ITYPE.0.1          0062b780     deltares_common:rdtok1.obj
 0004:000437a0       _GETTOK$STRS.0.1           0062b7a0     deltares_common:gettok.obj
 0004:00043820       _GETTOK$NTOT.0.1           0062b820     deltares_common:gettok.obj
 0004:00043824       _GETTOK$ITYPES.0.1         0062b824     deltares_common:gettok.obj
 0004:00043828       _GETTOK$INTS.0.1           0062b828     deltares_common:gettok.obj
 0004:0004382c       _GETTOK$REELS.0.1          0062b82c     deltares_common:gettok.obj
 0004:00043830       _GETTOK$IPOSLS.0.1         0062b830     deltares_common:gettok.obj
 0004:00043834       _GETTOK$IPOSRS.0.1         0062b834     deltares_common:gettok.obj
 0004:00043838       _GETTOK$NUM.0.1            0062b838     deltares_common:gettok.obj
 0004:0004383c       _GETTOK$I.0.1              0062b83c     deltares_common:gettok.obj
 0004:00043840       _GETTOK$J.0.1              0062b840     deltares_common:gettok.obj
 0004:00043844       _GETTOK$DOT.0.1            0062b844     deltares_common:gettok.obj
 0004:00043848       _GETTOK$EXP.0.1            0062b848     deltares_common:gettok.obj
 0004:0004384c       _GETTOK$IEXP.0.1           0062b84c     deltares_common:gettok.obj
 0004:00043850       _GETTOK$I2.0.1             0062b850     deltares_common:gettok.obj
 0004:00043854       _GETTOK$IHLP.0.1           0062b854     deltares_common:gettok.obj
 0004:00043858       _GETTOK$CHTAB.0.1          0062b858     deltares_common:gettok.obj
 0004:00043859       _GETTOK$CH_CR.0.1          0062b859     deltares_common:gettok.obj
 0004:0004385a       _GETTOK$CTRLZ.0.1          0062b85a     deltares_common:gettok.obj
 0004:0004385b       _GETTOK$LIMC.0.1           0062b85b     deltares_common:gettok.obj
 0004:00043880       _WRITE_VERSION$CIDENT.0.1  0062b880     part_utils_f:write_version.obj
 0004:000438d0       _WRITE_VERSION$ITHNDL.0.1  0062b8d0     part_utils_f:write_version.obj
 0004:000438d4       _WRITE_VERSION$OS.0.1      0062b8d4     part_utils_f:write_version.obj
 0004:000438e0       _POLPART$ITHNDL.0.1        0062b8e0     part_utils_f:polpart.obj
 0004:000438e4       _POLPART$BLOK.0.1          0062b8e4     part_utils_f:polpart.obj
 0004:000438e8       _NOEXTSPACES_MOD_mp_NOEXTSPACES$ITHNDL.0.2 0062b8e8     part_utils_f:noextspaces.obj
 0004:000438ec       _has_cctor                 0062b8ec     MSVCRT:crtexe.obj
 0004:000438f0       _mainret                   0062b8f0     MSVCRT:crtexe.obj
 0004:000438f4       _managedapp                0062b8f4     MSVCRT:crtexe.obj
 0004:000438f8       _argc                      0062b8f8     MSVCRT:crtexe.obj
 0004:000438fc       _argv                      0062b8fc     MSVCRT:crtexe.obj
 0004:00043900       _envp                      0062b900     MSVCRT:crtexe.obj
 0004:00043904       _argret                    0062b904     MSVCRT:crtexe.obj
 0004:00043908       _startinfo                 0062b908     MSVCRT:crtexe.obj
 0004:00043910       _GS_ExceptionRecord        0062b910     MSVCRT:gs_report.obj
 0004:00043960       _GS_ContextRecord          0062b960     MSVCRT:gs_report.obj
 0004:00043c2c       _DebuggerWasPresent        0062bc2c     MSVCRT:gs_report.obj
 0004:00043c40       _eptr                      0062bc40     libifcoremt:for_main.obj
 0004:00043c44       _fpe_ieee_sts              0062bc44     libifcoremt:for_main.obj
 0004:00043c50       ?defhdr@?1??create_nefis_files@@9@9 0062bc50     * CIL library *:* CIL module *
 0004:00043c90       ?dathdr@?1??create_nefis_files@@9@9 0062bc90     * CIL library *:* CIL module *
 0004:00043cd0       ?dafhdr@?1??create_nefis_files@@9@9 0062bcd0     * CIL library *:* CIL module *
 0004:00043d54       _index_copy                0062bd54     * CIL library *:* CIL module *
 0004:00043d58       ?found@?1??RT_retrieve_struc@@9@9 0062bd58     * CIL library *:* CIL module *
 0004:00043d60       ?found@?1??RT_update_var_index_array@@9@9 0062bd60     * CIL library *:* CIL module *
 0006:00000000       fwdPxDx                    025da000     libirc:fast_memcpy.obj
 0006:00000140       SSE_src                    025da140     libirc:fast_memcpy.obj
 0006:00000180       Fix16EndTableb             025da180     libirc:fast_memcpy.obj
 0006:000001b0       Fix16EndTable              025da1b0     libirc:fast_memcpy.obj
 0006:000001e0       sse2_align_tbl             025da1e0     libirc:fast_memcpy.obj
 0006:000001f0       setPxDx                    025da1f0     libirc:fast_memset.obj
 0006:00000300       SSExDx                     025da300     libirc:fast_memset.obj
